 libvips-cpp

 Timestamp is 5d78ca7b (Wed Sep 11 12:20:43 2019)

 Preferred load address is 0000000180000000

 Start         Length     Name                   Class
 0001:00000000 000002c0H .text                   CODE
 0001:000002c0 00030910H .text$mn                CODE
 0001:00030bd0 00000020H .text$mn$00             CODE
 0001:00030bf0 00001790H .text$x                 CODE
 0002:00000000 00000500H .idata$5                DATA
 0002:00000500 00000010H .00cfg                  DATA
 0002:00000510 00000008H .CRT$XCA                DATA
 0002:00000518 00000008H .CRT$XCZ                DATA
 0002:00000520 00000008H .CRT$XIA                DATA
 0002:00000528 00000020H .CRT$XIC                DATA
 0002:00000548 00000008H .CRT$XIZ                DATA
 0002:00000550 00000008H .CRT$XPA                DATA
 0002:00000558 00000010H .CRT$XPX                DATA
 0002:00000568 00000008H .CRT$XPXA               DATA
 0002:00000570 00000008H .CRT$XPZ                DATA
 0002:00000578 00000008H .CRT$XTA                DATA
 0002:00000580 00000010H .CRT$XTZ                DATA
 0002:00000588 00000000H .gfids$y                DATA
 0002:00000590 0000d8e8H .rdata                  DATA
 0002:0000de78 00000514H .rdata$r                DATA
 0002:0000e38c 00000384H .rdata$zzzdbg           DATA
 0002:0000e710 00000008H .rtc$IAA                DATA
 0002:0000e718 00000008H .rtc$IZZ                DATA
 0002:0000e720 00000008H .rtc$TAA                DATA
 0002:0000e728 00000008H .rtc$TZZ                DATA
 0002:0000e730 00006c58H .xdata                  DATA
 0002:00015388 00000268H .xdata$x                DATA
 0002:000155f0 00007e54H .edata                  DATA
 0002:0001d444 00000050H .idata$2                DATA
 0002:0001d494 00000014H .idata$3                DATA
 0002:0001d4a8 00000500H .idata$4                DATA
 0002:0001d9a8 00000d58H .idata$6                DATA
 0002:0001e700 00000198H .idata$7                DATA
 0003:00000000 00000a00H .data                   DATA
 0003:00000a00 000001e0H .data$r                 DATA
 0003:00000be0 00001340H .bss                    DATA
 0004:00000000 00002ea4H .pdata                  DATA
 0005:00000000 00000094H _RDATA                  DATA
 0006:00000000 00000060H .rsrc$01                DATA
 0006:00000060 00000180H .rsrc$02                DATA

  Address         Publics by Value              Rva+Base               Lib:Object

 0000:00000000       __guard_fids_count         0000000000000000     <absolute>
 0000:00000000       __guard_longjmp_count      0000000000000000     <absolute>
 0000:00000000       __guard_longjmp_table      0000000000000000     <absolute>
 0000:00000000       __hybrid_code_map          0000000000000000     <absolute>
 0000:00000000       __guard_iat_count          0000000000000000     <absolute>
 0000:00000000       __guard_iat_table          0000000000000000     <absolute>
 0000:00000000       __volatile_metadata        0000000000000000     <absolute>
 0000:00000000       __hybrid_code_map_count    0000000000000000     <absolute>
 0000:00000000       __enclave_config           0000000000000000     <absolute>
 0000:00000000       ___safe_se_handler_count   0000000000000000     <absolute>
 0000:00000000       __AbsoluteZero             0000000000000000     <absolute>
 0000:00000000       ___safe_se_handler_table   0000000000000000     <absolute>
 0000:00000000       __guard_fids_table         0000000000000000     <absolute>
 0000:00000000       __hybrid_auxiliary_iat     0000000000000000     <absolute>
 0000:00000000       __dynamic_value_reloc_table 0000000000000000     <absolute>
 0000:00000100       __guard_flags              0000000000000100     <absolute>
 0000:00000000       __ImageBase                0000000180000000     <linker-defined>
 0001:00000000       vips_image_set_int         0000000180001000     libvips:dffjs01561.o
 0001:00000008       vips_image_remove          0000000180001008     libvips:dffjs01553.o
 0001:00000010       vips_image_new_from_memory 0000000180001010     libvips:dffjs01536.o
 0001:00000018       vips_image_set_string      0000000180001018     libvips:dffjs01564.o
 0001:00000020       vips_image_set_blob        0000000180001020     libvips:dffjs01556.o
 0001:00000028       vips_object_get_type       0000000180001028     libvips:dffjs01731.o
 0001:00000030       vips_image_get_xoffset     0000000180001030     libvips:dffjs01507.o
 0001:00000038       vips_image_get_width       0000000180001038     libvips:dffjs01506.o
 0001:00000040       vips_image_get_yres        0000000180001040     libvips:dffjs01510.o
 0001:00000048       vips_image_get_height      0000000180001048     libvips:dffjs01493.o
 0001:00000050       vips_image_new_memory      0000000180001050     libvips:dffjs01541.o
 0001:00000058       vips_image_get_filename    0000000180001058     libvips:dffjs01491.o
 0001:00000060       vips_image_get_string      0000000180001060     libvips:dffjs01503.o
 0001:00000068       vips_image_get_data        0000000180001068     libvips:dffjs01488.o
 0001:00000070       vips_image_guess_interpretation 0000000180001070     libvips:dffjs01512.o
 0001:00000078       vips_image_get_format      0000000180001078     libvips:dffjs01492.o
 0001:00000080       vips_image_get_xres        0000000180001080     libvips:dffjs01508.o
 0001:00000088       vips_image_new_from_image  0000000180001088     libvips:dffjs01534.o
 0001:00000090       vips_image_copy_memory     0000000180001090     libvips:dffjs01476.o
 0001:00000098       vips_image_get_interpretation 0000000180001098     libvips:dffjs01497.o
 0001:000000a0       vips_image_write_to_memory 00000001800010a0     libvips:dffjs01573.o
 0001:000000a8       vips_image_get_bands       00000001800010a8     libvips:dffjs01485.o
 0001:000000b0       vips_image_get_typeof      00000001800010b0     libvips:dffjs01505.o
 0001:000000b8       vips_image_new_matrix_from_array 00000001800010b8     libvips:dffjs01539.o
 0001:000000c0       vips_image_get_coding      00000001800010c0     libvips:dffjs01487.o
 0001:000000c8       vips_error_buffer          00000001800010c8     libvips:dffjs01245.o
 0001:000000d0       vips_image_new_temp_file   00000001800010d0     libvips:dffjs01543.o
 0001:000000d8       vips_image_get_blob        00000001800010d8     libvips:dffjs01486.o
 0001:000000e0       vips_image_get_double      00000001800010e0     libvips:dffjs01489.o
 0001:000000e8       vips_image_set_double      00000001800010e8     libvips:dffjs01559.o
 0001:000000f0       vips_image_hasalpha        00000001800010f0     libvips:dffjs01513.o
 0001:000000f8       vips_image_get_int         00000001800010f8     libvips:dffjs01496.o
 0001:00000100       vips_image_get_yoffset     0000000180001100     libvips:dffjs01509.o
 0001:00000108       vips_interpolate_new       0000000180001108     libvips:dffjs01595.o
 0001:00000110       vips_interpolate_get_type  0000000180001110     libvips:dffjs01588.o
 0001:00000118       vips_value_set_array_image 0000000180001118     libvips:dffjs02059.o
 0001:00000120       vips_value_set_array_double 0000000180001120     libvips:dffjs02058.o
 0001:00000128       vips_foreign_find_load_buffer 0000000180001128     libvips:dffjs01294.o
 0001:00000130       vips_value_get_array_int   0000000180001130     libvips:dffjs02050.o
 0001:00000138       vips_operation_new         0000000180001138     libvips:dffjs01770.o
 0001:00000140       vips_array_image_get_type  0000000180001140     libvips:dffjs00921.o
 0001:00000148       vips__filename_split8      0000000180001148     libvips:dffjs00710.o
 0001:00000150       vips_blob_new              0000000180001150     libvips:dffjs00973.o
 0001:00000158       vips_cache_operation_buildp 0000000180001158     libvips:dffjs01025.o
 0001:00000160       vips_value_set_array_int   0000000180001160     libvips:dffjs02060.o
 0001:00000168       vips_blob_get_type         0000000180001168     libvips:dffjs00972.o
 0001:00000170       vips_enum_from_nick        0000000180001170     libvips:dffjs01235.o
 0001:00000178       vips_array_double_get_type 0000000180001178     libvips:dffjs00915.o
 0001:00000180       vips_format_sizeof_unsafe  0000000180001180     libvips:dffjs01380.o
 0001:00000188       vips_value_get_array_double 0000000180001188     libvips:dffjs02048.o
 0001:00000190       vips_image_new_matrix      0000000180001190     libvips:dffjs01538.o
 0001:00000198       vips_image_get_type        0000000180001198     libvips:dffjs01504.o
 0001:000001a0       vips_object_unref_outputs  00000001800011a0     libvips:dffjs01755.o
 0001:000001a8       vips_foreign_find_save     00000001800011a8     libvips:dffjs01295.o
 0001:000001b0       vips_error_clear           00000001800011b0     libvips:dffjs01246.o
 0001:000001b8       vips_object_set_from_string 00000001800011b8     libvips:dffjs01748.o
 0001:000001c0       vips_value_get_array_image 00000001800011c0     libvips:dffjs02049.o
 0001:000001c8       vips_image_write           00000001800011c8     libvips:dffjs01568.o
 0001:000001d0       vips_area_unref            00000001800011d0     libvips:dffjs00901.o
 0001:000001d8       vips_foreign_find_save_buffer 00000001800011d8     libvips:dffjs01296.o
 0001:000001e0       vips_array_int_get_type    00000001800011e0     libvips:dffjs00926.o
 0001:000001e8       vips_object_get_argument   00000001800011e8     libvips:dffjs01725.o
 0001:000001f0       vips_foreign_find_load     00000001800011f0     libvips:dffjs01293.o
 0001:00000200       g_assertion_message_expr   0000000180001200     libglib-2.0:dobjs00043.o
 0001:00000208       g_log                      0000000180001208     libglib-2.0:dobjs00651.o
 0001:00000210       g_object_ref               0000000180001210     libgobject-2.0:dybjs00143.o
 0001:00000218       g_object_unref             0000000180001218     libgobject-2.0:dybjs00161.o
 0001:00000220       g_type_check_instance_is_a 0000000180001220     libgobject-2.0:dybjs00278.o
 0001:00000228       g_value_init               0000000180001228     libgobject-2.0:dybjs00390.o
 0001:00000230       g_value_set_object         0000000180001230     libgobject-2.0:dybjs00408.o
 0001:00000238       g_value_set_boolean        0000000180001238     libgobject-2.0:dybjs00395.o
 0001:00000240       g_value_get_string         0000000180001240     libgobject-2.0:dybjs00383.o
 0001:00000248       g_value_set_double         0000000180001248     libgobject-2.0:dybjs00399.o
 0001:00000250       g_value_set_string         0000000180001250     libgobject-2.0:dybjs00416.o
 0001:00000258       g_type_check_instance_cast 0000000180001258     libgobject-2.0:dybjs00277.o
 0001:00000260       g_value_get_boolean        0000000180001260     libgobject-2.0:dybjs00368.o
 0001:00000268       g_value_set_boxed          0000000180001268     libgobject-2.0:dybjs00396.o
 0001:00000270       g_value_get_object         0000000180001270     libgobject-2.0:dybjs00379.o
 0001:00000278       g_value_set_int            0000000180001278     libgobject-2.0:dybjs00405.o
 0001:00000280       g_value_dup_boxed          0000000180001280     libgobject-2.0:dybjs00362.o
 0001:00000288       g_value_get_int            0000000180001288     libgobject-2.0:dybjs00376.o
 0001:00000290       g_value_set_enum           0000000180001290     libgobject-2.0:dybjs00400.o
 0001:00000298       g_value_get_double         0000000180001298     libgobject-2.0:dybjs00371.o
 0001:000002a0       g_object_get_property      00000001800012a0     libgobject-2.0:dybjs00128.o
 0001:000002a8       g_value_unset              00000001800012a8     libgobject-2.0:dybjs00431.o
 0001:000002b0       g_object_set_property      00000001800012b0     libgobject-2.0:dybjs00153.o
 0001:000002c0       ??0exception@stdext@@QEAA@AEBV01@@Z 00000001800012c0 f i VError.obj
 0001:000002e0       ??1exception@stdext@@UEAA@XZ 00000001800012e0 f i VError.obj
 0001:000002e0       ??1failure@ios_base@std@@UEAA@XZ 00000001800012e0 f i VError.obj
 0001:000002f0       ?what@exception@stdext@@UEBAPEBDXZ 00000001800012f0 f i VError.obj
 0001:00000310       ?_Raise@exception@stdext@@QEBAXXZ 0000000180001310 f i VError.obj
 0001:00000350       ?_Doraise@exception@stdext@@MEBAXXZ 0000000180001350 f i VError.obj
 0001:00000350       _guard_check_icall_nop     0000000180001350 f i LIBCMT:guard_support.obj
 0001:00000360       ??_Eexception@stdext@@UEAAPEAXI@Z 0000000180001360 f i * CIL library *:* CIL module *
 0001:00000360       ??_Eruntime_error@std@@UEAAPEAXI@Z 0000000180001360 f i * CIL library *:* CIL module *
 0001:00000360       ??_Gexception@stdext@@UEAAPEAXI@Z 0000000180001360 f i VError.obj
 0001:00000360       ??_Gruntime_error@std@@UEAAPEAXI@Z 0000000180001360 f i VError.obj
 0001:00000390       ?default_error_condition@error_category@std@@UEBA?AVerror_condition@2@H@Z 0000000180001390 f i VError.obj
 0001:000003a0       ?equivalent@error_category@std@@UEBA_NHAEBVerror_condition@2@@Z 00000001800013a0 f i VError.obj
 0001:000003e0       ?equivalent@error_category@std@@UEBA_NAEBVerror_code@2@H@Z 00000001800013e0 f i VError.obj
 0001:00000400       ?make_error_code@std@@YA?AVerror_code@1@W4io_errc@1@@Z 0000000180001400 f i VError.obj
 0001:00000450       ??_Gfailure@ios_base@std@@UEAAPEAXI@Z 0000000180001450 f i VError.obj
 0001:00000450       ??_Gsystem_error@std@@UEAAPEAXI@Z 0000000180001450 f i VError.obj
 0001:00000450       ??_Efailure@ios_base@std@@UEAAPEAXI@Z 0000000180001450 f i * CIL library *:* CIL module *
 0001:00000450       ??_E_System_error@std@@UEAAPEAXI@Z 0000000180001450 f i * CIL library *:* CIL module *
 0001:00000450       ??_Esystem_error@std@@UEAAPEAXI@Z 0000000180001450 f i * CIL library *:* CIL module *
 0001:00000450       ??_G_System_error@std@@UEAAPEAXI@Z 0000000180001450 f i VError.obj
 0001:00000480       ??0system_error@std@@QEAA@Verror_code@1@PEBD@Z 0000000180001480 f i VError.obj
 0001:000006a0       ?name@_Iostream_error_category@std@@UEBAPEBDXZ 00000001800016a0 f i VError.obj
 0001:000006b0       ?message@_Iostream_error_category@std@@UEBA?AV?$basic_string@DU?$char_traits@D@std@@V?$allocator@D@2@@2@H@Z 00000001800016b0 f i VError.obj
 0001:00000730       ??_E_Iostream_error_category@std@@UEAAPEAXI@Z 0000000180001730 f i * CIL library *:* CIL module *
 0001:00000730       ??_G_Iostream_error_category@std@@UEAAPEAXI@Z 0000000180001730 f i VError.obj
 0001:00000760       ??0failure@ios_base@std@@QEAA@PEBDAEBVerror_code@2@@Z 0000000180001760 f i VError.obj
 0001:000007a0       ?_Doraise@failure@ios_base@std@@MEBAXXZ 00000001800017a0 f i VError.obj
 0001:000007c0       ??0VError@vips@@QEAA@AEBV?$basic_string@DU?$char_traits@D@std@@V?$allocator@D@2@@std@@@Z 00000001800017c0 f i VError.obj
 0001:00000800       ??0VError@vips@@QEAA@XZ    0000000180001800 f i VError.obj
 0001:00000870       ??1VError@vips@@UEAA@XZ    0000000180001870 f i VError.obj
 0001:000008f0       ?what@VError@vips@@UEBAPEBDXZ 00000001800018f0 f i VError.obj
 0001:00000900       ??0VError@vips@@QEAA@AEBV01@@Z 0000000180001900 f i VError.obj
 0001:00000950       ??4VError@vips@@QEAAAEAV01@AEBV01@@Z 0000000180001950 f i VError.obj
 0001:00000990       ??_EVError@vips@@UEAAPEAXI@Z 0000000180001990 f i VError.obj
 0001:00000a20       ??4VObject@vips@@QEAAAEAV01@AEBV01@@Z 0000000180001a20 f i VError.obj
 0001:00000af0       ??0VOption@vips@@QEAA@XZ   0000000180001af0 f i VError.obj
 0001:00000b30       ??0VOption@vips@@QEAA@AEBV01@@Z 0000000180001b30 f i VError.obj
 0001:00000ca0       ??4VOption@vips@@QEAAAEAV01@AEBV01@@Z 0000000180001ca0 f i VError.obj
 0001:00000cd0       ??_EVOption@vips@@UEAAPEAXI@Z 0000000180001cd0 f i VError.obj
 0001:00000d70       ??0VImage@vips@@QEAA@PEAU_VipsImage@@W4VSteal@1@@Z 0000000180001d70 f i VError.obj
 0001:00000d70       ??0VInterpolate@vips@@QEAA@PEAU_VipsInterpolate@@W4VSteal@1@@Z 0000000180001d70 f i VError.obj
 0001:00000df0       ??0VImage@vips@@QEAA@XZ    0000000180001df0 f i VError.obj
 0001:00000e00       ?get_image@VImage@vips@@QEBAPEAU_VipsImage@@XZ 0000000180001e00 f i VError.obj
 0001:00000e00       ?get_interpolate@VInterpolate@vips@@QEBAPEAU_VipsInterpolate@@XZ 0000000180001e00 f i VError.obj
 0001:00000e60       ?width@VImage@vips@@QEBAHXZ 0000000180001e60 f i VError.obj
 0001:00000ec0       ?height@VImage@vips@@QEBAHXZ 0000000180001ec0 f i VError.obj
 0001:00000f20       ?bands@VImage@vips@@QEBAHXZ 0000000180001f20 f i VError.obj
 0001:00000f80       ?format@VImage@vips@@QEBA?AW4VipsBandFormat@@XZ 0000000180001f80 f i VError.obj
 0001:00000fe0       ?coding@VImage@vips@@QEBA?AW4VipsCoding@@XZ 0000000180001fe0 f i VError.obj
 0001:00001040       ?interpretation@VImage@vips@@QEBA?AW4VipsInterpretation@@XZ 0000000180002040 f i VError.obj
 0001:000010a0       ?guess_interpretation@VImage@vips@@QEBA?AW4VipsInterpretation@@XZ 00000001800020a0 f i VError.obj
 0001:00001100       ?xres@VImage@vips@@QEBANXZ 0000000180002100 f i VError.obj
 0001:00001160       ?yres@VImage@vips@@QEBANXZ 0000000180002160 f i VError.obj
 0001:000011c0       ?xoffset@VImage@vips@@QEBAHXZ 00000001800021c0 f i VError.obj
 0001:00001220       ?yoffset@VImage@vips@@QEBAHXZ 0000000180002220 f i VError.obj
 0001:00001280       ?has_alpha@VImage@vips@@QEBA_NXZ 0000000180002280 f i VError.obj
 0001:000012e0       ?filename@VImage@vips@@QEBAPEBDXZ 00000001800022e0 f i VError.obj
 0001:00001340       ?data@VImage@vips@@QEBAPEBXXZ 0000000180002340 f i VError.obj
 0001:000013a0       ?set@VImage@vips@@QEAAXPEBDH@Z 00000001800023a0 f i VError.obj
 0001:00001420       ?set@VImage@vips@@QEAAXPEBDN@Z 0000000180002420 f i VError.obj
 0001:000014a0       ?set@VImage@vips@@QEAAXPEBD0@Z 00000001800024a0 f i VError.obj
 0001:00001520       ?set@VImage@vips@@QEAAXPEBDP6AHPEAX1@Z1_K@Z 0000000180002520 f i VError.obj
 0001:000015b0       ?get_typeof@VImage@vips@@QEBA_KPEBD@Z 00000001800025b0 f i VError.obj
 0001:00001620       ?get_int@VImage@vips@@QEBAHPEBD@Z 0000000180002620 f i VError.obj
 0001:000016d0       ?get_double@VImage@vips@@QEBANPEBD@Z 00000001800026d0 f i VError.obj
 0001:00001790       ?get_string@VImage@vips@@QEBAPEBDPEBD@Z 0000000180002790 f i VError.obj
 0001:00001840       ?get_blob@VImage@vips@@QEBAPEBXPEBDPEA_K@Z 0000000180002840 f i VError.obj
 0001:000018f0       ?remove@VImage@vips@@QEBA_NPEBD@Z 00000001800028f0 f i VError.obj
 0001:00001960       ?option@VImage@vips@@SAPEAVVOption@2@XZ 0000000180002960 f i VError.obj
 0001:000019c0       ?new_memory@VImage@vips@@SA?AV12@XZ 00000001800029c0 f i VError.obj
 0001:00001a30       ?new_temp_file@VImage@vips@@SA?AV12@PEBD@Z 0000000180002a30 f i VError.obj
 0001:00001ae0       ?new_from_memory@VImage@vips@@SA?AV12@PEAX_KHHHW4VipsBandFormat@@@Z 0000000180002ae0 f i VError.obj
 0001:00001bb0       ?new_matrix@VImage@vips@@SA?AV12@HHPEANH@Z 0000000180002bb0 f i VError.obj
 0001:00001c70       ?new_from_image@VImage@vips@@QEBA?AV12@V?$vector@NV?$allocator@N@std@@@std@@@Z 0000000180002c70 f i VError.obj
 0001:00001de0       ?new_from_image@VImage@vips@@QEBA?AV12@N@Z 0000000180002de0 f i VError.obj
 0001:00001e20       ?copy_memory@VImage@vips@@QEBA?AV12@XZ 0000000180002e20 f i VError.obj
 0001:00001f10       ?write_to_memory@VImage@vips@@QEBAPEAXPEA_K@Z 0000000180002f10 f i VError.obj
 0001:00001fc0       ?linear@VImage@vips@@QEBA?AV12@NNPEAVVOption@2@@Z 0000000180002fc0 f i VError.obj
 0001:00002060       ?linear@VImage@vips@@QEBA?AV12@V?$vector@NV?$allocator@N@std@@@std@@NPEAVVOption@2@@Z 0000000180003060 f i VError.obj
 0001:000021a0       ?linear@VImage@vips@@QEBA?AV12@NV?$vector@NV?$allocator@N@std@@@std@@PEAVVOption@2@@Z 00000001800031a0 f i VError.obj
 0001:000022f0       ?bandjoin@VImage@vips@@QEBA?AV12@NPEAVVOption@2@@Z 00000001800032f0 f i VError.obj
 0001:00002350       ?bandjoin@VImage@vips@@QEBA?AV12@V?$vector@NV?$allocator@N@std@@@std@@PEAVVOption@2@@Z 0000000180003350 f i VError.obj
 0001:00002460       ?fliphor@VImage@vips@@QEBA?AV12@PEAVVOption@2@@Z 0000000180003460 f i VError.obj
 0001:00002480       ?flipver@VImage@vips@@QEBA?AV12@PEAVVOption@2@@Z 0000000180003480 f i VError.obj
 0001:000024a0       ?rot90@VImage@vips@@QEBA?AV12@PEAVVOption@2@@Z 00000001800034a0 f i VError.obj
 0001:000024c0       ?rot180@VImage@vips@@QEBA?AV12@PEAVVOption@2@@Z 00000001800034c0 f i VError.obj
 0001:000024e0       ?rot270@VImage@vips@@QEBA?AV12@PEAVVOption@2@@Z 00000001800034e0 f i VError.obj
 0001:00002500       ?dilate@VImage@vips@@QEBA?AV12@V12@PEAVVOption@2@@Z 0000000180003500 f i VError.obj
 0001:00002600       ?erode@VImage@vips@@QEBA?AV12@V12@PEAVVOption@2@@Z 0000000180003600 f i VError.obj
 0001:000026f0       ?median@VImage@vips@@QEBA?AV12@HPEAVVOption@2@@Z 00000001800036f0 f i VError.obj
 0001:00002730       ?floor@VImage@vips@@QEBA?AV12@PEAVVOption@2@@Z 0000000180003730 f i VError.obj
 0001:00002750       ?ceil@VImage@vips@@QEBA?AV12@PEAVVOption@2@@Z 0000000180003750 f i VError.obj
 0001:00002770       ?rint@VImage@vips@@QEBA?AV12@PEAVVOption@2@@Z 0000000180003770 f i VError.obj
 0001:00002790       ?bandand@VImage@vips@@QEBA?AV12@PEAVVOption@2@@Z 0000000180003790 f i VError.obj
 0001:000027b0       ?bandor@VImage@vips@@QEBA?AV12@PEAVVOption@2@@Z 00000001800037b0 f i VError.obj
 0001:000027d0       ?bandeor@VImage@vips@@QEBA?AV12@PEAVVOption@2@@Z 00000001800037d0 f i VError.obj
 0001:000027f0       ?real@VImage@vips@@QEBA?AV12@PEAVVOption@2@@Z 00000001800037f0 f i VError.obj
 0001:00002810       ?imag@VImage@vips@@QEBA?AV12@PEAVVOption@2@@Z 0000000180003810 f i VError.obj
 0001:00002830       ?polar@VImage@vips@@QEBA?AV12@PEAVVOption@2@@Z 0000000180003830 f i VError.obj
 0001:00002850       ?rect@VImage@vips@@QEBA?AV12@PEAVVOption@2@@Z 0000000180003850 f i VError.obj
 0001:00002870       ?conj@VImage@vips@@QEBA?AV12@PEAVVOption@2@@Z 0000000180003870 f i VError.obj
 0001:00002890       ?sin@VImage@vips@@QEBA?AV12@PEAVVOption@2@@Z 0000000180003890 f i VError.obj
 0001:000028b0       ?cos@VImage@vips@@QEBA?AV12@PEAVVOption@2@@Z 00000001800038b0 f i VError.obj
 0001:000028d0       ?tan@VImage@vips@@QEBA?AV12@PEAVVOption@2@@Z 00000001800038d0 f i VError.obj
 0001:000028f0       ?asin@VImage@vips@@QEBA?AV12@PEAVVOption@2@@Z 00000001800038f0 f i VError.obj
 0001:00002910       ?acos@VImage@vips@@QEBA?AV12@PEAVVOption@2@@Z 0000000180003910 f i VError.obj
 0001:00002930       ?atan@VImage@vips@@QEBA?AV12@PEAVVOption@2@@Z 0000000180003930 f i VError.obj
 0001:00002950       ?log@VImage@vips@@QEBA?AV12@PEAVVOption@2@@Z 0000000180003950 f i VError.obj
 0001:00002970       ?log10@VImage@vips@@QEBA?AV12@PEAVVOption@2@@Z 0000000180003970 f i VError.obj
 0001:00002990       ?exp@VImage@vips@@QEBA?AV12@PEAVVOption@2@@Z 0000000180003990 f i VError.obj
 0001:000029b0       ?exp10@VImage@vips@@QEBA?AV12@PEAVVOption@2@@Z 00000001800039b0 f i VError.obj
 0001:000029d0       ?pow@VImage@vips@@QEBA?AV12@V12@PEAVVOption@2@@Z 00000001800039d0 f i VError.obj
 0001:00002ac0       ?pow@VImage@vips@@QEBA?AV12@NPEAVVOption@2@@Z 0000000180003ac0 f i VError.obj
 0001:00002b20       ?pow@VImage@vips@@QEBA?AV12@V?$vector@NV?$allocator@N@std@@@std@@PEAVVOption@2@@Z 0000000180003b20 f i VError.obj
 0001:00002c30       ?wop@VImage@vips@@QEBA?AV12@V12@PEAVVOption@2@@Z 0000000180003c30 f i VError.obj
 0001:00002d30       ?wop@VImage@vips@@QEBA?AV12@NPEAVVOption@2@@Z 0000000180003d30 f i VError.obj
 0001:00002d90       ?wop@VImage@vips@@QEBA?AV12@V?$vector@NV?$allocator@N@std@@@std@@PEAVVOption@2@@Z 0000000180003d90 f i VError.obj
 0001:00002ea0       ?ifthenelse@VImage@vips@@QEBA?AV12@V?$vector@NV?$allocator@N@std@@@std@@V12@PEAVVOption@2@@Z 0000000180003ea0 f i VError.obj
 0001:00003070       ?ifthenelse@VImage@vips@@QEBA?AV12@V12@V?$vector@NV?$allocator@N@std@@@std@@PEAVVOption@2@@Z 0000000180004070 f i VError.obj
 0001:00003230       ?ifthenelse@VImage@vips@@QEBA?AV12@V?$vector@NV?$allocator@N@std@@@std@@0PEAVVOption@2@@Z 0000000180004230 f i VError.obj
 0001:00003420       ?ifthenelse@VImage@vips@@QEBA?AV12@NV12@PEAVVOption@2@@Z 0000000180004420 f i VError.obj
 0001:00003550       ?ifthenelse@VImage@vips@@QEBA?AV12@V12@NPEAVVOption@2@@Z 0000000180004550 f i VError.obj
 0001:00003670       ?ifthenelse@VImage@vips@@QEBA?AV12@NNPEAVVOption@2@@Z 0000000180004670 f i VError.obj
 0001:00003710       ??1VInterpolate@vips@@QEAA@XZ 0000000180004710 f i VError.obj
 0001:00003710       ??1VImage@vips@@QEAA@XZ    0000000180004710 f i VError.obj
 0001:00003780       ??0VInterpolate@vips@@QEAA@AEBV01@@Z 0000000180004780 f i VError.obj
 0001:00003780       ??0VImage@vips@@QEAA@AEBV01@@Z 0000000180004780 f i VError.obj
 0001:00003780       ??0VInterpolate@vips@@QEAA@$$QEAV01@@Z 0000000180004780 f i VError.obj
 0001:00003780       ??0VImage@vips@@QEAA@$$QEAV01@@Z 0000000180004780 f i VError.obj
 0001:000037f0       ??4VImage@vips@@QEAAAEAV01@AEBV01@@Z 00000001800047f0 f i VError.obj
 0001:000037f0       ??4VInterpolate@vips@@QEAAAEAV01@$$QEAV01@@Z 00000001800047f0 f i VError.obj
 0001:000037f0       ??4VImage@vips@@QEAAAEAV01@$$QEAV01@@Z 00000001800047f0 f i VError.obj
 0001:000037f0       ??4VInterpolate@vips@@QEAAAEAV01@AEBV01@@Z 00000001800047f0 f i VError.obj
 0001:00003810       ?ostream_print@VError@vips@@QEBAXAEAV?$basic_ostream@DU?$char_traits@D@std@@@std@@@Z 0000000180004810 f   VError.obj
 0001:00003830       ??1?$vector@NV?$allocator@N@std@@@std@@QEAA@XZ 0000000180004830 f i VError.obj
 0001:00003890       ??1?$basic_string@DU?$char_traits@D@std@@V?$allocator@D@2@@std@@QEAA@XZ 0000000180004890 f i VError.obj
 0001:000038f0       ??0?$basic_string@DU?$char_traits@D@std@@V?$allocator@D@2@@std@@QEAA@AEBV01@@Z 00000001800048f0 f i VError.obj
 0001:000039d0       ?_Buy_raw@?$vector@NV?$allocator@N@std@@@std@@AEAAX_K@Z 00000001800049d0 f i VError.obj
 0001:00003a60       ?assign@?$basic_string@DU?$char_traits@D@std@@V?$allocator@D@2@@std@@QEAAAEAV12@QEBD_K@Z 0000000180004a60 f i VError.obj
 0001:00003bb0       ?append@?$basic_string@DU?$char_traits@D@std@@V?$allocator@D@2@@std@@QEAAAEAV12@QEBD_K@Z 0000000180004bb0 f i VError.obj
 0001:00003c30       ??$_Reallocate_grow_by@V<lambda_65e615be2a453ca0576c979606f46740>@@PEBD_K@?$basic_string@DU?$char_traits@D@std@@V?$allocator@D@2@@std@@AEAAAEAV01@_KV<lambda_65e615be2a453ca0576c979606f46740>@@PEBD_K@Z 0000000180004c30 f i VError.obj
 0001:00003db0       ??1?$_List_node_insert_op@V?$allocator@U?$_List_node@PEAUPair@VOption@vips@@PEAX@std@@@std@@@std@@QEAA@XZ 0000000180004db0 f i VError.obj
 0001:00003e00       ?_Xlen@?$basic_string@DU?$char_traits@D@std@@V?$allocator@D@2@@std@@CAXXZ 0000000180004e00 f i VError.obj
 0001:00003e20       ??$_Immortalize_impl@V_Iostream_error_category@std@@@std@@YAHPEAX0PEAPEAX@Z 0000000180004e20 f i VError.obj
 0001:00003e40       ??$_Insert_string@DU?$char_traits@D@std@@_K@std@@YAAEAV?$basic_ostream@DU?$char_traits@D@std@@@0@AEAV10@QEBD_K@Z 0000000180004e40 f i VError.obj
 0001:00004100       ??$_Assign_cast@AEAPEAUPair@VOption@vips@@V?$_List_unchecked_const_iterator@V?$_List_val@U?$_List_simple_types@PEAUPair@VOption@vips@@@std@@@std@@U_Iterator_base0@2@@std@@@?$list@PEAUPair@VOption@vips@@V?$allocator@PEAUPair@VOption@vips@@@std@@@std@@AEAAXV?$_List_unchecked_const_iterator@V?$_List_val@U?$_List_simple_types@PEAUPair@VOption@vips@@@std@@@std@@U_Iterator_base0@2@@1@V21@@Z 0000000180005100 f i VError.obj
 0001:000042d0       ??1?$_Alloc_construct_ptr@V?$allocator@U?$_List_node@PEAUPair@VOption@vips@@PEAX@std@@@std@@@std@@QEAA@XZ 00000001800052d0 f i VError.obj
 0001:000042d0       ??1?$_List_node_emplace_op@V?$allocator@U?$_List_node@PEAUPair@VOption@vips@@PEAX@std@@@std@@@std@@QEAA@XZ 00000001800052d0 f i VInterpolate.obj
 0001:000042f0       ??1sentry@?$basic_ostream@DU?$char_traits@D@std@@@std@@QEAA@XZ 00000001800052f0 f i VError.obj
 0001:000043c0       ??0sentry@?$basic_ostream@DU?$char_traits@D@std@@@std@@QEAA@AEAV12@@Z 00000001800053c0 f i VError.obj
 0001:000044f0       ??1_Sentry_base@?$basic_ostream@DU?$char_traits@D@std@@@std@@QEAA@XZ 00000001800054f0 f i VError.obj
 0001:00004520       ?new_from_name@VInterpolate@vips@@SA?AV12@PEBDPEAVVOption@2@@Z 0000000180005520 f   VInterpolate.obj
 0001:000045f0       ?set@VOption@vips@@QEAAPEAV12@PEBDVVInterpolate@2@@Z 00000001800055f0 f   VInterpolate.obj
 0001:00004780       ?to_vectorv@vips@@YA?AV?$vector@NV?$allocator@N@std@@@std@@HZZ 0000000180005780 f   VImage.obj
 0001:00004840       ?to_vector@vips@@YA?AV?$vector@NV?$allocator@N@std@@@std@@N@Z 0000000180005840 f   VImage.obj
 0001:00004870       ?to_vector@vips@@YA?AV?$vector@NV?$allocator@N@std@@@std@@HQEAN@Z 0000000180005870 f   VImage.obj
 0001:00004990       ?negate@vips@@YA?AV?$vector@NV?$allocator@N@std@@@std@@V23@@Z 0000000180005990 f   VImage.obj
 0001:00004ad0       ?invert@vips@@YA?AV?$vector@NV?$allocator@N@std@@@std@@V23@@Z 0000000180005ad0 f   VImage.obj
 0001:00004c10       ??1VOption@vips@@UEAA@XZ   0000000180005c10 f   VImage.obj
 0001:00004cb0       ?set@VOption@vips@@QEAAPEAV12@PEBD_N@Z 0000000180005cb0 f   VImage.obj
 0001:00004da0       ?set@VOption@vips@@QEAAPEAV12@PEBDH@Z 0000000180005da0 f   VImage.obj
 0001:00004e90       ?set@VOption@vips@@QEAAPEAV12@PEBDN@Z 0000000180005e90 f   VImage.obj
 0001:00004f90       ?set@VOption@vips@@QEAAPEAV12@PEBD0@Z 0000000180005f90 f   VImage.obj
 0001:00005080       ?set@VOption@vips@@QEAAPEAV12@PEBDVVImage@2@@Z 0000000180006080 f   VImage.obj
 0001:00005210       ?set@VOption@vips@@QEAAPEAV12@PEBDV?$vector@NV?$allocator@N@std@@@std@@@Z 0000000180006210 f   VImage.obj
 0001:000053a0       ?set@VOption@vips@@QEAAPEAV12@PEBDV?$vector@HV?$allocator@H@std@@@std@@@Z 00000001800063a0 f   VImage.obj
 0001:00005540       ?set@VOption@vips@@QEAAPEAV12@PEBDV?$vector@VVImage@vips@@V?$allocator@VVImage@vips@@@std@@@std@@@Z 0000000180006540 f   VImage.obj
 0001:00005740       ?set@VOption@vips@@QEAAPEAV12@PEBDPEAU_VipsBlob@@@Z 0000000180006740 f   VImage.obj
 0001:00005840       ?set@VOption@vips@@QEAAPEAV12@PEBDPEA_N@Z 0000000180006840 f   VImage.obj
 0001:00005930       ?set@VOption@vips@@QEAAPEAV12@PEBDPEAH@Z 0000000180006930 f   VImage.obj
 0001:00005a20       ?set@VOption@vips@@QEAAPEAV12@PEBDPEAN@Z 0000000180006a20 f   VImage.obj
 0001:00005b10       ?set@VOption@vips@@QEAAPEAV12@PEBDPEAVVImage@2@@Z 0000000180006b10 f   VImage.obj
 0001:00005c00       ?set@VOption@vips@@QEAAPEAV12@PEBDPEAV?$vector@NV?$allocator@N@std@@@std@@@Z 0000000180006c00 f   VImage.obj
 0001:00005cf0       ?set@VOption@vips@@QEAAPEAV12@PEBDPEAPEAU_VipsBlob@@@Z 0000000180006cf0 f   VImage.obj
 0001:00005de0       ?set_operation@VOption@vips@@QEAAXPEAU_VipsOperation@@@Z 0000000180006de0 f   VImage.obj
 0001:00005fe0       ?get_operation@VOption@vips@@QEAAXPEAU_VipsOperation@@@Z 0000000180006fe0 f   VImage.obj
 0001:000062b0       ?call_option_string@VImage@vips@@SAXPEBD0PEAVVOption@2@@Z 00000001800072b0 f   VImage.obj
 0001:00006450       ?call@VImage@vips@@SAXPEBDPEAVVOption@2@@Z 0000000180007450 f   VImage.obj
 0001:00006460       ?new_from_file@VImage@vips@@SA?AV12@PEBDPEAVVOption@2@@Z 0000000180007460 f   VImage.obj
 0001:000065b0       ?new_from_buffer@VImage@vips@@SA?AV12@PEBX_KPEBDPEAVVOption@2@@Z 00000001800075b0 f   VImage.obj
 0001:00006700       ?new_from_buffer@VImage@vips@@SA?AV12@AEBV?$basic_string@DU?$char_traits@D@std@@V?$allocator@D@2@@std@@PEBDPEAVVOption@2@@Z 0000000180007700 f   VImage.obj
 0001:00006730       ?new_matrix@VImage@vips@@SA?AV12@HH@Z 0000000180007730 f   VImage.obj
 0001:000067a0       ?new_matrixv@VImage@vips@@SA?AV12@HHZZ 00000001800077a0 f   VImage.obj
 0001:00006910       ?write@VImage@vips@@QEBA?AV12@V12@@Z 0000000180007910 f   VImage.obj
 0001:00006ab0       ?write_to_file@VImage@vips@@QEBAXPEBDPEAVVOption@2@@Z 0000000180007ab0 f   VImage.obj
 0001:00006c30       ?write_to_buffer@VImage@vips@@QEBAXPEBDPEAPEAXPEA_KPEAVVOption@2@@Z 0000000180007c30 f   VImage.obj
 0001:00006df0       ?CMC2LCh@VImage@vips@@QEBA?AV12@PEAVVOption@2@@Z 0000000180007df0 f   VImage.obj
 0001:00006f00       ?CMYK2XYZ@VImage@vips@@QEBA?AV12@PEAVVOption@2@@Z 0000000180007f00 f   VImage.obj
 0001:00007010       ?HSV2sRGB@VImage@vips@@QEBA?AV12@PEAVVOption@2@@Z 0000000180008010 f   VImage.obj
 0001:00007120       ?LCh2CMC@VImage@vips@@QEBA?AV12@PEAVVOption@2@@Z 0000000180008120 f   VImage.obj
 0001:00007230       ?LCh2Lab@VImage@vips@@QEBA?AV12@PEAVVOption@2@@Z 0000000180008230 f   VImage.obj
 0001:00007340       ?Lab2LCh@VImage@vips@@QEBA?AV12@PEAVVOption@2@@Z 0000000180008340 f   VImage.obj
 0001:00007450       ?Lab2LabQ@VImage@vips@@QEBA?AV12@PEAVVOption@2@@Z 0000000180008450 f   VImage.obj
 0001:00007560       ?Lab2LabS@VImage@vips@@QEBA?AV12@PEAVVOption@2@@Z 0000000180008560 f   VImage.obj
 0001:00007670       ?Lab2XYZ@VImage@vips@@QEBA?AV12@PEAVVOption@2@@Z 0000000180008670 f   VImage.obj
 0001:00007780       ?LabQ2Lab@VImage@vips@@QEBA?AV12@PEAVVOption@2@@Z 0000000180008780 f   VImage.obj
 0001:00007890       ?LabQ2LabS@VImage@vips@@QEBA?AV12@PEAVVOption@2@@Z 0000000180008890 f   VImage.obj
 0001:000079a0       ?LabQ2sRGB@VImage@vips@@QEBA?AV12@PEAVVOption@2@@Z 00000001800089a0 f   VImage.obj
 0001:00007ab0       ?LabS2Lab@VImage@vips@@QEBA?AV12@PEAVVOption@2@@Z 0000000180008ab0 f   VImage.obj
 0001:00007bc0       ?LabS2LabQ@VImage@vips@@QEBA?AV12@PEAVVOption@2@@Z 0000000180008bc0 f   VImage.obj
 0001:00007cd0       ?XYZ2CMYK@VImage@vips@@QEBA?AV12@PEAVVOption@2@@Z 0000000180008cd0 f   VImage.obj
 0001:00007de0       ?XYZ2Lab@VImage@vips@@QEBA?AV12@PEAVVOption@2@@Z 0000000180008de0 f   VImage.obj
 0001:00007ef0       ?XYZ2Yxy@VImage@vips@@QEBA?AV12@PEAVVOption@2@@Z 0000000180008ef0 f   VImage.obj
 0001:00008000       ?XYZ2scRGB@VImage@vips@@QEBA?AV12@PEAVVOption@2@@Z 0000000180009000 f   VImage.obj
 0001:00008110       ?Yxy2XYZ@VImage@vips@@QEBA?AV12@PEAVVOption@2@@Z 0000000180009110 f   VImage.obj
 0001:00008220       ?abs@VImage@vips@@QEBA?AV12@PEAVVOption@2@@Z 0000000180009220 f   VImage.obj
 0001:00008330       ?add@VImage@vips@@QEBA?AV12@V12@PEAVVOption@2@@Z 0000000180009330 f   VImage.obj
 0001:000084f0       ?affine@VImage@vips@@QEBA?AV12@V?$vector@NV?$allocator@N@std@@@std@@PEAVVOption@2@@Z 00000001800094f0 f   VImage.obj
 0001:000086d0       ?analyzeload@VImage@vips@@SA?AV12@PEBDPEAVVOption@2@@Z 00000001800096d0 f   VImage.obj
 0001:00008790       ?arrayjoin@VImage@vips@@SA?AV12@V?$vector@VVImage@vips@@V?$allocator@VVImage@vips@@@std@@@std@@PEAVVOption@2@@Z 0000000180009790 f   VImage.obj
 0001:00008980       ?autorot@VImage@vips@@QEBA?AV12@PEAVVOption@2@@Z 0000000180009980 f   VImage.obj
 0001:00008a90       ?avg@VImage@vips@@QEBANPEAVVOption@2@@Z 0000000180009a90 f   VImage.obj
 0001:00008b80       ?bandbool@VImage@vips@@QEBA?AV12@W4VipsOperationBoolean@@PEAVVOption@2@@Z 0000000180009b80 f   VImage.obj
 0001:00008cc0       ?bandfold@VImage@vips@@QEBA?AV12@PEAVVOption@2@@Z 0000000180009cc0 f   VImage.obj
 0001:00008dd0       ?bandjoin@VImage@vips@@SA?AV12@V?$vector@VVImage@vips@@V?$allocator@VVImage@vips@@@std@@@std@@PEAVVOption@2@@Z 0000000180009dd0 f   VImage.obj
 0001:00008fc0       ?bandjoin_const@VImage@vips@@QEBA?AV12@V?$vector@NV?$allocator@N@std@@@std@@PEAVVOption@2@@Z 0000000180009fc0 f   VImage.obj
 0001:000091a0       ?bandmean@VImage@vips@@QEBA?AV12@PEAVVOption@2@@Z 000000018000a1a0 f   VImage.obj
 0001:000092b0       ?bandrank@VImage@vips@@SA?AV12@V?$vector@VVImage@vips@@V?$allocator@VVImage@vips@@@std@@@std@@PEAVVOption@2@@Z 000000018000a2b0 f   VImage.obj
 0001:000094a0       ?bandunfold@VImage@vips@@QEBA?AV12@PEAVVOption@2@@Z 000000018000a4a0 f   VImage.obj
 0001:000095b0       ?black@VImage@vips@@SA?AV12@HHPEAVVOption@2@@Z 000000018000a5b0 f   VImage.obj
 0001:00009690       ?boolean@VImage@vips@@QEBA?AV12@V12@W4VipsOperationBoolean@@PEAVVOption@2@@Z 000000018000a690 f   VImage.obj
 0001:00009880       ?boolean_const@VImage@vips@@QEBA?AV12@W4VipsOperationBoolean@@V?$vector@NV?$allocator@N@std@@@std@@PEAVVOption@2@@Z 000000018000a880 f   VImage.obj
 0001:00009a90       ?buildlut@VImage@vips@@QEBA?AV12@PEAVVOption@2@@Z 000000018000aa90 f   VImage.obj
 0001:00009ba0       ?byteswap@VImage@vips@@QEBA?AV12@PEAVVOption@2@@Z 000000018000aba0 f   VImage.obj
 0001:00009cb0       ?cache@VImage@vips@@QEBA?AV12@PEAVVOption@2@@Z 000000018000acb0 f   VImage.obj
 0001:00009dc0       ?canny@VImage@vips@@QEBA?AV12@PEAVVOption@2@@Z 000000018000adc0 f   VImage.obj
 0001:00009ed0       ?cast@VImage@vips@@QEBA?AV12@W4VipsBandFormat@@PEAVVOption@2@@Z 000000018000aed0 f   VImage.obj
 0001:0000a010       ?colourspace@VImage@vips@@QEBA?AV12@W4VipsInterpretation@@PEAVVOption@2@@Z 000000018000b010 f   VImage.obj
 0001:0000a150       ?compass@VImage@vips@@QEBA?AV12@V12@PEAVVOption@2@@Z 000000018000b150 f   VImage.obj
 0001:0000a310       ?complex@VImage@vips@@QEBA?AV12@W4VipsOperationComplex@@PEAVVOption@2@@Z 000000018000b310 f   VImage.obj
 0001:0000a450       ?complex2@VImage@vips@@QEBA?AV12@V12@W4VipsOperationComplex2@@PEAVVOption@2@@Z 000000018000b450 f   VImage.obj
 0001:0000a640       ?complexform@VImage@vips@@QEBA?AV12@V12@PEAVVOption@2@@Z 000000018000b640 f   VImage.obj
 0001:0000a800       ?complexget@VImage@vips@@QEBA?AV12@W4VipsOperationComplexget@@PEAVVOption@2@@Z 000000018000b800 f   VImage.obj
 0001:0000a940       ?composite@VImage@vips@@SA?AV12@V?$vector@VVImage@vips@@V?$allocator@VVImage@vips@@@std@@@std@@V?$vector@HV?$allocator@H@std@@@4@PEAVVOption@2@@Z 000000018000b940 f   VImage.obj
 0001:0000abb0       ?composite2@VImage@vips@@QEBA?AV12@V12@W4VipsBlendMode@@PEAVVOption@2@@Z 000000018000bbb0 f   VImage.obj
 0001:0000ada0       ?conv@VImage@vips@@QEBA?AV12@V12@PEAVVOption@2@@Z 000000018000bda0 f   VImage.obj
 0001:0000af60       ?conva@VImage@vips@@QEBA?AV12@V12@PEAVVOption@2@@Z 000000018000bf60 f   VImage.obj
 0001:0000b120       ?convasep@VImage@vips@@QEBA?AV12@V12@PEAVVOption@2@@Z 000000018000c120 f   VImage.obj
 0001:0000b2e0       ?convf@VImage@vips@@QEBA?AV12@V12@PEAVVOption@2@@Z 000000018000c2e0 f   VImage.obj
 0001:0000b4a0       ?convi@VImage@vips@@QEBA?AV12@V12@PEAVVOption@2@@Z 000000018000c4a0 f   VImage.obj
 0001:0000b660       ?convsep@VImage@vips@@QEBA?AV12@V12@PEAVVOption@2@@Z 000000018000c660 f   VImage.obj
 0001:0000b820       ?copy@VImage@vips@@QEBA?AV12@PEAVVOption@2@@Z 000000018000c820 f   VImage.obj
 0001:0000b930       ?countlines@VImage@vips@@QEBANW4VipsDirection@@PEAVVOption@2@@Z 000000018000c930 f   VImage.obj
 0001:0000ba40       ?crop@VImage@vips@@QEBA?AV12@HHHHPEAVVOption@2@@Z 000000018000ca40 f   VImage.obj
 0001:0000bbc0       ?csvload@VImage@vips@@SA?AV12@PEBDPEAVVOption@2@@Z 000000018000cbc0 f   VImage.obj
 0001:0000bc80       ?csvsave@VImage@vips@@QEBAXPEBDPEAVVOption@2@@Z 000000018000cc80 f   VImage.obj
 0001:0000bd80       ?dE00@VImage@vips@@QEBA?AV12@V12@PEAVVOption@2@@Z 000000018000cd80 f   VImage.obj
 0001:0000bf40       ?dE76@VImage@vips@@QEBA?AV12@V12@PEAVVOption@2@@Z 000000018000cf40 f   VImage.obj
 0001:0000c100       ?dECMC@VImage@vips@@QEBA?AV12@V12@PEAVVOption@2@@Z 000000018000d100 f   VImage.obj
 0001:0000c2c0       ?deviate@VImage@vips@@QEBANPEAVVOption@2@@Z 000000018000d2c0 f   VImage.obj
 0001:0000c3b0       ?divide@VImage@vips@@QEBA?AV12@V12@PEAVVOption@2@@Z 000000018000d3b0 f   VImage.obj
 0001:0000c570       ?draw_circle@VImage@vips@@QEBAXV?$vector@NV?$allocator@N@std@@@std@@HHHPEAVVOption@2@@Z 000000018000d570 f   VImage.obj
 0001:0000c780       ?draw_flood@VImage@vips@@QEBAXV?$vector@NV?$allocator@N@std@@@std@@HHPEAVVOption@2@@Z 000000018000d780 f   VImage.obj
 0001:0000c970       ?draw_image@VImage@vips@@QEBAXV12@HHPEAVVOption@2@@Z 000000018000d970 f   VImage.obj
 0001:0000cb50       ?draw_line@VImage@vips@@QEBAXV?$vector@NV?$allocator@N@std@@@std@@HHHHPEAVVOption@2@@Z 000000018000db50 f   VImage.obj
 0001:0000cd70       ?draw_mask@VImage@vips@@QEBAXV?$vector@NV?$allocator@N@std@@@std@@V12@HHPEAVVOption@2@@Z 000000018000dd70 f   VImage.obj
 0001:0000d030       ?draw_rect@VImage@vips@@QEBAXV?$vector@NV?$allocator@N@std@@@std@@HHHHPEAVVOption@2@@Z 000000018000e030 f   VImage.obj
 0001:0000d250       ?draw_smudge@VImage@vips@@QEBAXHHHHPEAVVOption@2@@Z 000000018000e250 f   VImage.obj
 0001:0000d3a0       ?dzsave@VImage@vips@@QEBAXPEBDPEAVVOption@2@@Z 000000018000e3a0 f   VImage.obj
 0001:0000d4a0       ?dzsave_buffer@VImage@vips@@QEBAPEAU_VipsBlob@@PEAVVOption@2@@Z 000000018000e4a0 f   VImage.obj
 0001:0000d590       ?embed@VImage@vips@@QEBA?AV12@HHHHPEAVVOption@2@@Z 000000018000e590 f   VImage.obj
 0001:0000d710       ?extract_area@VImage@vips@@QEBA?AV12@HHHHPEAVVOption@2@@Z 000000018000e710 f   VImage.obj
 0001:0000d890       ?extract_band@VImage@vips@@QEBA?AV12@HPEAVVOption@2@@Z 000000018000e890 f   VImage.obj
 0001:0000d9d0       ?eye@VImage@vips@@SA?AV12@HHPEAVVOption@2@@Z 000000018000e9d0 f   VImage.obj
 0001:0000dab0       ?falsecolour@VImage@vips@@QEBA?AV12@PEAVVOption@2@@Z 000000018000eab0 f   VImage.obj
 0001:0000dbc0       ?fastcor@VImage@vips@@QEBA?AV12@V12@PEAVVOption@2@@Z 000000018000ebc0 f   VImage.obj
 0001:0000dd80       ?fill_nearest@VImage@vips@@QEBA?AV12@PEAVVOption@2@@Z 000000018000ed80 f   VImage.obj
 0001:0000de90       ?find_trim@VImage@vips@@QEBAHPEAH00PEAVVOption@2@@Z 000000018000ee90 f   VImage.obj
 0001:0000dff0       ?fitsload@VImage@vips@@SA?AV12@PEBDPEAVVOption@2@@Z 000000018000eff0 f   VImage.obj
 0001:0000e0b0       ?fitssave@VImage@vips@@QEBAXPEBDPEAVVOption@2@@Z 000000018000f0b0 f   VImage.obj
 0001:0000e1b0       ?flatten@VImage@vips@@QEBA?AV12@PEAVVOption@2@@Z 000000018000f1b0 f   VImage.obj
 0001:0000e2c0       ?flip@VImage@vips@@QEBA?AV12@W4VipsDirection@@PEAVVOption@2@@Z 000000018000f2c0 f   VImage.obj
 0001:0000e400       ?float2rad@VImage@vips@@QEBA?AV12@PEAVVOption@2@@Z 000000018000f400 f   VImage.obj
 0001:0000e510       ?fractsurf@VImage@vips@@SA?AV12@HHNPEAVVOption@2@@Z 000000018000f510 f   VImage.obj
 0001:0000e610       ?freqmult@VImage@vips@@QEBA?AV12@V12@PEAVVOption@2@@Z 000000018000f610 f   VImage.obj
 0001:0000e7d0       ?fwfft@VImage@vips@@QEBA?AV12@PEAVVOption@2@@Z 000000018000f7d0 f   VImage.obj
 0001:0000e8e0       ?gamma@VImage@vips@@QEBA?AV12@PEAVVOption@2@@Z 000000018000f8e0 f   VImage.obj
 0001:0000e9f0       ?gaussblur@VImage@vips@@QEBA?AV12@NPEAVVOption@2@@Z 000000018000f9f0 f   VImage.obj
 0001:0000eb20       ?gaussmat@VImage@vips@@SA?AV12@NNPEAVVOption@2@@Z 000000018000fb20 f   VImage.obj
 0001:0000ec00       ?gaussnoise@VImage@vips@@SA?AV12@HHPEAVVOption@2@@Z 000000018000fc00 f   VImage.obj
 0001:0000ece0       ?getpoint@VImage@vips@@QEBA?AV?$vector@NV?$allocator@N@std@@@std@@HHPEAVVOption@2@@Z 000000018000fce0 f   VImage.obj
 0001:0000ee40       ?gifload@VImage@vips@@SA?AV12@PEBDPEAVVOption@2@@Z 000000018000fe40 f   VImage.obj
 0001:0000ef00       ?gifload_buffer@VImage@vips@@SA?AV12@PEAU_VipsBlob@@PEAVVOption@2@@Z 000000018000ff00 f   VImage.obj
 0001:0000efc0       ?globalbalance@VImage@vips@@QEBA?AV12@PEAVVOption@2@@Z 000000018000ffc0 f   VImage.obj
 0001:0000f0d0       ?gravity@VImage@vips@@QEBA?AV12@W4VipsCompassDirection@@HHPEAVVOption@2@@Z 00000001800100d0 f   VImage.obj
 0001:0000f240       ?grey@VImage@vips@@SA?AV12@HHPEAVVOption@2@@Z 0000000180010240 f   VImage.obj
 0001:0000f320       ?grid@VImage@vips@@QEBA?AV12@HHHPEAVVOption@2@@Z 0000000180010320 f   VImage.obj
 0001:0000f490       ?heifload@VImage@vips@@SA?AV12@PEBDPEAVVOption@2@@Z 0000000180010490 f   VImage.obj
 0001:0000f550       ?heifload_buffer@VImage@vips@@SA?AV12@PEAU_VipsBlob@@PEAVVOption@2@@Z 0000000180010550 f   VImage.obj
 0001:0000f610       ?heifsave@VImage@vips@@QEBAXPEBDPEAVVOption@2@@Z 0000000180010610 f   VImage.obj
 0001:0000f710       ?heifsave_buffer@VImage@vips@@QEBAPEAU_VipsBlob@@PEAVVOption@2@@Z 0000000180010710 f   VImage.obj
 0001:0000f800       ?hist_cum@VImage@vips@@QEBA?AV12@PEAVVOption@2@@Z 0000000180010800 f   VImage.obj
 0001:0000f910       ?hist_entropy@VImage@vips@@QEBANPEAVVOption@2@@Z 0000000180010910 f   VImage.obj
 0001:0000fa00       ?hist_equal@VImage@vips@@QEBA?AV12@PEAVVOption@2@@Z 0000000180010a00 f   VImage.obj
 0001:0000fb10       ?hist_find@VImage@vips@@QEBA?AV12@PEAVVOption@2@@Z 0000000180010b10 f   VImage.obj
 0001:0000fc20       ?hist_find_indexed@VImage@vips@@QEBA?AV12@V12@PEAVVOption@2@@Z 0000000180010c20 f   VImage.obj
 0001:0000fde0       ?hist_find_ndim@VImage@vips@@QEBA?AV12@PEAVVOption@2@@Z 0000000180010de0 f   VImage.obj
 0001:0000fef0       ?hist_ismonotonic@VImage@vips@@QEBA_NPEAVVOption@2@@Z 0000000180010ef0 f   VImage.obj
 0001:0000ffe0       ?hist_local@VImage@vips@@QEBA?AV12@HHPEAVVOption@2@@Z 0000000180010fe0 f   VImage.obj
 0001:00010130       ?hist_match@VImage@vips@@QEBA?AV12@V12@PEAVVOption@2@@Z 0000000180011130 f   VImage.obj
 0001:000102f0       ?hist_norm@VImage@vips@@QEBA?AV12@PEAVVOption@2@@Z 00000001800112f0 f   VImage.obj
 0001:00010400       ?hist_plot@VImage@vips@@QEBA?AV12@PEAVVOption@2@@Z 0000000180011400 f   VImage.obj
 0001:00010510       ?hough_circle@VImage@vips@@QEBA?AV12@PEAVVOption@2@@Z 0000000180011510 f   VImage.obj
 0001:00010620       ?hough_line@VImage@vips@@QEBA?AV12@PEAVVOption@2@@Z 0000000180011620 f   VImage.obj
 0001:00010730       ?icc_export@VImage@vips@@QEBA?AV12@PEAVVOption@2@@Z 0000000180011730 f   VImage.obj
 0001:00010840       ?icc_import@VImage@vips@@QEBA?AV12@PEAVVOption@2@@Z 0000000180011840 f   VImage.obj
 0001:00010950       ?icc_transform@VImage@vips@@QEBA?AV12@PEBDPEAVVOption@2@@Z 0000000180011950 f   VImage.obj
 0001:00010a90       ?identity@VImage@vips@@SA?AV12@PEAVVOption@2@@Z 0000000180011a90 f   VImage.obj
 0001:00010b40       ?ifthenelse@VImage@vips@@QEBA?AV12@V12@0PEAVVOption@2@@Z 0000000180011b40 f   VImage.obj
 0001:00010dc0       ?insert@VImage@vips@@QEBA?AV12@V12@HHPEAVVOption@2@@Z 0000000180011dc0 f   VImage.obj
 0001:00010fc0       ?invert@VImage@vips@@QEBA?AV12@PEAVVOption@2@@Z 0000000180011fc0 f   VImage.obj
 0001:000110d0       ?invertlut@VImage@vips@@QEBA?AV12@PEAVVOption@2@@Z 00000001800120d0 f   VImage.obj
 0001:000111e0       ?invfft@VImage@vips@@QEBA?AV12@PEAVVOption@2@@Z 00000001800121e0 f   VImage.obj
 0001:000112f0       ?join@VImage@vips@@QEBA?AV12@V12@W4VipsDirection@@PEAVVOption@2@@Z 00000001800122f0 f   VImage.obj
 0001:000114e0       ?jpegload@VImage@vips@@SA?AV12@PEBDPEAVVOption@2@@Z 00000001800124e0 f   VImage.obj
 0001:000115a0       ?jpegload_buffer@VImage@vips@@SA?AV12@PEAU_VipsBlob@@PEAVVOption@2@@Z 00000001800125a0 f   VImage.obj
 0001:00011660       ?jpegsave@VImage@vips@@QEBAXPEBDPEAVVOption@2@@Z 0000000180012660 f   VImage.obj
 0001:00011760       ?jpegsave_buffer@VImage@vips@@QEBAPEAU_VipsBlob@@PEAVVOption@2@@Z 0000000180012760 f   VImage.obj
 0001:00011850       ?jpegsave_mime@VImage@vips@@QEBAXPEAVVOption@2@@Z 0000000180012850 f   VImage.obj
 0001:00011930       ?labelregions@VImage@vips@@QEBA?AV12@PEAVVOption@2@@Z 0000000180012930 f   VImage.obj
 0001:00011a40       ?linear@VImage@vips@@QEBA?AV12@V?$vector@NV?$allocator@N@std@@@std@@0PEAVVOption@2@@Z 0000000180012a40 f   VImage.obj
 0001:00011cd0       ?linecache@VImage@vips@@QEBA?AV12@PEAVVOption@2@@Z 0000000180012cd0 f   VImage.obj
 0001:00011de0       ?logmat@VImage@vips@@SA?AV12@NNPEAVVOption@2@@Z 0000000180012de0 f   VImage.obj
 0001:00011ec0       ?magickload@VImage@vips@@SA?AV12@PEBDPEAVVOption@2@@Z 0000000180012ec0 f   VImage.obj
 0001:00011f80       ?magickload_buffer@VImage@vips@@SA?AV12@PEAU_VipsBlob@@PEAVVOption@2@@Z 0000000180012f80 f   VImage.obj
 0001:00012040       ?magicksave@VImage@vips@@QEBAXPEBDPEAVVOption@2@@Z 0000000180013040 f   VImage.obj
 0001:00012140       ?magicksave_buffer@VImage@vips@@QEBAPEAU_VipsBlob@@PEAVVOption@2@@Z 0000000180013140 f   VImage.obj
 0001:00012230       ?mapim@VImage@vips@@QEBA?AV12@V12@PEAVVOption@2@@Z 0000000180013230 f   VImage.obj
 0001:000123f0       ?maplut@VImage@vips@@QEBA?AV12@V12@PEAVVOption@2@@Z 00000001800133f0 f   VImage.obj
 0001:000125b0       ?mask_butterworth@VImage@vips@@SA?AV12@HHNNNPEAVVOption@2@@Z 00000001800135b0 f   VImage.obj
 0001:000126e0       ?mask_butterworth_band@VImage@vips@@SA?AV12@HHNNNNNPEAVVOption@2@@Z 00000001800136e0 f   VImage.obj
 0001:00012840       ?mask_butterworth_ring@VImage@vips@@SA?AV12@HHNNNNPEAVVOption@2@@Z 0000000180013840 f   VImage.obj
 0001:00012990       ?mask_fractal@VImage@vips@@SA?AV12@HHNPEAVVOption@2@@Z 0000000180013990 f   VImage.obj
 0001:00012a90       ?mask_gaussian@VImage@vips@@SA?AV12@HHNNPEAVVOption@2@@Z 0000000180013a90 f   VImage.obj
 0001:00012bb0       ?mask_gaussian_band@VImage@vips@@SA?AV12@HHNNNNPEAVVOption@2@@Z 0000000180013bb0 f   VImage.obj
 0001:00012d00       ?mask_gaussian_ring@VImage@vips@@SA?AV12@HHNNNPEAVVOption@2@@Z 0000000180013d00 f   VImage.obj
 0001:00012e30       ?mask_ideal@VImage@vips@@SA?AV12@HHNPEAVVOption@2@@Z 0000000180013e30 f   VImage.obj
 0001:00012f30       ?mask_ideal_band@VImage@vips@@SA?AV12@HHNNNPEAVVOption@2@@Z 0000000180013f30 f   VImage.obj
 0001:00013060       ?mask_ideal_ring@VImage@vips@@SA?AV12@HHNNPEAVVOption@2@@Z 0000000180014060 f   VImage.obj
 0001:00013180       ?match@VImage@vips@@QEBA?AV12@V12@HHHHHHHHPEAVVOption@2@@Z 0000000180014180 f   VImage.obj
 0001:00013410       ?math@VImage@vips@@QEBA?AV12@W4VipsOperationMath@@PEAVVOption@2@@Z 0000000180014410 f   VImage.obj
 0001:00013550       ?math2@VImage@vips@@QEBA?AV12@V12@W4VipsOperationMath2@@PEAVVOption@2@@Z 0000000180014550 f   VImage.obj
 0001:00013740       ?math2_const@VImage@vips@@QEBA?AV12@W4VipsOperationMath2@@V?$vector@NV?$allocator@N@std@@@std@@PEAVVOption@2@@Z 0000000180014740 f   VImage.obj
 0001:00013950       ?matload@VImage@vips@@SA?AV12@PEBDPEAVVOption@2@@Z 0000000180014950 f   VImage.obj
 0001:00013a10       ?matrixload@VImage@vips@@SA?AV12@PEBDPEAVVOption@2@@Z 0000000180014a10 f   VImage.obj
 0001:00013ad0       ?matrixprint@VImage@vips@@QEBAXPEAVVOption@2@@Z 0000000180014ad0 f   VImage.obj
 0001:00013bb0       ?matrixsave@VImage@vips@@QEBAXPEBDPEAVVOption@2@@Z 0000000180014bb0 f   VImage.obj
 0001:00013cb0       ?max@VImage@vips@@QEBANPEAVVOption@2@@Z 0000000180014cb0 f   VImage.obj
 0001:00013da0       ?measure@VImage@vips@@QEBA?AV12@HHPEAVVOption@2@@Z 0000000180014da0 f   VImage.obj
 0001:00013ef0       ?merge@VImage@vips@@QEBA?AV12@V12@W4VipsDirection@@HHPEAVVOption@2@@Z 0000000180014ef0 f   VImage.obj
 0001:00014100       ?min@VImage@vips@@QEBANPEAVVOption@2@@Z 0000000180015100 f   VImage.obj
 0001:000141f0       ?morph@VImage@vips@@QEBA?AV12@V12@W4VipsOperationMorphology@@PEAVVOption@2@@Z 00000001800151f0 f   VImage.obj
 0001:000143e0       ?mosaic@VImage@vips@@QEBA?AV12@V12@W4VipsDirection@@HHHHPEAVVOption@2@@Z 00000001800153e0 f   VImage.obj
 0001:00014620       ?mosaic1@VImage@vips@@QEBA?AV12@V12@W4VipsDirection@@HHHHHHHHPEAVVOption@2@@Z 0000000180015620 f   VImage.obj
 0001:000148c0       ?msb@VImage@vips@@QEBA?AV12@PEAVVOption@2@@Z 00000001800158c0 f   VImage.obj
 0001:000149d0       ?multiply@VImage@vips@@QEBA?AV12@V12@PEAVVOption@2@@Z 00000001800159d0 f   VImage.obj
 0001:00014b90       ?niftiload@VImage@vips@@SA?AV12@PEBDPEAVVOption@2@@Z 0000000180015b90 f   VImage.obj
 0001:00014c50       ?niftisave@VImage@vips@@QEBAXPEBDPEAVVOption@2@@Z 0000000180015c50 f   VImage.obj
 0001:00014d50       ?openexrload@VImage@vips@@SA?AV12@PEBDPEAVVOption@2@@Z 0000000180015d50 f   VImage.obj
 0001:00014e10       ?openslideload@VImage@vips@@SA?AV12@PEBDPEAVVOption@2@@Z 0000000180015e10 f   VImage.obj
 0001:00014ed0       ?pdfload@VImage@vips@@SA?AV12@PEBDPEAVVOption@2@@Z 0000000180015ed0 f   VImage.obj
 0001:00014f90       ?pdfload_buffer@VImage@vips@@SA?AV12@PEAU_VipsBlob@@PEAVVOption@2@@Z 0000000180015f90 f   VImage.obj
 0001:00015050       ?percent@VImage@vips@@QEBAHNPEAVVOption@2@@Z 0000000180016050 f   VImage.obj
 0001:00015160       ?perlin@VImage@vips@@SA?AV12@HHPEAVVOption@2@@Z 0000000180016160 f   VImage.obj
 0001:00015240       ?phasecor@VImage@vips@@QEBA?AV12@V12@PEAVVOption@2@@Z 0000000180016240 f   VImage.obj
 0001:00015400       ?pngload@VImage@vips@@SA?AV12@PEBDPEAVVOption@2@@Z 0000000180016400 f   VImage.obj
 0001:000154c0       ?pngload_buffer@VImage@vips@@SA?AV12@PEAU_VipsBlob@@PEAVVOption@2@@Z 00000001800164c0 f   VImage.obj
 0001:00015580       ?pngsave@VImage@vips@@QEBAXPEBDPEAVVOption@2@@Z 0000000180016580 f   VImage.obj
 0001:00015680       ?pngsave_buffer@VImage@vips@@QEBAPEAU_VipsBlob@@PEAVVOption@2@@Z 0000000180016680 f   VImage.obj
 0001:00015770       ?ppmload@VImage@vips@@SA?AV12@PEBDPEAVVOption@2@@Z 0000000180016770 f   VImage.obj
 0001:00015830       ?ppmsave@VImage@vips@@QEBAXPEBDPEAVVOption@2@@Z 0000000180016830 f   VImage.obj
 0001:00015930       ?premultiply@VImage@vips@@QEBA?AV12@PEAVVOption@2@@Z 0000000180016930 f   VImage.obj
 0001:00015a40       ?profile@VImage@vips@@QEBA?AV12@PEAV12@PEAVVOption@2@@Z 0000000180016a40 f   VImage.obj
 0001:00015b80       ?profile_load@VImage@vips@@SAPEAU_VipsBlob@@PEBDPEAVVOption@2@@Z 0000000180016b80 f   VImage.obj
 0001:00015c20       ?project@VImage@vips@@QEBA?AV12@PEAV12@PEAVVOption@2@@Z 0000000180016c20 f   VImage.obj
 0001:00015d60       ?quadratic@VImage@vips@@QEBA?AV12@V12@PEAVVOption@2@@Z 0000000180016d60 f   VImage.obj
 0001:00015f20       ?rad2float@VImage@vips@@QEBA?AV12@PEAVVOption@2@@Z 0000000180016f20 f   VImage.obj
 0001:00016030       ?radload@VImage@vips@@SA?AV12@PEBDPEAVVOption@2@@Z 0000000180017030 f   VImage.obj
 0001:000160f0       ?radsave@VImage@vips@@QEBAXPEBDPEAVVOption@2@@Z 00000001800170f0 f   VImage.obj
 0001:000161f0       ?radsave_buffer@VImage@vips@@QEBAPEAU_VipsBlob@@PEAVVOption@2@@Z 00000001800171f0 f   VImage.obj
 0001:000162e0       ?rank@VImage@vips@@QEBA?AV12@HHHPEAVVOption@2@@Z 00000001800172e0 f   VImage.obj
 0001:00016450       ?rawload@VImage@vips@@SA?AV12@PEBDHHHPEAVVOption@2@@Z 0000000180017450 f   VImage.obj
 0001:00016560       ?rawsave@VImage@vips@@QEBAXPEBDPEAVVOption@2@@Z 0000000180017560 f   VImage.obj
 0001:00016660       ?rawsave_fd@VImage@vips@@QEBAXHPEAVVOption@2@@Z 0000000180017660 f   VImage.obj
 0001:00016760       ?recomb@VImage@vips@@QEBA?AV12@V12@PEAVVOption@2@@Z 0000000180017760 f   VImage.obj
 0001:00016920       ?reduce@VImage@vips@@QEBA?AV12@NNPEAVVOption@2@@Z 0000000180017920 f   VImage.obj
 0001:00016a80       ?reduceh@VImage@vips@@QEBA?AV12@NPEAVVOption@2@@Z 0000000180017a80 f   VImage.obj
 0001:00016bb0       ?reducev@VImage@vips@@QEBA?AV12@NPEAVVOption@2@@Z 0000000180017bb0 f   VImage.obj
 0001:00016ce0       ?relational@VImage@vips@@QEBA?AV12@V12@W4VipsOperationRelational@@PEAVVOption@2@@Z 0000000180017ce0 f   VImage.obj
 0001:00016ed0       ?relational_const@VImage@vips@@QEBA?AV12@W4VipsOperationRelational@@V?$vector@NV?$allocator@N@std@@@std@@PEAVVOption@2@@Z 0000000180017ed0 f   VImage.obj
 0001:000170e0       ?remainder@VImage@vips@@QEBA?AV12@V12@PEAVVOption@2@@Z 00000001800180e0 f   VImage.obj
 0001:000172a0       ?remainder_const@VImage@vips@@QEBA?AV12@V?$vector@NV?$allocator@N@std@@@std@@PEAVVOption@2@@Z 00000001800182a0 f   VImage.obj
 0001:00017480       ?replicate@VImage@vips@@QEBA?AV12@HHPEAVVOption@2@@Z 0000000180018480 f   VImage.obj
 0001:000175d0       ?resize@VImage@vips@@QEBA?AV12@NPEAVVOption@2@@Z 00000001800185d0 f   VImage.obj
 0001:00017700       ?rot@VImage@vips@@QEBA?AV12@W4VipsAngle@@PEAVVOption@2@@Z 0000000180018700 f   VImage.obj
 0001:00017840       ?rot45@VImage@vips@@QEBA?AV12@PEAVVOption@2@@Z 0000000180018840 f   VImage.obj
 0001:00017950       ?rotate@VImage@vips@@QEBA?AV12@NPEAVVOption@2@@Z 0000000180018950 f   VImage.obj
 0001:00017a80       ?round@VImage@vips@@QEBA?AV12@W4VipsOperationRound@@PEAVVOption@2@@Z 0000000180018a80 f   VImage.obj
 0001:00017bc0       ?sRGB2HSV@VImage@vips@@QEBA?AV12@PEAVVOption@2@@Z 0000000180018bc0 f   VImage.obj
 0001:00017cd0       ?sRGB2scRGB@VImage@vips@@QEBA?AV12@PEAVVOption@2@@Z 0000000180018cd0 f   VImage.obj
 0001:00017de0       ?scRGB2BW@VImage@vips@@QEBA?AV12@PEAVVOption@2@@Z 0000000180018de0 f   VImage.obj
 0001:00017ef0       ?scRGB2XYZ@VImage@vips@@QEBA?AV12@PEAVVOption@2@@Z 0000000180018ef0 f   VImage.obj
 0001:00018000       ?scRGB2sRGB@VImage@vips@@QEBA?AV12@PEAVVOption@2@@Z 0000000180019000 f   VImage.obj
 0001:00018110       ?scale@VImage@vips@@QEBA?AV12@PEAVVOption@2@@Z 0000000180019110 f   VImage.obj
 0001:00018220       ?sequential@VImage@vips@@QEBA?AV12@PEAVVOption@2@@Z 0000000180019220 f   VImage.obj
 0001:00018330       ?sharpen@VImage@vips@@QEBA?AV12@PEAVVOption@2@@Z 0000000180019330 f   VImage.obj
 0001:00018440       ?shrink@VImage@vips@@QEBA?AV12@NNPEAVVOption@2@@Z 0000000180019440 f   VImage.obj
 0001:000185a0       ?shrinkh@VImage@vips@@QEBA?AV12@HPEAVVOption@2@@Z 00000001800195a0 f   VImage.obj
 0001:000186e0       ?shrinkv@VImage@vips@@QEBA?AV12@HPEAVVOption@2@@Z 00000001800196e0 f   VImage.obj
 0001:00018820       ?sign@VImage@vips@@QEBA?AV12@PEAVVOption@2@@Z 0000000180019820 f   VImage.obj
 0001:00018930       ?similarity@VImage@vips@@QEBA?AV12@PEAVVOption@2@@Z 0000000180019930 f   VImage.obj
 0001:00018a40       ?sines@VImage@vips@@SA?AV12@HHPEAVVOption@2@@Z 0000000180019a40 f   VImage.obj
 0001:00018b20       ?smartcrop@VImage@vips@@QEBA?AV12@HHPEAVVOption@2@@Z 0000000180019b20 f   VImage.obj
 0001:00018c70       ?sobel@VImage@vips@@QEBA?AV12@PEAVVOption@2@@Z 0000000180019c70 f   VImage.obj
 0001:00018d80       ?spcor@VImage@vips@@QEBA?AV12@V12@PEAVVOption@2@@Z 0000000180019d80 f   VImage.obj
 0001:00018f40       ?spectrum@VImage@vips@@QEBA?AV12@PEAVVOption@2@@Z 0000000180019f40 f   VImage.obj
 0001:00019050       ?stats@VImage@vips@@QEBA?AV12@PEAVVOption@2@@Z 000000018001a050 f   VImage.obj
 0001:00019160       ?stdif@VImage@vips@@QEBA?AV12@HHPEAVVOption@2@@Z 000000018001a160 f   VImage.obj
 0001:000192b0       ?subsample@VImage@vips@@QEBA?AV12@HHPEAVVOption@2@@Z 000000018001a2b0 f   VImage.obj
 0001:00019400       ?subtract@VImage@vips@@QEBA?AV12@V12@PEAVVOption@2@@Z 000000018001a400 f   VImage.obj
 0001:000195c0       ?sum@VImage@vips@@SA?AV12@V?$vector@VVImage@vips@@V?$allocator@VVImage@vips@@@std@@@std@@PEAVVOption@2@@Z 000000018001a5c0 f   VImage.obj
 0001:000197b0       ?svgload@VImage@vips@@SA?AV12@PEBDPEAVVOption@2@@Z 000000018001a7b0 f   VImage.obj
 0001:00019870       ?svgload_buffer@VImage@vips@@SA?AV12@PEAU_VipsBlob@@PEAVVOption@2@@Z 000000018001a870 f   VImage.obj
 0001:00019930       ?system@VImage@vips@@SAXPEBDPEAVVOption@2@@Z 000000018001a930 f   VImage.obj
 0001:000199c0       ?text@VImage@vips@@SA?AV12@PEBDPEAVVOption@2@@Z 000000018001a9c0 f   VImage.obj
 0001:00019a80       ?thumbnail@VImage@vips@@SA?AV12@PEBDHPEAVVOption@2@@Z 000000018001aa80 f   VImage.obj
 0001:00019b60       ?thumbnail_buffer@VImage@vips@@SA?AV12@PEAU_VipsBlob@@HPEAVVOption@2@@Z 000000018001ab60 f   VImage.obj
 0001:00019c40       ?thumbnail_image@VImage@vips@@QEBA?AV12@HPEAVVOption@2@@Z 000000018001ac40 f   VImage.obj
 0001:00019d80       ?tiffload@VImage@vips@@SA?AV12@PEBDPEAVVOption@2@@Z 000000018001ad80 f   VImage.obj
 0001:00019e40       ?tiffload_buffer@VImage@vips@@SA?AV12@PEAU_VipsBlob@@PEAVVOption@2@@Z 000000018001ae40 f   VImage.obj
 0001:00019f00       ?tiffsave@VImage@vips@@QEBAXPEBDPEAVVOption@2@@Z 000000018001af00 f   VImage.obj
 0001:0001a000       ?tiffsave_buffer@VImage@vips@@QEBAPEAU_VipsBlob@@PEAVVOption@2@@Z 000000018001b000 f   VImage.obj
 0001:0001a0f0       ?tilecache@VImage@vips@@QEBA?AV12@PEAVVOption@2@@Z 000000018001b0f0 f   VImage.obj
 0001:0001a200       ?tonelut@VImage@vips@@SA?AV12@PEAVVOption@2@@Z 000000018001b200 f   VImage.obj
 0001:0001a2b0       ?transpose3d@VImage@vips@@QEBA?AV12@PEAVVOption@2@@Z 000000018001b2b0 f   VImage.obj
 0001:0001a3c0       ?unpremultiply@VImage@vips@@QEBA?AV12@PEAVVOption@2@@Z 000000018001b3c0 f   VImage.obj
 0001:0001a4d0       ?vipsload@VImage@vips@@SA?AV12@PEBDPEAVVOption@2@@Z 000000018001b4d0 f   VImage.obj
 0001:0001a590       ?vipssave@VImage@vips@@QEBAXPEBDPEAVVOption@2@@Z 000000018001b590 f   VImage.obj
 0001:0001a690       ?webpload@VImage@vips@@SA?AV12@PEBDPEAVVOption@2@@Z 000000018001b690 f   VImage.obj
 0001:0001a750       ?webpload_buffer@VImage@vips@@SA?AV12@PEAU_VipsBlob@@PEAVVOption@2@@Z 000000018001b750 f   VImage.obj
 0001:0001a810       ?webpsave@VImage@vips@@QEBAXPEBDPEAVVOption@2@@Z 000000018001b810 f   VImage.obj
 0001:0001a910       ?webpsave_buffer@VImage@vips@@QEBAPEAU_VipsBlob@@PEAVVOption@2@@Z 000000018001b910 f   VImage.obj
 0001:0001aa00       ?worley@VImage@vips@@SA?AV12@HHPEAVVOption@2@@Z 000000018001ba00 f   VImage.obj
 0001:0001aae0       ?wrap@VImage@vips@@QEBA?AV12@PEAVVOption@2@@Z 000000018001bae0 f   VImage.obj
 0001:0001abf0       ?xyz@VImage@vips@@SA?AV12@HHPEAVVOption@2@@Z 000000018001bbf0 f   VImage.obj
 0001:0001acd0       ?zone@VImage@vips@@SA?AV12@HHPEAVVOption@2@@Z 000000018001bcd0 f   VImage.obj
 0001:0001adb0       ?zoom@VImage@vips@@QEBA?AV12@HHPEAVVOption@2@@Z 000000018001bdb0 f   VImage.obj
 0001:0001af00       ?bandsplit@VImage@vips@@QEBA?AV?$vector@VVImage@vips@@V?$allocator@VVImage@vips@@@std@@@std@@PEAVVOption@2@@Z 000000018001bf00 f   VImage.obj
 0001:0001b090       ?bandjoin@VImage@vips@@QEBA?AV12@V12@PEAVVOption@2@@Z 000000018001c090 f   VImage.obj
 0001:0001b330       ?composite@VImage@vips@@QEBA?AV12@V12@W4VipsBlendMode@@PEAVVOption@2@@Z 000000018001c330 f   VImage.obj
 0001:0001b700       ?minpos@VImage@vips@@QEBA?AV?$complex@N@std@@PEAVVOption@2@@Z 000000018001c700 f   VImage.obj
 0001:0001b7c0       ?maxpos@VImage@vips@@QEBA?AV?$complex@N@std@@PEAVVOption@2@@Z 000000018001c7c0 f   VImage.obj
 0001:0001b880       ??AVImage@vips@@QEBA?AV01@H@Z 000000018001c880 f   VImage.obj
 0001:0001b8a0       ??RVImage@vips@@QEBA?AV?$vector@NV?$allocator@N@std@@@std@@HH@Z 000000018001c8a0 f   VImage.obj
 0001:0001b8c0       ??Hvips@@YA?AVVImage@0@V10@0@Z 000000018001c8c0 f   VImage.obj
 0001:0001ba00       ??Hvips@@YA?AVVImage@0@NV10@@Z 000000018001ca00 f   VImage.obj
 0001:0001baa0       ??Hvips@@YA?AVVImage@0@V10@N@Z 000000018001caa0 f   VImage.obj
 0001:0001bb40       ??Hvips@@YA?AVVImage@0@V?$vector@NV?$allocator@N@std@@@std@@V10@@Z 000000018001cb40 f   VImage.obj
 0001:0001bca0       ??Hvips@@YA?AVVImage@0@V10@V?$vector@NV?$allocator@N@std@@@std@@@Z 000000018001cca0 f   VImage.obj
 0001:0001bdf0       ??Yvips@@YAAEAVVImage@0@AEAV10@V10@@Z 000000018001cdf0 f   VImage.obj
 0001:0001bf60       ??Yvips@@YAAEAVVImage@0@AEAV10@N@Z 000000018001cf60 f   VImage.obj
 0001:0001c0c0       ??Yvips@@YAAEAVVImage@0@AEAV10@V?$vector@NV?$allocator@N@std@@@std@@@Z 000000018001d0c0 f   VImage.obj
 0001:0001c270       ??Gvips@@YA?AVVImage@0@V10@0@Z 000000018001d270 f   VImage.obj
 0001:0001c3b0       ??Gvips@@YA?AVVImage@0@NV10@@Z 000000018001d3b0 f   VImage.obj
 0001:0001c450       ??Gvips@@YA?AVVImage@0@V10@N@Z 000000018001d450 f   VImage.obj
 0001:0001c500       ??Gvips@@YA?AVVImage@0@V?$vector@NV?$allocator@N@std@@@std@@V10@@Z 000000018001d500 f   VImage.obj
 0001:0001c660       ??Gvips@@YA?AVVImage@0@V10@V?$vector@NV?$allocator@N@std@@@std@@@Z 000000018001d660 f   VImage.obj
 0001:0001c7c0       ??Zvips@@YAAEAVVImage@0@AEAV10@V10@@Z 000000018001d7c0 f   VImage.obj
 0001:0001c930       ??Zvips@@YAAEAVVImage@0@AEAV10@N@Z 000000018001d930 f   VImage.obj
 0001:0001caa0       ??Zvips@@YAAEAVVImage@0@AEAV10@V?$vector@NV?$allocator@N@std@@@std@@@Z 000000018001daa0 f   VImage.obj
 0001:0001cc50       ??Gvips@@YA?AVVImage@0@V10@@Z 000000018001dc50 f   VImage.obj
 0001:0001cd40       ??Dvips@@YA?AVVImage@0@V10@0@Z 000000018001dd40 f   VImage.obj
 0001:0001ce80       ??Dvips@@YA?AVVImage@0@NV10@@Z 000000018001de80 f   VImage.obj
 0001:0001cf20       ??Dvips@@YA?AVVImage@0@V10@N@Z 000000018001df20 f   VImage.obj
 0001:0001cfc0       ??Dvips@@YA?AVVImage@0@V?$vector@NV?$allocator@N@std@@@std@@V10@@Z 000000018001dfc0 f   VImage.obj
 0001:0001d110       ??Dvips@@YA?AVVImage@0@V10@V?$vector@NV?$allocator@N@std@@@std@@@Z 000000018001e110 f   VImage.obj
 0001:0001d260       ??Xvips@@YAAEAVVImage@0@AEAV10@V10@@Z 000000018001e260 f   VImage.obj
 0001:0001d3d0       ??Xvips@@YAAEAVVImage@0@AEAV10@N@Z 000000018001e3d0 f   VImage.obj
 0001:0001d530       ??Xvips@@YAAEAVVImage@0@AEAV10@V?$vector@NV?$allocator@N@std@@@std@@@Z 000000018001e530 f   VImage.obj
 0001:0001d6e0       ??Kvips@@YA?AVVImage@0@V10@0@Z 000000018001e6e0 f   VImage.obj
 0001:0001d820       ??Kvips@@YA?AVVImage@0@NV10@@Z 000000018001e820 f   VImage.obj
 0001:0001d960       ??Kvips@@YA?AVVImage@0@V10@N@Z 000000018001e960 f   VImage.obj
 0001:0001da10       ??Kvips@@YA?AVVImage@0@V?$vector@NV?$allocator@N@std@@@std@@V10@@Z 000000018001ea10 f   VImage.obj
 0001:0001dc10       ??Kvips@@YA?AVVImage@0@V10@V?$vector@NV?$allocator@N@std@@@std@@@Z 000000018001ec10 f   VImage.obj
 0001:0001dd70       ??_0vips@@YAAEAVVImage@0@AEAV10@V10@@Z 000000018001ed70 f   VImage.obj
 0001:0001dee0       ??_0vips@@YAAEAVVImage@0@AEAV10@N@Z 000000018001eee0 f   VImage.obj
 0001:0001e040       ??_0vips@@YAAEAVVImage@0@AEAV10@V?$vector@NV?$allocator@N@std@@@std@@@Z 000000018001f040 f   VImage.obj
 0001:0001e1f0       ??Lvips@@YA?AVVImage@0@V10@0@Z 000000018001f1f0 f   VImage.obj
 0001:0001e330       ??Lvips@@YA?AVVImage@0@V10@N@Z 000000018001f330 f   VImage.obj
 0001:0001e3e0       ??Lvips@@YA?AVVImage@0@V10@V?$vector@NV?$allocator@N@std@@@std@@@Z 000000018001f3e0 f   VImage.obj
 0001:0001e530       ??_1vips@@YAAEAVVImage@0@AEAV10@V10@@Z 000000018001f530 f   VImage.obj
 0001:0001e6a0       ??_1vips@@YAAEAVVImage@0@AEAV10@N@Z 000000018001f6a0 f   VImage.obj
 0001:0001e830       ??_1vips@@YAAEAVVImage@0@AEAV10@V?$vector@NV?$allocator@N@std@@@std@@@Z 000000018001f830 f   VImage.obj
 0001:0001e9e0       ??Mvips@@YA?AVVImage@0@V10@0@Z 000000018001f9e0 f   VImage.obj
 0001:0001eb20       ??Mvips@@YA?AVVImage@0@NV10@@Z 000000018001fb20 f   VImage.obj
 0001:0001ebe0       ??Mvips@@YA?AVVImage@0@V10@N@Z 000000018001fbe0 f   VImage.obj
 0001:0001ec90       ??Mvips@@YA?AVVImage@0@V?$vector@NV?$allocator@N@std@@@std@@V10@@Z 000000018001fc90 f   VImage.obj
 0001:0001edf0       ??Mvips@@YA?AVVImage@0@V10@V?$vector@NV?$allocator@N@std@@@std@@@Z 000000018001fdf0 f   VImage.obj
 0001:0001ef40       ??Nvips@@YA?AVVImage@0@V10@0@Z 000000018001ff40 f   VImage.obj
 0001:0001f080       ??Nvips@@YA?AVVImage@0@NV10@@Z 0000000180020080 f   VImage.obj
 0001:0001f140       ??Nvips@@YA?AVVImage@0@V10@N@Z 0000000180020140 f   VImage.obj
 0001:0001f1f0       ??Nvips@@YA?AVVImage@0@V?$vector@NV?$allocator@N@std@@@std@@V10@@Z 00000001800201f0 f   VImage.obj
 0001:0001f350       ??Nvips@@YA?AVVImage@0@V10@V?$vector@NV?$allocator@N@std@@@std@@@Z 0000000180020350 f   VImage.obj
 0001:0001f4a0       ??Ovips@@YA?AVVImage@0@V10@0@Z 00000001800204a0 f   VImage.obj
 0001:0001f5e0       ??Ovips@@YA?AVVImage@0@NV10@@Z 00000001800205e0 f   VImage.obj
 0001:0001f6a0       ??Ovips@@YA?AVVImage@0@V10@N@Z 00000001800206a0 f   VImage.obj
 0001:0001f750       ??Ovips@@YA?AVVImage@0@V?$vector@NV?$allocator@N@std@@@std@@V10@@Z 0000000180020750 f   VImage.obj
 0001:0001f8b0       ??Ovips@@YA?AVVImage@0@V10@V?$vector@NV?$allocator@N@std@@@std@@@Z 00000001800208b0 f   VImage.obj
 0001:0001fa00       ??Pvips@@YA?AVVImage@0@V10@0@Z 0000000180020a00 f   VImage.obj
 0001:0001fb40       ??Pvips@@YA?AVVImage@0@NV10@@Z 0000000180020b40 f   VImage.obj
 0001:0001fc00       ??Pvips@@YA?AVVImage@0@V10@N@Z 0000000180020c00 f   VImage.obj
 0001:0001fcb0       ??Pvips@@YA?AVVImage@0@V?$vector@NV?$allocator@N@std@@@std@@V10@@Z 0000000180020cb0 f   VImage.obj
 0001:0001fe10       ??Pvips@@YA?AVVImage@0@V10@V?$vector@NV?$allocator@N@std@@@std@@@Z 0000000180020e10 f   VImage.obj
 0001:0001ff60       ??8vips@@YA?AVVImage@0@V10@0@Z 0000000180020f60 f   VImage.obj
 0001:000200a0       ??8vips@@YA?AVVImage@0@NV10@@Z 00000001800210a0 f   VImage.obj
 0001:00020150       ??8vips@@YA?AVVImage@0@V10@N@Z 0000000180021150 f   VImage.obj
 0001:00020200       ??8vips@@YA?AVVImage@0@V?$vector@NV?$allocator@N@std@@@std@@V10@@Z 0000000180021200 f   VImage.obj
 0001:00020350       ??8vips@@YA?AVVImage@0@V10@V?$vector@NV?$allocator@N@std@@@std@@@Z 0000000180021350 f   VImage.obj
 0001:000204a0       ??9vips@@YA?AVVImage@0@V10@0@Z 00000001800214a0 f   VImage.obj
 0001:000205e0       ??9vips@@YA?AVVImage@0@NV10@@Z 00000001800215e0 f   VImage.obj
 0001:000206a0       ??9vips@@YA?AVVImage@0@V10@N@Z 00000001800216a0 f   VImage.obj
 0001:00020750       ??9vips@@YA?AVVImage@0@V?$vector@NV?$allocator@N@std@@@std@@V10@@Z 0000000180021750 f   VImage.obj
 0001:000208b0       ??9vips@@YA?AVVImage@0@V10@V?$vector@NV?$allocator@N@std@@@std@@@Z 00000001800218b0 f   VImage.obj
 0001:00020a00       ??Ivips@@YA?AVVImage@0@V10@0@Z 0000000180021a00 f   VImage.obj
 0001:00020b40       ??Ivips@@YA?AVVImage@0@NV10@@Z 0000000180021b40 f   VImage.obj
 0001:00020bf0       ??Ivips@@YA?AVVImage@0@V10@N@Z 0000000180021bf0 f   VImage.obj
 0001:00020ca0       ??Ivips@@YA?AVVImage@0@V?$vector@NV?$allocator@N@std@@@std@@V10@@Z 0000000180021ca0 f   VImage.obj
 0001:00020df0       ??Ivips@@YA?AVVImage@0@V10@V?$vector@NV?$allocator@N@std@@@std@@@Z 0000000180021df0 f   VImage.obj
 0001:00020f40       ??_4vips@@YAAEAVVImage@0@AEAV10@V10@@Z 0000000180021f40 f   VImage.obj
 0001:000210b0       ??_4vips@@YAAEAVVImage@0@AEAV10@N@Z 00000001800220b0 f   VImage.obj
 0001:00021250       ??_4vips@@YAAEAVVImage@0@AEAV10@V?$vector@NV?$allocator@N@std@@@std@@@Z 0000000180022250 f   VImage.obj
 0001:00021400       ??Uvips@@YA?AVVImage@0@V10@0@Z 0000000180022400 f   VImage.obj
 0001:00021540       ??Uvips@@YA?AVVImage@0@NV10@@Z 0000000180022540 f   VImage.obj
 0001:00021600       ??Uvips@@YA?AVVImage@0@V10@N@Z 0000000180022600 f   VImage.obj
 0001:000216b0       ??Uvips@@YA?AVVImage@0@V?$vector@NV?$allocator@N@std@@@std@@V10@@Z 00000001800226b0 f   VImage.obj
 0001:00021810       ??Uvips@@YA?AVVImage@0@V10@V?$vector@NV?$allocator@N@std@@@std@@@Z 0000000180022810 f   VImage.obj
 0001:00021960       ??_5vips@@YAAEAVVImage@0@AEAV10@V10@@Z 0000000180022960 f   VImage.obj
 0001:00021ad0       ??_5vips@@YAAEAVVImage@0@AEAV10@N@Z 0000000180022ad0 f   VImage.obj
 0001:00021c70       ??_5vips@@YAAEAVVImage@0@AEAV10@V?$vector@NV?$allocator@N@std@@@std@@@Z 0000000180022c70 f   VImage.obj
 0001:00021e20       ??Tvips@@YA?AVVImage@0@V10@0@Z 0000000180022e20 f   VImage.obj
 0001:00021f60       ??Tvips@@YA?AVVImage@0@NV10@@Z 0000000180022f60 f   VImage.obj
 0001:00022020       ??Tvips@@YA?AVVImage@0@V10@N@Z 0000000180023020 f   VImage.obj
 0001:000220d0       ??Tvips@@YA?AVVImage@0@V?$vector@NV?$allocator@N@std@@@std@@V10@@Z 00000001800230d0 f   VImage.obj
 0001:00022230       ??Tvips@@YA?AVVImage@0@V10@V?$vector@NV?$allocator@N@std@@@std@@@Z 0000000180023230 f   VImage.obj
 0001:00022380       ??_6vips@@YAAEAVVImage@0@AEAV10@V10@@Z 0000000180023380 f   VImage.obj
 0001:000224f0       ??_6vips@@YAAEAVVImage@0@AEAV10@N@Z 00000001800234f0 f   VImage.obj
 0001:00022690       ??_6vips@@YAAEAVVImage@0@AEAV10@V?$vector@NV?$allocator@N@std@@@std@@@Z 0000000180023690 f   VImage.obj
 0001:00022840       ??6vips@@YA?AVVImage@0@V10@0@Z 0000000180023840 f   VImage.obj
 0001:00022980       ??6vips@@YA?AVVImage@0@V10@N@Z 0000000180023980 f   VImage.obj
 0001:00022a30       ??6vips@@YA?AVVImage@0@V10@V?$vector@NV?$allocator@N@std@@@std@@@Z 0000000180023a30 f   VImage.obj
 0001:00022b80       ??_3vips@@YAAEAVVImage@0@AEAV10@V10@@Z 0000000180023b80 f   VImage.obj
 0001:00022b80       ??_2vips@@YAAEAVVImage@0@AEAV10@V10@@Z 0000000180023b80 f   VImage.obj
 0001:00022cf0       ??_2vips@@YAAEAVVImage@0@AEAV10@N@Z 0000000180023cf0 f   VImage.obj
 0001:00022cf0       ??_3vips@@YAAEAVVImage@0@AEAV10@N@Z 0000000180023cf0 f   VImage.obj
 0001:00022e90       ??_3vips@@YAAEAVVImage@0@AEAV10@V?$vector@NV?$allocator@N@std@@@std@@@Z 0000000180023e90 f   VImage.obj
 0001:00022e90       ??_2vips@@YAAEAVVImage@0@AEAV10@V?$vector@NV?$allocator@N@std@@@std@@@Z 0000000180023e90 f   VImage.obj
 0001:00023040       ??5vips@@YA?AVVImage@0@V10@0@Z 0000000180024040 f   VImage.obj
 0001:00023180       ??5vips@@YA?AVVImage@0@V10@N@Z 0000000180024180 f   VImage.obj
 0001:00023230       ??5vips@@YA?AVVImage@0@V10@V?$vector@NV?$allocator@N@std@@@std@@@Z 0000000180024230 f   VImage.obj
 0001:00023380       ??1?$vector@HV?$allocator@H@std@@@std@@QEAA@XZ 0000000180024380 f i VImage.obj
 0001:000233e0       ??0?$vector@HV?$allocator@H@std@@@std@@QEAA@AEBV01@@Z 00000001800243e0 f i VImage.obj
 0001:000234d0       ??1?$vector@VVImage@vips@@V?$allocator@VVImage@vips@@@std@@@std@@QEAA@XZ 00000001800244d0 f i VImage.obj
 0001:00023540       ??$_Emplace_reallocate@VVImage@vips@@@?$vector@VVImage@vips@@V?$allocator@VVImage@vips@@@std@@@std@@QEAAPEAVVImage@vips@@QEAV23@$$QEAV23@@Z 0000000180024540 f i VImage.obj
 0001:000237a0       ??$_Destroy_range@V?$allocator@VVImage@vips@@@std@@@std@@YAXPEAVVImage@vips@@QEAV12@AEAV?$allocator@VVImage@vips@@@0@@Z 00000001800247a0 f i VImage.obj
 0001:00023830       ?_Xlength@?$vector@NV?$allocator@N@std@@@std@@CAXXZ 0000000180024830 f i VImage.obj
 0001:00023830       ?_Xlength@?$vector@VVImage@vips@@V?$allocator@VVImage@vips@@@std@@@std@@CAXXZ 0000000180024830 f i VImage.obj
 0001:00023850       ?_Umove@?$vector@VVImage@vips@@V?$allocator@VVImage@vips@@@std@@@std@@AEAAPEAVVImage@vips@@PEAV34@00@Z 0000000180024850 f i VImage.obj
 0001:000238f0       ??$_Uninitialized_copy@PEAVVImage@vips@@V?$allocator@VVImage@vips@@@std@@@std@@YAPEAVVImage@vips@@QEAV12@0PEAV12@AEAV?$allocator@VVImage@vips@@@0@@Z 00000001800248f0 f i VImage.obj
 0001:00023990       ??$_Resize_reallocate@U_Value_init_tag@std@@@?$vector@NV?$allocator@N@std@@@std@@AEAAX_KAEBU_Value_init_tag@1@@Z 0000000180024990 f i VImage.obj
 0001:00023af4       ??0exception@std@@QEAA@AEBV01@@Z 0000000180024af4 f i libcpmt:xonce.obj
 0001:00023b28       ??_Gbad_exception@std@@UEAAPEAXI@Z 0000000180024b28 f i libvcruntime:frame.obj
 0001:00023b28       ??_Ebad_exception@std@@UEAAPEAXI@Z 0000000180024b28 f i libvcruntime:frame.obj
 0001:00023b28       ??_Elength_error@std@@UEAAPEAXI@Z 0000000180024b28 f i libcpmt:xthrow.obj
 0001:00023b28       ??_Gbad_array_new_length@std@@UEAAPEAXI@Z 0000000180024b28 f i LIBCMT:throw_bad_alloc.obj
 0001:00023b28       ??_Ebad_array_new_length@std@@UEAAPEAXI@Z 0000000180024b28 f i LIBCMT:throw_bad_alloc.obj
 0001:00023b28       ??_Elogic_error@std@@UEAAPEAXI@Z 0000000180024b28 f i libcpmt:xthrow.obj
 0001:00023b28       ??_Glogic_error@std@@UEAAPEAXI@Z 0000000180024b28 f i libcpmt:xthrow.obj
 0001:00023b28       ??_Eexception@std@@UEAAPEAXI@Z 0000000180024b28 f i libcpmt:xonce.obj
 0001:00023b28       ??_Gbad_alloc@std@@UEAAPEAXI@Z 0000000180024b28 f i libcpmt:xthrow.obj
 0001:00023b28       ??_Ebad_alloc@std@@UEAAPEAXI@Z 0000000180024b28 f i libcpmt:xthrow.obj
 0001:00023b28       ??_Glength_error@std@@UEAAPEAXI@Z 0000000180024b28 f i libcpmt:xthrow.obj
 0001:00023b28       ??_Gexception@std@@UEAAPEAXI@Z 0000000180024b28 f i libcpmt:xonce.obj
 0001:00023b6c       ?_Execute_once@std@@YAHAEAUonce_flag@1@P6AHPEAX1PEAPEAX@Z1@Z 0000000180024b6c f   libcpmt:xonce.obj
 0001:00023b74       ?what@exception@std@@UEBAPEBDXZ 0000000180024b74 f i libcpmt:xonce.obj
 0001:00023b88       ??0bad_alloc@std@@QEAA@AEBV01@@Z 0000000180024b88 f i libcpmt:xthrow.obj
 0001:00023bc4       ??0bad_alloc@std@@QEAA@XZ  0000000180024bc4 f i libcpmt:xthrow.obj
 0001:00023be4       ??0length_error@std@@QEAA@AEBV01@@Z 0000000180024be4 f i libcpmt:xthrow.obj
 0001:00023c20       ??0length_error@std@@QEAA@PEBD@Z 0000000180024c20 f i libcpmt:xthrow.obj
 0001:00023c68       ??0logic_error@std@@QEAA@AEBV01@@Z 0000000180024c68 f i libcpmt:xthrow.obj
 0001:00023ca4       ??1bad_exception@std@@UEAA@XZ 0000000180024ca4 f i libvcruntime:frame.obj
 0001:00023ca4       ??1bad_array_new_length@std@@UEAA@XZ 0000000180024ca4 f i LIBCMT:throw_bad_alloc.obj
 0001:00023ca4       ??1bad_alloc@std@@UEAA@XZ  0000000180024ca4 f i libcpmt:xthrow.obj
 0001:00023ca4       ??1length_error@std@@UEAA@XZ 0000000180024ca4 f i libcpmt:xthrow.obj
 0001:00023cb8       ?_Xlength_error@std@@YAXPEBD@Z 0000000180024cb8 f   libcpmt:xthrow.obj
 0001:00023cdc       ?_Syserror_map@std@@YAPEBDH@Z 0000000180024cdc f   libcpmt:syserror.obj
 0001:000240bc       __crtInitOnceExecuteOnce   00000001800250bc f   libcpmt:winapisupp.obj
 0001:000241a0       __security_check_cookie    00000001800251a0 f   LIBCMT:amdsecgs.obj
 0001:000241c4       ??_V@YAXPEAX_K@Z           00000001800251c4 f   LIBCMT:delete_array_size.obj
 0001:000241cc       ??2@YAPEAX_K@Z             00000001800251cc f   LIBCMT:new_scalar.obj
 0001:00024208       ??_M@YAXPEAX_K1P6AX0@Z@Z   0000000180025208 f   LIBCMT:ehvecdtr.obj
 0001:00024274       ?__ArrayUnwind@@YAXPEAX_K1P6AX0@Z@Z 0000000180025274 f   LIBCMT:ehvecdtr.obj
 0001:000242d8       ??3@YAXPEAX_K@Z            00000001800252d8 f   LIBCMT:delete_scalar_size.obj
 0001:000242d8       ??_V@YAXPEAX@Z             00000001800252d8 f   LIBCMT:delete_array.obj
 0001:000242e0       ??_Gtype_info@@UEAAPEAXI@Z 00000001800252e0 f i LIBCMT:std_type_info_static.obj
 0001:000242e0       ??_Etype_info@@UEAAPEAXI@Z 00000001800252e0 f i LIBCMT:std_type_info_static.obj
 0001:0002462c       _DllMainCRTStartup         000000018002562c f   LIBCMT:dll_dllmain.obj
 0001:0002466c       __GSHandlerCheck           000000018002566c f   LIBCMT:gshandler.obj
 0001:0002468c       __GSHandlerCheckCommon     000000018002568c f   LIBCMT:gshandler.obj
 0001:000246e8       __GSHandlerCheck_EH        00000001800256e8 f   LIBCMT:gshandlereh.obj
 0001:00024768       __raise_securityfailure    0000000180025768 f   LIBCMT:gs_report.obj
 0001:0002479c       __report_gsfailure         000000018002579c f   LIBCMT:gs_report.obj
 0001:00024870       __report_rangecheckfailure 0000000180025870 f   LIBCMT:gs_report.obj
 0001:00024884       __report_securityfailure   0000000180025884 f   LIBCMT:gs_report.obj
 0001:00024a04       ??0bad_array_new_length@std@@QEAA@AEBV01@@Z 0000000180025a04 f i LIBCMT:throw_bad_alloc.obj
 0001:00024a40       ??0bad_array_new_length@std@@QEAA@XZ 0000000180025a40 f i LIBCMT:throw_bad_alloc.obj
 0001:00024a60       ?__scrt_throw_std_bad_alloc@@YAXXZ 0000000180025a60 f   LIBCMT:throw_bad_alloc.obj
 0001:00024a80       ?__scrt_throw_std_bad_array_new_length@@YAXXZ 0000000180025a80 f   LIBCMT:throw_bad_alloc.obj
 0001:00024aa0       ??3@YAXPEAX@Z              0000000180025aa0 f   LIBCMT:delete_scalar.obj
 0001:00024aa8       __security_init_cookie     0000000180025aa8 f   LIBCMT:gs_support.obj
 0001:00024b54       DllMain                    0000000180025b54 f   LIBCMT:dll_dllmain_stub.obj
 0001:00024b54       _get_startup_argv_mode     0000000180025b54 f   LIBCMT:argv_mode.obj
 0001:00024b5c       ?__scrt_initialize_type_info@@YAXXZ 0000000180025b5c f   LIBCMT:tncleanup.obj
 0001:00024b6c       ?__scrt_uninitialize_type_info@@YAXXZ 0000000180025b6c f   LIBCMT:tncleanup.obj
 0001:00024b78       __local_stdio_printf_options 0000000180025b78 f i LIBCMT:default_local_stdio_options.obj
 0001:00024b80       __local_stdio_scanf_options 0000000180025b80 f i LIBCMT:default_local_stdio_options.obj
 0001:00024b88       __scrt_initialize_default_local_stdio_options 0000000180025b88 f   LIBCMT:default_local_stdio_options.obj
 0001:00024ba4       __scrt_acquire_startup_lock 0000000180025ba4 f   LIBCMT:utility.obj
 0001:00024be0       __scrt_dllmain_after_initialize_c 0000000180025be0 f   LIBCMT:utility.obj
 0001:00024c14       __scrt_dllmain_before_initialize_c 0000000180025c14 f   LIBCMT:utility.obj
 0001:00024c2c       __scrt_dllmain_crt_thread_attach 0000000180025c2c f   LIBCMT:utility.obj
 0001:00024c54       __scrt_dllmain_crt_thread_detach 0000000180025c54 f   LIBCMT:utility.obj
 0001:00024c6c       __scrt_dllmain_exception_filter 0000000180025c6c f   LIBCMT:utility.obj
 0001:00024ccc       __scrt_dllmain_uninitialize_c 0000000180025ccc f   LIBCMT:utility.obj
 0001:00024cfc       __scrt_dllmain_uninitialize_critical 0000000180025cfc f   LIBCMT:utility.obj
 0001:00024d10       __scrt_initialize_crt      0000000180025d10 f   LIBCMT:utility.obj
 0001:00024d5c       __scrt_initialize_onexit_tables 0000000180025d5c f   LIBCMT:utility.obj
 0001:00024de8       __scrt_is_nonwritable_in_current_image 0000000180025de8 f   LIBCMT:utility.obj
 0001:00024e80       __scrt_release_startup_lock 0000000180025e80 f   LIBCMT:utility.obj
 0001:00024ea4       __scrt_uninitialize_crt    0000000180025ea4 f   LIBCMT:utility.obj
 0001:00024ed0       __scrt_get_dyn_tls_init_callback 0000000180025ed0 f   LIBCMT:dyn_tls_init.obj
 0001:00024ed8       __crt_debugger_hook        0000000180025ed8 f   LIBCMT:utility_desktop.obj
 0001:00024ee0       __scrt_fastfail            0000000180025ee0 f   LIBCMT:utility_desktop.obj
 0001:0002502c       _RTC_Initialize            000000018002602c f   LIBCMT:initsect.obj
 0001:00025068       _RTC_Terminate             0000000180026068 f   LIBCMT:initsect.obj
 0001:000250b0       __isa_available_init       00000001800260b0 f   LIBCMT:cpu_disp.obj
 0001:0002522c       __scrt_is_ucrt_dll_in_use  000000018002622c f   LIBCMT:ucrt_detection.obj
 0001:00025238       ??$_CallSETranslator@V__FrameHandler3@@@@YAHPEAUEHExceptionRecord@@PEA_KPEAU_CONTEXT@@PEAU_xDISPATCHER_CONTEXT@@PEBU_s_FuncInfo@@K1@Z 0000000180026238 f i libvcruntime:risctrnsctrl.obj
 0001:0002528c       ?CatchTryBlock@__FrameHandler3@@SAPEBU_s_TryBlockMapEntry@@PEBU_s_FuncInfo@@H@Z 000000018002628c f   libvcruntime:risctrnsctrl.obj
 0001:000252e0       ?ExecutionInCatch@__FrameHandler3@@SA_NPEAU_xDISPATCHER_CONTEXT@@PEBU_s_FuncInfo@@@Z 00000001800262e0 f   libvcruntime:risctrnsctrl.obj
 0001:0002530c       ?FrameUnwindToEmptyState@__FrameHandler3@@SAXPEA_KPEAU_xDISPATCHER_CONTEXT@@PEBU_s_FuncInfo@@@Z 000000018002630c f   libvcruntime:risctrnsctrl.obj
 0001:00025370       ?GetEstablisherFrame@__FrameHandler3@@SAPEA_KPEA_KPEAU_xDISPATCHER_CONTEXT@@PEBU_s_FuncInfo@@0@Z 0000000180026370 f   libvcruntime:risctrnsctrl.obj
 0001:0002543c       ?GetRangeOfTrysToCheck@__FrameHandler3@@SA?AU?$pair@Viterator@TryBlockMap@__FrameHandler3@@V123@@std@@AEAVTryBlockMap@1@HPEAU_xDISPATCHER_CONTEXT@@PEBU_s_FuncInfo@@H@Z 000000018002643c f   libvcruntime:risctrnsctrl.obj
 0001:0002557c       ?UnwindNestedFrames@__FrameHandler3@@SAXPEA_KPEAUEHExceptionRecord@@PEAU_CONTEXT@@0PEAXPEBU_s_FuncInfo@@HHPEBU_s_HandlerType@@PEAU_xDISPATCHER_CONTEXT@@E@Z 000000018002657c f   libvcruntime:risctrnsctrl.obj
 0001:000256a0       _CreateFrameInfo           00000001800266a0 f   libvcruntime:risctrnsctrl.obj
 0001:000256dc       _FindAndUnlinkFrame        00000001800266dc f   libvcruntime:risctrnsctrl.obj
 0001:00025730       _GetImageBase              0000000180026730 f   libvcruntime:risctrnsctrl.obj
 0001:00025744       _GetThrowImageBase         0000000180026744 f   libvcruntime:risctrnsctrl.obj
 0001:00025758       _SetImageBase              0000000180026758 f   libvcruntime:risctrnsctrl.obj
 0001:00025770       _SetThrowImageBase         0000000180026770 f   libvcruntime:risctrnsctrl.obj
 0001:00025788       __CxxFrameHandler3         0000000180026788 f   libvcruntime:risctrnsctrl.obj
 0001:00025810       __DestructExceptionObject  0000000180026810 f   libvcruntime:ehhelpers.obj
 0001:00025884       ?_CallMemberFunction0@@YAXQEAX0@Z 0000000180026884 f i libvcruntime:ehhelpers.obj
 0001:00025888       _IsExceptionObjectToBeDestroyed 0000000180026888 f   libvcruntime:ehhelpers.obj
 0001:000258b8       __AdjustPointer            00000001800268b8 f   libvcruntime:ehhelpers.obj
 0001:000258dc       __FrameUnwindFilter        00000001800268dc f   libvcruntime:ehhelpers.obj
 0001:00025928       __std_terminate            0000000180026928 f   libvcruntime:ehhelpers.obj
 0001:00025934       __std_exception_copy       0000000180026934 f   libvcruntime:std_exception.obj
 0001:000259c4       __std_exception_destroy    00000001800269c4 f   libvcruntime:std_exception.obj
 0001:000259ec       _CxxThrowException         00000001800269ec f   libvcruntime:throw.obj
 0001:00025ac0       memcpy_repmovs             0000000180026ac0 f   libvcruntime:memcpy.obj
 0001:00025ae0       memmove                    0000000180026ae0 f   libvcruntime:memcpy.obj
 0001:00025ae0       memcpy                     0000000180026ae0 f   libvcruntime:memcpy.obj
 0001:00025ed0       memset_repmovs             0000000180026ed0 f   libvcruntime:memset.obj
 0001:00025ef0       memset                     0000000180026ef0 f   libvcruntime:memset.obj
 0001:00026080       __C_specific_handler       0000000180027080 f   libvcruntime:riscchandler.obj
 0001:0002628c       __std_type_info_compare    000000018002728c f   libvcruntime:std_type_info.obj
 0001:000262b4       __std_type_info_destroy_list 00000001800272b4 f   libvcruntime:std_type_info.obj
 0001:000262e0       __vcrt_initialize          00000001800272e0 f   libvcruntime:initialization.obj
 0001:00026308       __vcrt_thread_attach       0000000180027308 f   libvcruntime:initialization.obj
 0001:0002631c       __vcrt_thread_detach       000000018002731c f   libvcruntime:initialization.obj
 0001:00026330       __vcrt_uninitialize        0000000180027330 f   libvcruntime:initialization.obj
 0001:0002634c       __vcrt_uninitialize_critical 000000018002734c f   libvcruntime:initialization.obj
 0001:0002635c       __vcrt_freefls             000000018002735c f   libvcruntime:per_thread_data.obj
 0001:0002637c       __vcrt_freeptd             000000018002737c f   libvcruntime:per_thread_data.obj
 0001:000263cc       __vcrt_getptd              00000001800273cc f   libvcruntime:per_thread_data.obj
 0001:000263e8       __vcrt_getptd_noexit       00000001800273e8 f   libvcruntime:per_thread_data.obj
 0001:000264a8       __vcrt_initialize_ptd      00000001800274a8 f   libvcruntime:per_thread_data.obj
 0001:000264f0       __vcrt_uninitialize_ptd    00000001800274f0 f   libvcruntime:per_thread_data.obj
 0001:00026514       ?GetCurrentState@__FrameHandler3@@SAHPEA_KPEAU_xDISPATCHER_CONTEXT@@PEBU_s_FuncInfo@@@Z 0000000180027514 f   libvcruntime:ehstate.obj
 0001:0002653c       ?GetUnwindTryBlock@__FrameHandler3@@SAHPEA_KPEAU_xDISPATCHER_CONTEXT@@PEBU_s_FuncInfo@@@Z 000000018002753c f   libvcruntime:ehstate.obj
 0001:00026568       ?SetState@__FrameHandler3@@SAXPEA_KPEBU_s_FuncInfo@@H@Z 0000000180027568 f   libvcruntime:ehstate.obj
 0001:00026574       ?SetUnwindTryBlock@__FrameHandler3@@SAXPEA_KPEAU_xDISPATCHER_CONTEXT@@PEBU_s_FuncInfo@@H@Z 0000000180027574 f   libvcruntime:ehstate.obj
 0001:000265b0       ?StateFromControlPc@__FrameHandler3@@SAHPEBU_s_FuncInfo@@PEAU_xDISPATCHER_CONTEXT@@@Z 00000001800275b0 f   libvcruntime:ehstate.obj
 0001:000265b8       ?StateFromIp@__FrameHandler3@@SAHPEBU_s_FuncInfo@@PEAU_xDISPATCHER_CONTEXT@@_K@Z 00000001800275b8 f   libvcruntime:ehstate.obj
 0001:000270a4       ??$TypeMatchHelper@V__FrameHandler3@@@@YAHPEBU_s_HandlerType@@PEBU_s_CatchableType@@PEBU_s_ThrowInfo@@@Z 00000001800280a4 f i libvcruntime:frame.obj
 0001:000271e8       ??$__InternalCxxFrameHandler@V__FrameHandler3@@@@YA?AW4_EXCEPTION_DISPOSITION@@PEAUEHExceptionRecord@@PEA_KPEAU_CONTEXT@@PEAU_xDISPATCHER_CONTEXT@@PEBU_s_FuncInfo@@H1E@Z 00000001800281e8 f i libvcruntime:frame.obj
 0001:00027430       ??0bad_exception@std@@QEAA@AEBV01@@Z 0000000180028430 f i libvcruntime:frame.obj
 0001:0002746c       ??0bad_exception@std@@QEAA@XZ 000000018002846c f i libvcruntime:frame.obj
 0001:0002748c       ?CxxCallCatchBlock@__FrameHandler3@@SAPEAXPEAU_EXCEPTION_RECORD@@@Z 000000018002848c f   libvcruntime:frame.obj
 0001:00027700       ?FrameUnwindToState@__FrameHandler3@@SAXPEA_KPEAU_xDISPATCHER_CONTEXT@@PEBU_s_FuncInfo@@H@Z 0000000180028700 f   libvcruntime:frame.obj
 0001:0002788c       ?GetHandlerSearchState@__FrameHandler3@@SAHPEA_KPEAU_xDISPATCHER_CONTEXT@@PEBU_s_FuncInfo@@@Z 000000018002888c f i libvcruntime:frame.obj
 0001:00027a9c       ?_CallMemberFunction1@@YAXQEAX00@Z 0000000180028a9c f i libvcruntime:frame.obj
 0001:00027aa8       ?_CallMemberFunction2@@YAXQEAX00H@Z 0000000180028aa8 f i libvcruntime:frame.obj
 0001:00027ad0       _NLG_Notify                0000000180028ad0 f   libvcruntime:notify.obj
 0001:00027af0       __NLG_Dispatch2            0000000180028af0 f   libvcruntime:notify.obj
 0001:00027b00       __NLG_Return2              0000000180028b00 f   libvcruntime:notify.obj
 0001:00027b04       __except_validate_context_record 0000000180028b04 f   libvcruntime:jbcxrval.obj
 0001:00027b3c       __vcrt_initialize_locks    0000000180028b3c f   libvcruntime:locks.obj
 0001:00027b70       __vcrt_uninitialize_locks  0000000180028b70 f   libvcruntime:locks.obj
 0001:00027d04       __vcrt_FlsAlloc            0000000180028d04 f   libvcruntime:winapi_downlevel.obj
 0001:00027d4c       __vcrt_FlsFree             0000000180028d4c f   libvcruntime:winapi_downlevel.obj
 0001:00027d94       __vcrt_FlsGetValue         0000000180028d94 f   libvcruntime:winapi_downlevel.obj
 0001:00027ddc       __vcrt_FlsSetValue         0000000180028ddc f   libvcruntime:winapi_downlevel.obj
 0001:00027e30       __vcrt_InitializeCriticalSectionEx 0000000180028e30 f   libvcruntime:winapi_downlevel.obj
 0001:00027eb0       _CallSettingFrame          0000000180028eb0 f   libvcruntime:handlers.obj
 0001:00027f00       _CallSettingFrame_LookupContinuationIndex 0000000180028f00 f   libvcruntime:handlers.obj
 0001:00027f30       _CallSettingFrame_NotifyContinuationAddr 0000000180028f30 f   libvcruntime:handlers.obj
 0001:00027f60       _CallSettingFrameEncoded   0000000180028f60 f   libvcruntime:handlers.obj
 0001:00027fa8       __acrt_call_reportfault    0000000180028fa8 f   libucrt:invalid_parameter.obj
 0001:00028104       __acrt_initialize_invalid_parameter_handler 0000000180029104 f   libucrt:invalid_parameter.obj
 0001:0002810c       _invalid_parameter         000000018002910c f   libucrt:invalid_parameter.obj
 0001:000281bc       _invalid_parameter_noinfo  00000001800291bc f   libucrt:invalid_parameter.obj
 0001:000281dc       _invalid_parameter_noinfo_noreturn 00000001800291dc f   libucrt:invalid_parameter.obj
 0001:0002820c       _invoke_watson             000000018002920c f   libucrt:invalid_parameter.obj
 0001:00028254       ??0_LocaleUpdate@@QEAA@QEAU__crt_locale_pointers@@@Z 0000000180029254 f i libucrt:stricmp.obj
 0001:000282f0       terminate                  00000001800292f0 f   libucrt:terminate.obj
 0001:00028310       __acrt_initialize_new_handler 0000000180029310 f   libucrt:new_handler.obj
 0001:00028318       _callnewh                  0000000180029318 f   libucrt:new_handler.obj
 0001:00028348       _query_new_handler         0000000180029348 f   libucrt:new_handler.obj
 0001:0002837c       malloc                     000000018002937c f   libucrt:malloc.obj
 0001:00028384       _initterm                  0000000180029384 f   libucrt:initterm.obj
 0001:000283e8       _initterm_e                00000001800293e8 f   libucrt:initterm.obj
 0001:00028428       free                       0000000180029428 f   libucrt:free.obj
 0001:0002843c       _seh_filter_dll            000000018002943c f   libucrt:exception_filter.obj
 0001:00028450       _seh_filter_exe            0000000180029450 f   libucrt:exception_filter.obj
 0001:00028840       __acrt_initialize_thread_local_exit_callback 0000000180029840 f   libucrt:exit.obj
 0001:00028848       _cexit                     0000000180029848 f   libucrt:exit.obj
 0001:00028858       _exit                      0000000180029858 f   libucrt:exit.obj
 0001:00028864       _is_c_termination_complete 0000000180029864 f   libucrt:exit.obj
 0001:00028a30       __acrt_allocate_buffer_for_argv 0000000180029a30 f   libucrt:argv_parsing.obj
 0001:00028a90       _configure_narrow_argv     0000000180029a90 f   libucrt:argv_parsing.obj
 0001:00028e08       __dcrt_uninitialize_environments_nolock 0000000180029e08 f   libucrt:environment_initialization.obj
 0001:00028e40       _initialize_narrow_environment 0000000180029e40 f   libucrt:environment_initialization.obj
 0001:00028f9c       _execute_onexit_table      0000000180029f9c f   libucrt:onexit.obj
 0001:00028fd8       _initialize_onexit_table   0000000180029fd8 f   libucrt:onexit.obj
 0001:00029038       __acrt_uninitialize_command_line 000000018002a038 f   libucrt:argv_data.obj
 0001:00029130       __acrt_initialize          000000018002a130 f   libucrt:initialization.obj
 0001:00029144       __acrt_thread_attach       000000018002a144 f   libucrt:initialization.obj
 0001:00029158       __acrt_thread_detach       000000018002a158 f   libucrt:initialization.obj
 0001:00029168       __acrt_uninitialize        000000018002a168 f   libucrt:initialization.obj
 0001:000291a0       __acrt_uninitialize_critical 000000018002a1a0 f   libucrt:initialization.obj
 0001:000291b0       strcpy_s                   000000018002a1b0 f   libucrt:strcpy_s.obj
 0001:00029210       abort                      000000018002a210 f   libucrt:abort.obj
 0001:00029268       calloc                     000000018002a268 f   libucrt:calloc.obj
 0001:00029280       strncmp                    000000018002a280 f   libucrt:strncmp.obj
 0001:00029300       wcsncmp                    000000018002a300 f   libucrt:wcsncmp.obj
 0001:000296a4       __acrt_freeptd             000000018002a6a4 f   libucrt:per_thread_data.obj
 0001:000296e8       __acrt_getptd              000000018002a6e8 f   libucrt:per_thread_data.obj
 0001:000297bc       __acrt_getptd_head         000000018002a7bc f   libucrt:per_thread_data.obj
 0001:00029864       __acrt_getptd_noexit       000000018002a864 f   libucrt:per_thread_data.obj
 0001:00029930       __acrt_initialize_ptd      000000018002a930 f   libucrt:per_thread_data.obj
 0001:0002996c       __acrt_uninitialize_ptd    000000018002a96c f   libucrt:per_thread_data.obj
 0001:00029990       __acrt_errno_from_os_error 000000018002a990 f   libucrt:errno.obj
 0001:000299d8       __acrt_errno_map_os_error  000000018002a9d8 f   libucrt:errno.obj
 0001:00029a28       __doserrno                 000000018002aa28 f   libucrt:errno.obj
 0001:00029a48       _errno                     000000018002aa48 f   libucrt:errno.obj
 0001:00029a68       __acrt_update_locale_info  000000018002aa68 f   libucrt:locale_update.obj
 0001:00029a9c       __acrt_update_multibyte_info 000000018002aa9c f   libucrt:locale_update.obj
 0001:00029b40       __acrt_set_locale_changed  000000018002ab40 f   libucrt:wsetlocale.obj
 0001:00029b4c       __acrt_uninitialize_locale 000000018002ab4c f   libucrt:wsetlocale.obj
 0001:00029b7c       __acrt_initialize_locks    000000018002ab7c f   libucrt:locks.obj
 0001:00029bc4       __acrt_lock                000000018002abc4 f   libucrt:locks.obj
 0001:00029be0       __acrt_uninitialize_locks  000000018002abe0 f   libucrt:locks.obj
 0001:00029c18       __acrt_unlock              000000018002ac18 f   libucrt:locks.obj
 0001:00029c34       _malloc_base               000000018002ac34 f   libucrt:malloc_base.obj
 0001:00029c94       _free_base                 000000018002ac94 f   libucrt:free_base.obj
 0001:00029cd4       __acrt_get_process_end_policy 000000018002acd4 f   libucrt:win_policies.obj
 0001:00029d10       _calloc_base               000000018002ad10 f   libucrt:calloc_base.obj
 0001:00029d9c       ??$__acrt_mbs_to_wcs_cp@U__crt_win32_buffer_internal_dynamic_resizing@@@@YAHQEBDAEAV?$__crt_win32_buffer@_WU__crt_win32_buffer_internal_dynamic_resizing@@@@I@Z 000000018002ad9c f i libucrt:argv_wildcards.obj
 0001:00029f14       ??$__acrt_wcs_to_mbs_cp@U__crt_win32_buffer_internal_dynamic_resizing@@@@YAHQEB_WAEAV?$__crt_win32_buffer@DU__crt_win32_buffer_internal_dynamic_resizing@@@@I@Z 000000018002af14 f i libucrt:argv_wildcards.obj
 0001:0002a744       __acrt_expand_narrow_argv_wildcards 000000018002b744 f   libucrt:argv_wildcards.obj
 0001:0002a74c       ??$__acrt_wcs_to_mbs_cp@U__crt_win32_buffer_no_resizing@@@@YAHQEB_WAEAV?$__crt_win32_buffer@DU__crt_win32_buffer_no_resizing@@@@I@Z 000000018002b74c f i libucrt:getmodulefilenamea.obj
 0001:0002a860       __acrt_GetModuleFileNameA  000000018002b860 f   libucrt:getmodulefilenamea.obj
 0001:0002b0ac       __acrt_initialize_multibyte 000000018002c0ac f   libucrt:mbctype.obj
 0001:0002b10c       __acrt_update_thread_multibyte_data 000000018002c10c f   libucrt:mbctype.obj
 0001:0002b128       _setmbcp_nolock            000000018002c128 f   libucrt:mbctype.obj
 0001:0002b45c       _ismbblead                 000000018002c45c f   libucrt:ismbbyte.obj
 0001:0002b470       __acrt_initialize_command_line 000000018002c470 f   libucrt:argv_data.obj
 0001:0002b498       __acrt_MultiByteToWideChar 000000018002c498 f   libucrt:multibytetowidechar.obj
 0001:0002b4f4       __acrt_WideCharToMultiByte 000000018002c4f4 f   libucrt:widechartomultibyte.obj
 0001:0002b58c       __dcrt_get_narrow_environment_from_os 000000018002c58c f   libucrt:get_environment_from_os.obj
 0001:0002b690       _recalloc_base             000000018002c690 f   libucrt:recalloc.obj
 0001:0002b900       __acrt_AppPolicyGetProcessTerminationMethodInternal 000000018002c900 f   libucrt:winapi_thunks.obj
 0001:0002b950       __acrt_AreFileApisANSI     000000018002c950 f   libucrt:winapi_thunks.obj
 0001:0002b98c       __acrt_FlsAlloc            000000018002c98c f   libucrt:winapi_thunks.obj
 0001:0002b9d4       __acrt_FlsFree             000000018002c9d4 f   libucrt:winapi_thunks.obj
 0001:0002ba1c       __acrt_FlsGetValue         000000018002ca1c f   libucrt:winapi_thunks.obj
 0001:0002ba64       __acrt_FlsSetValue         000000018002ca64 f   libucrt:winapi_thunks.obj
 0001:0002bab8       __acrt_InitializeCriticalSectionEx 000000018002cab8 f   libucrt:winapi_thunks.obj
 0001:0002bb1c       __acrt_LCMapStringEx       000000018002cb1c f   libucrt:winapi_thunks.obj
 0001:0002bbf8       __acrt_LocaleNameToLCID    000000018002cbf8 f   libucrt:winapi_thunks.obj
 0001:0002bc48       __acrt_initialize_winapi_thunks 000000018002cc48 f   libucrt:winapi_thunks.obj
 0001:0002bc7c       __acrt_uninitialize_winapi_thunks 000000018002cc7c f   libucrt:winapi_thunks.obj
 0001:0002bcc0       __acrt_initialize_heap     000000018002ccc0 f   libucrt:heap_handle.obj
 0001:0002bcdc       __acrt_uninitialize_heap   000000018002ccdc f   libucrt:heap_handle.obj
 0001:0002bee4       __acrt_initialize_lowio    000000018002cee4 f   libucrt:ioinit.obj
 0001:0002bf20       __acrt_uninitialize_lowio  000000018002cf20 f   libucrt:ioinit.obj
 0001:0002bf60       __acrt_execute_initializers 000000018002cf60 f   libucrt:shared_initialization.obj
 0001:0002bfe0       __acrt_execute_uninitializers 000000018002cfe0 f   libucrt:shared_initialization.obj
 0001:0002c064       __acrt_get_sigabrt_handler 000000018002d064 f   libucrt:signal.obj
 0001:0002c094       __acrt_initialize_signal_handlers 000000018002d094 f   libucrt:signal.obj
 0001:0002c0b4       raise                      000000018002d0b4 f   libucrt:signal.obj
 0001:0002c320       __acrt_has_user_matherr    000000018002d320 f   libucrt:matherr.obj
 0001:0002c340       __acrt_initialize_user_matherr 000000018002d340 f   libucrt:matherr.obj
 0001:0002c348       __acrt_invoke_user_matherr 000000018002d348 f   libucrt:matherr.obj
 0001:0002c554       __acrt_stdio_flush_nolock  000000018002d554 f   libucrt:fflush.obj
 0001:0002c5d0       _fflush_nolock             000000018002d5d0 f   libucrt:fflush.obj
 0001:0002c61c       _flushall                  000000018002d61c f   libucrt:fflush.obj
 0001:0002c624       __acrt_initialize_stdio    000000018002d624 f   libucrt:_file.obj
 0001:0002c744       __acrt_uninitialize_stdio  000000018002d744 f   libucrt:_file.obj
 0001:0002c7a0       _lock_file                 000000018002d7a0 f   libucrt:_file.obj
 0001:0002c7ac       _unlock_file               000000018002d7ac f   libucrt:_file.obj
 0001:0002c7b8       _mbtowc_l                  000000018002d7b8 f   libucrt:mbtowc.obj
 0001:0002c938       mbtowc                     000000018002d938 f   libucrt:mbtowc.obj
 0001:0002c940       _fileno                    000000018002d940 f   libucrt:fileno.obj
 0001:0002c968       __pctype_func              000000018002d968 f   libucrt:ctype.obj
 0001:0002c998       __acrt_add_locale_ref      000000018002d998 f   libucrt:locale_refcounting.obj
 0001:0002ca24       __acrt_free_locale         000000018002da24 f   libucrt:locale_refcounting.obj
 0001:0002cb9c       __acrt_locale_add_lc_time_reference 000000018002db9c f   libucrt:locale_refcounting.obj
 0001:0002cbc4       __acrt_locale_free_lc_time_if_unreferenced 000000018002dbc4 f   libucrt:locale_refcounting.obj
 0001:0002cbfc       __acrt_locale_release_lc_time_reference 000000018002dbfc f   libucrt:locale_refcounting.obj
 0001:0002cc24       __acrt_release_locale_ref  000000018002dc24 f   libucrt:locale_refcounting.obj
 0001:0002cccc       __acrt_update_thread_locale_data 000000018002dccc f   libucrt:locale_refcounting.obj
 0001:0002cd38       _updatetlocinfoEx_nolock   000000018002dd38 f   libucrt:locale_refcounting.obj
 0001:0002cda0       __acrt_locale_free_monetary 000000018002dda0 f   libucrt:initmon.obj
 0001:0002ceac       __acrt_locale_free_numeric 000000018002deac f   libucrt:initnum.obj
 0001:0002cf70       __acrt_locale_free_time    000000018002df70 f   libucrt:inittime.obj
 0001:0002d078       __acrt_GetStringTypeA      000000018002e078 f   libucrt:getstringtypea.obj
 0001:0002d208       _query_new_mode            000000018002e208 f   libucrt:new_mode.obj
 0001:0002d210       qsort                      000000018002e210 f   libucrt:qsort.obj
 0001:0002d5c0       strncpy_s                  000000018002e5c0 f   libucrt:strncpy_s.obj
 0001:0002d740       strpbrk                    000000018002e740 f   libucrt:strpbrk.obj
 0001:0002db20       _mbsdec                    000000018002eb20 f   libucrt:mbsdec.obj
 0001:0002db28       _mbsdec_l                  000000018002eb28 f   libucrt:mbsdec.obj
 0001:0002ded4       __acrt_LCMapStringA        000000018002eed4 f   libucrt:lcmapstringa.obj
 0001:0002df84       _msize_base                000000018002ef84 f   libucrt:msize.obj
 0001:0002dfc0       _realloc_base              000000018002efc0 f   libucrt:realloc_base.obj
 0001:0002e03c       __acrt_DownlevelLocaleNameToLCID 000000018002f03c f   libucrt:lcidtoname_downlevel.obj
 0001:0002e0ec       __acrt_lowio_create_handle_array 000000018002f0ec f   libucrt:osfinfo.obj
 0001:0002e194       __acrt_lowio_destroy_handle_array 000000018002f194 f   libucrt:osfinfo.obj
 0001:0002e1e4       __acrt_lowio_ensure_fh_exists 000000018002f1e4 f   libucrt:osfinfo.obj
 0001:0002e28c       __acrt_lowio_lock_fh       000000018002f28c f   libucrt:osfinfo.obj
 0001:0002e2b4       __acrt_lowio_unlock_fh     000000018002f2b4 f   libucrt:osfinfo.obj
 0001:0002e2dc       _free_osfhnd               000000018002f2dc f   libucrt:osfinfo.obj
 0001:0002e398       _get_osfhandle             000000018002f398 f   libucrt:osfinfo.obj
 0001:0002e49c       _commit                    000000018002f49c f   libucrt:commit.obj
 0001:0002ed90       _write                     000000018002fd90 f   libucrt:write.obj
 0001:0002ee7c       _write_nolock              000000018002fe7c f   libucrt:write.obj
 0001:0002f158       _fcloseall                 0000000180030158 f   libucrt:closeall.obj
 0001:0002f20c       __acrt_stdio_free_buffer_nolock 000000018003020c f   libucrt:_freebuf.obj
 0001:0002f24c       _isatty                    000000018003024c f   libucrt:isatty.obj
 0001:0002f2ac       _isleadbyte_l              00000001800302ac f i libucrt:_wctype.obj
 0001:0002f2f8       ?__mbrtowc_utf8@__crt_mbstring@@YA_KPEA_WPEBD_KPEAU_Mbstatet@@@Z 00000001800302f8 f   libucrt:mbrtowc.obj
 0001:0002f334       ?__mbsrtowcs_utf8@__crt_mbstring@@YA_KPEA_WPEAPEBD_KPEAU_Mbstatet@@@Z 0000000180030334 f   libucrt:mbrtowc.obj
 0001:0002f4ac       __ascii_wcsnicmp           00000001800304ac f   libucrt:wcsnicmp.obj
 0001:0002f4f8       __strncnt                  00000001800304f8 f   libucrt:strncnt.obj
 0001:0002f510       _query_app_type            0000000180030510 f   libucrt:report_runtime_error.obj
 0001:0002f5b4       _lseeki64_nolock           00000001800305b4 f   libucrt:lseek.obj
 0001:0002f5bc       _putwch_nolock             00000001800305bc f   libucrt:putwch.obj
 0001:0002f5f8       _fclose_nolock             00000001800305f8 f   libucrt:fclose.obj
 0001:0002f67c       fclose                     000000018003067c f   libucrt:fclose.obj
 0001:0002f6e0       ?__mbrtoc32_utf8@__crt_mbstring@@YA_KPEA_UPEBD_KPEAU_Mbstatet@@@Z 00000001800306e0 f   libucrt:mbrtoc32.obj
 0001:0002f8c0       log10                      00000001800308c0 f   libucrt:log10.obj
 0001:0002fe6c       __dcrt_lowio_ensure_console_output_initialized 0000000180030e6c f   libucrt:initcon.obj
 0001:0002fec0       __dcrt_terminate_console_output 0000000180030ec0 f   libucrt:initcon.obj
 0001:0002fedc       __dcrt_write_console       0000000180030edc f   libucrt:initcon.obj
 0001:00030010       _close                     0000000180031010 f   libucrt:close.obj
 0001:000300b4       _close_nolock              00000001800310b4 f   libucrt:close.obj
 0001:00030174       ?__acrt_stdio_free_stream@@YAXV__crt_stdio_stream@@@Z 0000000180031174 f   libucrt:stream.obj
 0001:000302b4       _handle_error              00000001800312b4 f   libucrt:libm_error.obj
 0001:000303e0       __acrt_initialize_fma3     00000001800313e0 f   libucrt:fma3_available.obj
 0001:00030450       _log10_special             0000000180031450 f   libucrt:log_special.obj
 0001:00030520       _get_fpsr                  0000000180031520 f   libucrt:fpsr.obj
 0001:00030530       _set_fpsr                  0000000180031530 f   libucrt:fpsr.obj
 0001:0003053a       _fclrf                     000000018003153a f   libucrt:fpsr.obj
 0001:0003054e       _frnd                      000000018003154e f   libucrt:fpsr.obj
 0001:00030570       _raise_exc                 0000000180031570 f   libucrt:fpexcept.obj
 0001:00030598       _raise_exc_ex              0000000180031598 f   libucrt:fpexcept.obj
 0001:000308a8       _set_errno_from_matherr    00000001800318a8 f   libucrt:fpexcept.obj
 0001:000308d8       _clrfp                     00000001800318d8 f   libucrt:fpctrl.obj
 0001:000308f8       _ctrlfp                    00000001800318f8 f   libucrt:fpctrl.obj
 0001:00030974       _set_statfp                0000000180031974 f   libucrt:fpctrl.obj
 0001:00030994       _statfp                    0000000180031994 f   libucrt:fpctrl.obj
 0001:000309a5       IsProcessorFeaturePresent  00000001800319a5 f   kernel32:KERNEL32.dll
 0001:000309b0       _FindPESection             00000001800319b0 f   LIBCMT:pesect.obj
 0001:00030a00       _IsNonwritableInCurrentImage 0000000180031a00 f   LIBCMT:pesect.obj
 0001:00030a50       _ValidateImageBase         0000000180031a50 f   LIBCMT:pesect.obj
 0001:00030a90       __chkstk                   0000000180031a90 f   LIBCMT:chkstk.obj
 0001:00030a90       _alloca_probe              0000000180031a90 f   LIBCMT:chkstk.obj
 0001:00030b00       memcmp                     0000000180031b00 f   libvcruntime:memcmp.obj
 0001:00030be0       _guard_dispatch_icall_nop  0000000180031be0 f   LIBCMT:guard_dispatch.obj
 0002:00000000       __imp_WriteConsoleW        0000000180034000     kernel32:KERNEL32.dll
 0002:00000008       __imp_CloseHandle          0000000180034008     kernel32:KERNEL32.dll
 0002:00000010       __imp_CreateFileW          0000000180034010     kernel32:KERNEL32.dll
 0002:00000018       __imp_SetFilePointerEx     0000000180034018     kernel32:KERNEL32.dll
 0002:00000020       __imp_GetConsoleMode       0000000180034020     kernel32:KERNEL32.dll
 0002:00000028       __imp_GetConsoleCP         0000000180034028     kernel32:KERNEL32.dll
 0002:00000030       __imp_WriteFile            0000000180034030     kernel32:KERNEL32.dll
 0002:00000038       __imp_FlushFileBuffers     0000000180034038     kernel32:KERNEL32.dll
 0002:00000040       __imp_SetStdHandle         0000000180034040     kernel32:KERNEL32.dll
 0002:00000048       __imp_HeapReAlloc          0000000180034048     kernel32:KERNEL32.dll
 0002:00000050       __imp_HeapSize             0000000180034050     kernel32:KERNEL32.dll
 0002:00000058       __imp_GetStringTypeW       0000000180034058     kernel32:KERNEL32.dll
 0002:00000060       __imp_GetFileType          0000000180034060     kernel32:KERNEL32.dll
 0002:00000068       __imp_GetStdHandle         0000000180034068     kernel32:KERNEL32.dll
 0002:00000070       __imp_GetProcessHeap       0000000180034070     kernel32:KERNEL32.dll
 0002:00000078       __imp_LCMapStringW         0000000180034078     kernel32:KERNEL32.dll
 0002:00000080       __imp_FreeEnvironmentStringsW 0000000180034080     kernel32:KERNEL32.dll
 0002:00000088       __imp_GetEnvironmentStringsW 0000000180034088     kernel32:KERNEL32.dll
 0002:00000090       __imp_MultiByteToWideChar  0000000180034090     kernel32:KERNEL32.dll
 0002:00000098       __imp_GetCommandLineW      0000000180034098     kernel32:KERNEL32.dll
 0002:000000a0       __imp_GetCommandLineA      00000001800340a0     kernel32:KERNEL32.dll
 0002:000000a8       __imp_GetCPInfo            00000001800340a8     kernel32:KERNEL32.dll
 0002:000000b0       __imp_GetOEMCP             00000001800340b0     kernel32:KERNEL32.dll
 0002:000000b8       __imp_GetACP               00000001800340b8     kernel32:KERNEL32.dll
 0002:000000c0       __imp_IsValidCodePage      00000001800340c0     kernel32:KERNEL32.dll
 0002:000000c8       __imp_FindNextFileW        00000001800340c8     kernel32:KERNEL32.dll
 0002:000000d0       __imp_FindFirstFileExW     00000001800340d0     kernel32:KERNEL32.dll
 0002:000000d8       __imp_FindClose            00000001800340d8     kernel32:KERNEL32.dll
 0002:000000e0       __imp_HeapFree             00000001800340e0     kernel32:KERNEL32.dll
 0002:000000e8       __imp_HeapAlloc            00000001800340e8     kernel32:KERNEL32.dll
 0002:000000f0       __imp_GetModuleFileNameW   00000001800340f0     kernel32:KERNEL32.dll
 0002:000000f8       __imp_GetModuleHandleExW   00000001800340f8     kernel32:KERNEL32.dll
 0002:00000100       __imp_ExitProcess          0000000180034100     kernel32:KERNEL32.dll
 0002:00000108       __imp_LoadLibraryExW       0000000180034108     kernel32:KERNEL32.dll
 0002:00000110       __imp_FreeLibrary          0000000180034110     kernel32:KERNEL32.dll
 0002:00000118       __imp_DeleteCriticalSection 0000000180034118     kernel32:KERNEL32.dll
 0002:00000120       __imp_LeaveCriticalSection 0000000180034120     kernel32:KERNEL32.dll
 0002:00000128       __imp_EnterCriticalSection 0000000180034128     kernel32:KERNEL32.dll
 0002:00000130       __imp_EncodePointer        0000000180034130     kernel32:KERNEL32.dll
 0002:00000138       __imp_InterlockedFlushSList 0000000180034138     kernel32:KERNEL32.dll
 0002:00000140       __imp_RaiseException       0000000180034140     kernel32:KERNEL32.dll
 0002:00000148       __imp_RtlPcToFileHeader    0000000180034148     kernel32:KERNEL32.dll
 0002:00000150       __imp_RtlUnwindEx          0000000180034150     kernel32:KERNEL32.dll
 0002:00000158       __imp_GetStartupInfoW      0000000180034158     kernel32:KERNEL32.dll
 0002:00000160       __imp_IsDebuggerPresent    0000000180034160     kernel32:KERNEL32.dll
 0002:00000168       __imp_InitializeSListHead  0000000180034168     kernel32:KERNEL32.dll
 0002:00000170       __imp_GetCurrentThreadId   0000000180034170     kernel32:KERNEL32.dll
 0002:00000178       __imp_GetCurrentProcessId  0000000180034178     kernel32:KERNEL32.dll
 0002:00000180       __imp_QueryPerformanceCounter 0000000180034180     kernel32:KERNEL32.dll
 0002:00000188       __imp_IsProcessorFeaturePresent 0000000180034188     kernel32:KERNEL32.dll
 0002:00000190       __imp_TerminateProcess     0000000180034190     kernel32:KERNEL32.dll
 0002:00000198       __imp_GetCurrentProcess    0000000180034198     kernel32:KERNEL32.dll
 0002:000001a0       __imp_SetUnhandledExceptionFilter 00000001800341a0     kernel32:KERNEL32.dll
 0002:000001a8       __imp_UnhandledExceptionFilter 00000001800341a8     kernel32:KERNEL32.dll
 0002:000001b0       __imp_RtlVirtualUnwind     00000001800341b0     kernel32:KERNEL32.dll
 0002:000001b8       __imp_RtlLookupFunctionEntry 00000001800341b8     kernel32:KERNEL32.dll
 0002:000001c0       __imp_RtlCaptureContext    00000001800341c0     kernel32:KERNEL32.dll
 0002:000001c8       __imp_GetProcAddress       00000001800341c8     kernel32:KERNEL32.dll
 0002:000001d0       __imp_GetModuleHandleW     00000001800341d0     kernel32:KERNEL32.dll
 0002:000001d8       __imp_GetSystemTimeAsFileTime 00000001800341d8     kernel32:KERNEL32.dll
 0002:000001e0       __imp_TlsFree              00000001800341e0     kernel32:KERNEL32.dll
 0002:000001e8       __imp_TlsSetValue          00000001800341e8     kernel32:KERNEL32.dll
 0002:000001f0       __imp_TlsGetValue          00000001800341f0     kernel32:KERNEL32.dll
 0002:000001f8       __imp_TlsAlloc             00000001800341f8     kernel32:KERNEL32.dll
 0002:00000200       __imp_SwitchToThread       0000000180034200     kernel32:KERNEL32.dll
 0002:00000208       __imp_InitializeCriticalSectionAndSpinCount 0000000180034208     kernel32:KERNEL32.dll
 0002:00000210       __imp_SetLastError         0000000180034210     kernel32:KERNEL32.dll
 0002:00000218       __imp_WideCharToMultiByte  0000000180034218     kernel32:KERNEL32.dll
 0002:00000220       __imp_GetLastError         0000000180034220     kernel32:KERNEL32.dll
 0002:00000228       \177KERNEL32_NULL_THUNK_DATA 0000000180034228     kernel32:KERNEL32.dll
 0002:00000230       __imp_vips__filename_split8 0000000180034230     libvips:dffjs00710.o
 0002:00000238       __imp_vips_area_unref      0000000180034238     libvips:dffjs00901.o
 0002:00000240       __imp_vips_array_double_get_type 0000000180034240     libvips:dffjs00915.o
 0002:00000248       __imp_vips_array_image_get_type 0000000180034248     libvips:dffjs00921.o
 0002:00000250       __imp_vips_array_int_get_type 0000000180034250     libvips:dffjs00926.o
 0002:00000258       __imp_vips_blob_get_type   0000000180034258     libvips:dffjs00972.o
 0002:00000260       __imp_vips_blob_new        0000000180034260     libvips:dffjs00973.o
 0002:00000268       __imp_vips_cache_operation_buildp 0000000180034268     libvips:dffjs01025.o
 0002:00000270       __imp_vips_enum_from_nick  0000000180034270     libvips:dffjs01235.o
 0002:00000278       __imp_vips_error_buffer    0000000180034278     libvips:dffjs01245.o
 0002:00000280       __imp_vips_error_clear     0000000180034280     libvips:dffjs01246.o
 0002:00000288       __imp_vips_foreign_find_load 0000000180034288     libvips:dffjs01293.o
 0002:00000290       __imp_vips_foreign_find_load_buffer 0000000180034290     libvips:dffjs01294.o
 0002:00000298       __imp_vips_foreign_find_save 0000000180034298     libvips:dffjs01295.o
 0002:000002a0       __imp_vips_foreign_find_save_buffer 00000001800342a0     libvips:dffjs01296.o
 0002:000002a8       __imp_vips_format_sizeof_unsafe 00000001800342a8     libvips:dffjs01380.o
 0002:000002b0       __imp_vips_image_copy_memory 00000001800342b0     libvips:dffjs01476.o
 0002:000002b8       __imp_vips_image_get_bands 00000001800342b8     libvips:dffjs01485.o
 0002:000002c0       __imp_vips_image_get_blob  00000001800342c0     libvips:dffjs01486.o
 0002:000002c8       __imp_vips_image_get_coding 00000001800342c8     libvips:dffjs01487.o
 0002:000002d0       __imp_vips_image_get_data  00000001800342d0     libvips:dffjs01488.o
 0002:000002d8       __imp_vips_image_get_double 00000001800342d8     libvips:dffjs01489.o
 0002:000002e0       __imp_vips_image_get_filename 00000001800342e0     libvips:dffjs01491.o
 0002:000002e8       __imp_vips_image_get_format 00000001800342e8     libvips:dffjs01492.o
 0002:000002f0       __imp_vips_image_get_height 00000001800342f0     libvips:dffjs01493.o
 0002:000002f8       __imp_vips_image_get_int   00000001800342f8     libvips:dffjs01496.o
 0002:00000300       __imp_vips_image_get_interpretation 0000000180034300     libvips:dffjs01497.o
 0002:00000308       __imp_vips_image_get_string 0000000180034308     libvips:dffjs01503.o
 0002:00000310       __imp_vips_image_get_type  0000000180034310     libvips:dffjs01504.o
 0002:00000318       __imp_vips_image_get_typeof 0000000180034318     libvips:dffjs01505.o
 0002:00000320       __imp_vips_image_get_width 0000000180034320     libvips:dffjs01506.o
 0002:00000328       __imp_vips_image_get_xoffset 0000000180034328     libvips:dffjs01507.o
 0002:00000330       __imp_vips_image_get_xres  0000000180034330     libvips:dffjs01508.o
 0002:00000338       __imp_vips_image_get_yoffset 0000000180034338     libvips:dffjs01509.o
 0002:00000340       __imp_vips_image_get_yres  0000000180034340     libvips:dffjs01510.o
 0002:00000348       __imp_vips_image_guess_interpretation 0000000180034348     libvips:dffjs01512.o
 0002:00000350       __imp_vips_image_hasalpha  0000000180034350     libvips:dffjs01513.o
 0002:00000358       __imp_vips_image_new_from_image 0000000180034358     libvips:dffjs01534.o
 0002:00000360       __imp_vips_image_new_from_memory 0000000180034360     libvips:dffjs01536.o
 0002:00000368       __imp_vips_image_new_matrix 0000000180034368     libvips:dffjs01538.o
 0002:00000370       __imp_vips_image_new_matrix_from_array 0000000180034370     libvips:dffjs01539.o
 0002:00000378       __imp_vips_image_new_memory 0000000180034378     libvips:dffjs01541.o
 0002:00000380       __imp_vips_image_new_temp_file 0000000180034380     libvips:dffjs01543.o
 0002:00000388       __imp_vips_image_remove    0000000180034388     libvips:dffjs01553.o
 0002:00000390       __imp_vips_image_set_blob  0000000180034390     libvips:dffjs01556.o
 0002:00000398       __imp_vips_image_set_double 0000000180034398     libvips:dffjs01559.o
 0002:000003a0       __imp_vips_image_set_int   00000001800343a0     libvips:dffjs01561.o
 0002:000003a8       __imp_vips_image_set_string 00000001800343a8     libvips:dffjs01564.o
 0002:000003b0       __imp_vips_image_write     00000001800343b0     libvips:dffjs01568.o
 0002:000003b8       __imp_vips_image_write_to_memory 00000001800343b8     libvips:dffjs01573.o
 0002:000003c0       __imp_vips_interpolate_get_type 00000001800343c0     libvips:dffjs01588.o
 0002:000003c8       __imp_vips_interpolate_new 00000001800343c8     libvips:dffjs01595.o
 0002:000003d0       __imp_vips_object_get_argument 00000001800343d0     libvips:dffjs01725.o
 0002:000003d8       __imp_vips_object_get_type 00000001800343d8     libvips:dffjs01731.o
 0002:000003e0       __imp_vips_object_set_from_string 00000001800343e0     libvips:dffjs01748.o
 0002:000003e8       __imp_vips_object_unref_outputs 00000001800343e8     libvips:dffjs01755.o
 0002:000003f0       __imp_vips_operation_new   00000001800343f0     libvips:dffjs01770.o
 0002:000003f8       __imp_vips_value_get_array_double 00000001800343f8     libvips:dffjs02048.o
 0002:00000400       __imp_vips_value_get_array_image 0000000180034400     libvips:dffjs02049.o
 0002:00000408       __imp_vips_value_get_array_int 0000000180034408     libvips:dffjs02050.o
 0002:00000410       __imp_vips_value_set_array_double 0000000180034410     libvips:dffjs02058.o
 0002:00000418       __imp_vips_value_set_array_image 0000000180034418     libvips:dffjs02059.o
 0002:00000420       __imp_vips_value_set_array_int 0000000180034420     libvips:dffjs02060.o
 0002:00000430       __imp_g_assertion_message_expr 0000000180034430     libglib-2.0:dobjs00043.o
 0002:00000438       __imp_g_log                0000000180034438     libglib-2.0:dobjs00651.o
 0002:00000448       __imp_g_object_get_property 0000000180034448     libgobject-2.0:dybjs00128.o
 0002:00000450       __imp_g_object_ref         0000000180034450     libgobject-2.0:dybjs00143.o
 0002:00000458       __imp_g_object_set_property 0000000180034458     libgobject-2.0:dybjs00153.o
 0002:00000460       __imp_g_object_unref       0000000180034460     libgobject-2.0:dybjs00161.o
 0002:00000468       __imp_g_param_spec_types   0000000180034468     libgobject-2.0:dybjs00202.o
 0002:00000470       __imp_g_type_check_instance_cast 0000000180034470     libgobject-2.0:dybjs00277.o
 0002:00000478       __imp_g_type_check_instance_is_a 0000000180034478     libgobject-2.0:dybjs00278.o
 0002:00000480       __imp_g_value_dup_boxed    0000000180034480     libgobject-2.0:dybjs00362.o
 0002:00000488       __imp_g_value_get_boolean  0000000180034488     libgobject-2.0:dybjs00368.o
 0002:00000490       __imp_g_value_get_double   0000000180034490     libgobject-2.0:dybjs00371.o
 0002:00000498       __imp_g_value_get_int      0000000180034498     libgobject-2.0:dybjs00376.o
 0002:000004a0       __imp_g_value_get_object   00000001800344a0     libgobject-2.0:dybjs00379.o
 0002:000004a8       __imp_g_value_get_string   00000001800344a8     libgobject-2.0:dybjs00383.o
 0002:000004b0       __imp_g_value_init         00000001800344b0     libgobject-2.0:dybjs00390.o
 0002:000004b8       __imp_g_value_set_boolean  00000001800344b8     libgobject-2.0:dybjs00395.o
 0002:000004c0       __imp_g_value_set_boxed    00000001800344c0     libgobject-2.0:dybjs00396.o
 0002:000004c8       __imp_g_value_set_double   00000001800344c8     libgobject-2.0:dybjs00399.o
 0002:000004d0       __imp_g_value_set_enum     00000001800344d0     libgobject-2.0:dybjs00400.o
 0002:000004d8       __imp_g_value_set_int      00000001800344d8     libgobject-2.0:dybjs00405.o
 0002:000004e0       __imp_g_value_set_object   00000001800344e0     libgobject-2.0:dybjs00408.o
 0002:000004e8       __imp_g_value_set_string   00000001800344e8     libgobject-2.0:dybjs00416.o
 0002:000004f0       __imp_g_value_unset        00000001800344f0     libgobject-2.0:dybjs00431.o
 0002:00000500       __guard_check_icall_fptr   0000000180034500     LIBCMT:guard_support.obj
 0002:00000508       __guard_dispatch_icall_fptr 0000000180034508     LIBCMT:guard_support.obj
 0002:00000510       __xc_a                     0000000180034510     LIBCMT:initializers.obj
 0002:00000518       __xc_z                     0000000180034518     LIBCMT:initializers.obj
 0002:00000520       __xi_a                     0000000180034520     LIBCMT:initializers.obj
 0002:00000530       __acrt_multibyte_initializer 0000000180034530     libucrt:multibyte_initializer.obj
 0002:00000538       __acrt_stdio_initializer   0000000180034538     libucrt:stdio_initializer.obj
 0002:00000540       __acrt_tran_fma3_initializer 0000000180034540     libucrt:fma3_initializer.obj
 0002:00000548       __xi_z                     0000000180034548     LIBCMT:initializers.obj
 0002:00000550       __xp_a                     0000000180034550     LIBCMT:initializers.obj
 0002:00000558       __acrt_locale_terminator   0000000180034558     libucrt:locale_initializer.obj
 0002:00000560       __dcrt_console_output_terminator 0000000180034560     libucrt:console_output_initializer.obj
 0002:00000568       __acrt_stdio_terminator    0000000180034568     libucrt:stdio_initializer.obj
 0002:00000570       __xp_z                     0000000180034570     LIBCMT:initializers.obj
 0002:00000578       __xt_a                     0000000180034578     LIBCMT:initializers.obj
 0002:00000580       __xt_z                     0000000180034580     LIBCMT:initializers.obj
 0002:00000598       ??_7exception@std@@6B@     0000000180034598     libcpmt:xonce.obj
 0002:000005a8       ??_C@_0BC@EOODALEL@Unknown?5exception@ 00000001800345a8     libcpmt:xonce.obj
 0002:000005c8       ??_7runtime_error@std@@6B@ 00000001800345c8     libcpmt:xonce.obj
 0002:000005e0       ??_7_System_error@std@@6B@ 00000001800345e0     libcpmt:xonce.obj
 0002:000005f8       ??_7system_error@std@@6B@  00000001800345f8     libcpmt:xonce.obj
 0002:00000608       ??_C@_0O@BFJCFAAK@unknown?5error@ 0000000180034608     libcpmt:xonce.obj
 0002:00000620       ??_7bad_alloc@std@@6B@     0000000180034620     libcpmt:xthrow.obj
 0002:00000630       ??_C@_0P@GHFPNOJB@bad?5allocation@ 0000000180034630     libcpmt:xthrow.obj
 0002:00000648       ??_7logic_error@std@@6B@   0000000180034648     libcpmt:xthrow.obj
 0002:00000660       ??_7length_error@std@@6B@  0000000180034660     libcpmt:xthrow.obj
 0002:00000dc0       ??_C@_0BN@LKKBCCDB@address?5family?5not?5supported@ 0000000180034dc0     libcpmt:syserror.obj
 0002:00000de0       ??_C@_0P@LDMLAFHI@address?5in?5use@ 0000000180034de0     libcpmt:syserror.obj
 0002:00000df0       ??_C@_0BG@DHPCNBJB@address?5not?5available@ 0000000180034df0     libcpmt:syserror.obj
 0002:00000e08       ??_C@_0BC@DFIBIBIL@already?5connected@ 0000000180034e08     libcpmt:syserror.obj
 0002:00000e20       ??_C@_0BH@CAKOHOMI@argument?5list?5too?5long@ 0000000180034e20     libcpmt:syserror.obj
 0002:00000e38       ??_C@_0BH@CGIMPKIM@argument?5out?5of?5domain@ 0000000180034e38     libcpmt:syserror.obj
 0002:00000e50       ??_C@_0M@KGHGGJGL@bad?5address@ 0000000180034e50     libcpmt:syserror.obj
 0002:00000e60       ??_C@_0BE@MPJPGCEO@bad?5file?5descriptor@ 0000000180034e60     libcpmt:syserror.obj
 0002:00000e78       ??_C@_0M@PMMIEFCP@bad?5message@ 0000000180034e78     libcpmt:syserror.obj
 0002:00000e88       ??_C@_0M@KPHOFDBE@broken?5pipe@ 0000000180034e88     libcpmt:syserror.obj
 0002:00000e98       ??_C@_0BD@MGNDDEGM@connection?5aborted@ 0000000180034e98     libcpmt:syserror.obj
 0002:00000eb0       ??_C@_0BP@KAIHPOGN@connection?5already?5in?5progress@ 0000000180034eb0     libcpmt:syserror.obj
 0002:00000ed0       ??_C@_0BD@PJLIIJEL@connection?5refused@ 0000000180034ed0     libcpmt:syserror.obj
 0002:00000ee8       ??_C@_0BB@IECNJNOI@connection?5reset@ 0000000180034ee8     libcpmt:syserror.obj
 0002:00000f00       ??_C@_0BC@PPHBOELF@cross?5device?5link@ 0000000180034f00     libcpmt:syserror.obj
 0002:00000f18       ??_C@_0BN@KDMIFEIP@destination?5address?5required@ 0000000180034f18     libcpmt:syserror.obj
 0002:00000f38       ??_C@_0BI@NGCEHDD@device?5or?5resource?5busy@ 0000000180034f38     libcpmt:syserror.obj
 0002:00000f50       ??_C@_0BE@JIDOCPHM@directory?5not?5empty@ 0000000180034f50     libcpmt:syserror.obj
 0002:00000f68       ??_C@_0BI@BNCLIGPB@executable?5format?5error@ 0000000180034f68     libcpmt:syserror.obj
 0002:00000f80       ??_C@_0M@MIDIAGJP@file?5exists@ 0000000180034f80     libcpmt:syserror.obj
 0002:00000f90       ??_C@_0P@DNAJLBJK@file?5too?5large@ 0000000180034f90     libcpmt:syserror.obj
 0002:00000fa0       ??_C@_0BC@EJHOMAAK@filename?5too?5long@ 0000000180034fa0     libcpmt:syserror.obj
 0002:00000fb8       ??_C@_0BH@KEFGLDAF@function?5not?5supported@ 0000000180034fb8     libcpmt:syserror.obj
 0002:00000fd0       ??_C@_0BB@DHFDFGDM@host?5unreachable@ 0000000180034fd0     libcpmt:syserror.obj
 0002:00000fe8       ??_C@_0BD@JPHBMONG@identifier?5removed@ 0000000180034fe8     libcpmt:syserror.obj
 0002:00001000       ??_C@_0BG@CDNPAGJK@illegal?5byte?5sequence@ 0000000180035000     libcpmt:syserror.obj
 0002:00001018       ??_C@_0CD@BNPLBMNA@inappropriate?5io?5control?5operat@ 0000000180035018     libcpmt:syserror.obj
 0002:00001040       ??_C@_0M@EGEKIIMP@interrupted@ 0000000180035040     libcpmt:syserror.obj
 0002:00001050       ??_C@_0BB@FCMFBGOM@invalid?5argument@ 0000000180035050     libcpmt:syserror.obj
 0002:00001068       ??_C@_0N@OHAFKDEK@invalid?5seek@ 0000000180035068     libcpmt:syserror.obj
 0002:00001078       ??_C@_08GLNPIFBN@io?5error@ 0000000180035078     libcpmt:syserror.obj
 0002:00001088       ??_C@_0P@FLLDBIDK@is?5a?5directory@ 0000000180035088     libcpmt:syserror.obj
 0002:00001098       ??_C@_0N@IFLPBIOP@message?5size@ 0000000180035098     libcpmt:syserror.obj
 0002:000010a8       ??_C@_0N@KIIEAAIO@network?5down@ 00000001800350a8     libcpmt:syserror.obj
 0002:000010b8       ??_C@_0O@FNPDBHEE@network?5reset@ 00000001800350b8     libcpmt:syserror.obj
 0002:000010c8       ??_C@_0BE@IFNCKGE@network?5unreachable@ 00000001800350c8     libcpmt:syserror.obj
 0002:000010e0       ??_C@_0BA@PFFCAOFK@no?5buffer?5space@ 00000001800350e0     libcpmt:syserror.obj
 0002:000010f0       ??_C@_0BB@IEPBLJHK@no?5child?5process@ 00000001800350f0     libcpmt:syserror.obj
 0002:00001108       ??_C@_07PLECNNKG@no?5link@ 0000000180035108     libcpmt:syserror.obj
 0002:00001110       ??_C@_0BC@NJECKMKE@no?5lock?5available@ 0000000180035110     libcpmt:syserror.obj
 0002:00001128       ??_C@_0BF@PBGGPKKE@no?5message?5available@ 0000000180035128     libcpmt:syserror.obj
 0002:00001140       ??_C@_0L@EDOLMPAK@no?5message@ 0000000180035140     libcpmt:syserror.obj
 0002:00001150       ??_C@_0BD@EAMBFIDF@no?5protocol?5option@ 0000000180035150     libcpmt:syserror.obj
 0002:00001168       ??_C@_0BD@IJDJKDEA@no?5space?5on?5device@ 0000000180035168     libcpmt:syserror.obj
 0002:00001180       ??_C@_0BE@MKFDAFMP@no?5stream?5resources@ 0000000180035180     libcpmt:syserror.obj
 0002:00001198       ??_C@_0BK@IMCPHCBI@no?5such?5device?5or?5address@ 0000000180035198     libcpmt:syserror.obj
 0002:000011b8       ??_C@_0P@FDINDDOK@no?5such?5device@ 00000001800351b8     libcpmt:syserror.obj
 0002:000011c8       ??_C@_0BK@NDOCBPGE@no?5such?5file?5or?5directory@ 00000001800351c8     libcpmt:syserror.obj
 0002:000011e8       ??_C@_0BA@ENLPPKBN@no?5such?5process@ 00000001800351e8     libcpmt:syserror.obj
 0002:000011f8       ??_C@_0BA@DOCPFFJG@not?5a?5directory@ 00000001800351f8     libcpmt:syserror.obj
 0002:00001208       ??_C@_0N@POEIPGGF@not?5a?5socket@ 0000000180035208     libcpmt:syserror.obj
 0002:00001218       ??_C@_0N@LGAPMMPI@not?5a?5stream@ 0000000180035218     libcpmt:syserror.obj
 0002:00001228       ??_C@_0O@GLMIBBEG@not?5connected@ 0000000180035228     libcpmt:syserror.obj
 0002:00001238       ??_C@_0BC@ENOOLCNF@not?5enough?5memory@ 0000000180035238     libcpmt:syserror.obj
 0002:00001250       ??_C@_0O@NHEDABJP@not?5supported@ 0000000180035250     libcpmt:syserror.obj
 0002:00001260       ??_C@_0BD@MOLBPMEA@operation?5canceled@ 0000000180035260     libcpmt:syserror.obj
 0002:00001278       ??_C@_0BG@KDKHOPCO@operation?5in?5progress@ 0000000180035278     libcpmt:syserror.obj
 0002:00001290       ??_C@_0BI@OHIEJAAB@operation?5not?5permitted@ 0000000180035290     libcpmt:syserror.obj
 0002:000012a8       ??_C@_0BI@LNEGIFLN@operation?5not?5supported@ 00000001800352a8     libcpmt:syserror.obj
 0002:000012c0       ??_C@_0BG@OEMDKMEE@operation?5would?5block@ 00000001800352c0     libcpmt:syserror.obj
 0002:000012d8       ??_C@_0L@BLPOFLNJ@owner?5dead@ 00000001800352d8     libcpmt:syserror.obj
 0002:000012e8       ??_C@_0BC@CIJDGCDI@permission?5denied@ 00000001800352e8     libcpmt:syserror.obj
 0002:00001300       ??_C@_0P@FNPOCJBE@protocol?5error@ 0000000180035300     libcpmt:syserror.obj
 0002:00001310       ??_C@_0BH@JPPPLHJB@protocol?5not?5supported@ 0000000180035310     libcpmt:syserror.obj
 0002:00001328       ??_C@_0BG@EICBIHDP@read?5only?5file?5system@ 0000000180035328     libcpmt:syserror.obj
 0002:00001340       ??_C@_0BO@BJBOMOEJ@resource?5deadlock?5would?5occur@ 0000000180035340     libcpmt:syserror.obj
 0002:00001360       ??_C@_0BP@LKNGHENJ@resource?5unavailable?5try?5again@ 0000000180035360     libcpmt:syserror.obj
 0002:00001380       ??_C@_0BE@GOIPJJHG@result?5out?5of?5range@ 0000000180035380     libcpmt:syserror.obj
 0002:00001398       ??_C@_0BG@MPLKFPAE@state?5not?5recoverable@ 0000000180035398     libcpmt:syserror.obj
 0002:000013b0       ??_C@_0P@DIIFGFCG@stream?5timeout@ 00000001800353b0     libcpmt:syserror.obj
 0002:000013c0       ??_C@_0P@IPFDMIFL@text?5file?5busy@ 00000001800353c0     libcpmt:syserror.obj
 0002:000013d0       ??_C@_09KJPPMAOI@timed?5out@ 00000001800353d0     libcpmt:syserror.obj
 0002:000013e0       ??_C@_0BO@HACHBEKI@too?5many?5files?5open?5in?5system@ 00000001800353e0     libcpmt:syserror.obj
 0002:00001400       ??_C@_0BE@GHAFMPAH@too?5many?5files?5open@ 0000000180035400     libcpmt:syserror.obj
 0002:00001418       ??_C@_0P@HCOMKFCC@too?5many?5links@ 0000000180035418     libcpmt:syserror.obj
 0002:00001428       ??_C@_0BO@EFGOJEF@too?5many?5symbolic?5link?5levels@ 0000000180035428     libcpmt:syserror.obj
 0002:00001448       ??_C@_0BA@KGKGOOJA@value?5too?5large@ 0000000180035448     libcpmt:syserror.obj
 0002:00001458       ??_C@_0BE@MIEJDDNH@wrong?5protocol?5type@ 0000000180035458     libcpmt:syserror.obj
 0002:00001470       ??_C@_1BK@MGMFAEKH@?$AAk?$AAe?$AAr?$AAn?$AAe?$AAl?$AA3?$AA2?$AA?4?$AAd?$AAl?$AAl@ 0000000180035470     libcpmt:winapisupp.obj
 0002:00001490       ??_C@_08KNHFBNJ@FlsAlloc@  0000000180035490     libcpmt:winapisupp.obj
 0002:000014a0       ??_C@_07PEJMOBNF@FlsFree@  00000001800354a0     libcpmt:winapisupp.obj
 0002:000014a8       ??_C@_0M@GDNOONDI@FlsGetValue@ 00000001800354a8     libcpmt:winapisupp.obj
 0002:000014b8       ??_C@_0M@JCPCPOEF@FlsSetValue@ 00000001800354b8     libcpmt:winapisupp.obj
 0002:000014c8       ??_C@_0BM@HCFOFFN@InitializeCriticalSectionEx@ 00000001800354c8     libcpmt:winapisupp.obj
 0002:000014e8       ??_C@_0BE@GPLMMCMH@InitOnceExecuteOnce@ 00000001800354e8     libcpmt:winapisupp.obj
 0002:00001500       ??_C@_0P@DLHPPCNH@CreateEventExW@ 0000000180035500     libcpmt:winapisupp.obj
 0002:00001510       ??_C@_0BB@MEFPJLHN@CreateSemaphoreW@ 0000000180035510     libcpmt:winapisupp.obj
 0002:00001528       ??_C@_0BD@KIEEOEEH@CreateSemaphoreExW@ 0000000180035528     libcpmt:winapisupp.obj
 0002:00001540       ??_C@_0BG@OGFAJCKC@CreateThreadpoolTimer@ 0000000180035540     libcpmt:winapisupp.obj
 0002:00001558       ??_C@_0BD@LPLEMMDI@SetThreadpoolTimer@ 0000000180035558     libcpmt:winapisupp.obj
 0002:00001570       ??_C@_0CA@FMNJENH@WaitForThreadpoolTimerCallbacks@ 0000000180035570     libcpmt:winapisupp.obj
 0002:00001590       ??_C@_0BF@DCFCCNOC@CloseThreadpoolTimer@ 0000000180035590     libcpmt:winapisupp.obj
 0002:000015a8       ??_C@_0BF@FLABGKKM@CreateThreadpoolWait@ 00000001800355a8     libcpmt:winapisupp.obj
 0002:000015c0       ??_C@_0BC@MGCOHNA@SetThreadpoolWait@ 00000001800355c0     libcpmt:winapisupp.obj
 0002:000015d8       ??_C@_0BE@OCIOMIMP@CloseThreadpoolWait@ 00000001800355d8     libcpmt:winapisupp.obj
 0002:000015f0       ??_C@_0BJ@LKGHFHBO@FlushProcessWriteBuffers@ 00000001800355f0     libcpmt:winapisupp.obj
 0002:00001610       ??_C@_0BP@KALKKPMO@FreeLibraryWhenCallbackReturns@ 0000000180035610     libcpmt:winapisupp.obj
 0002:00001630       ??_C@_0BK@DFNBACLA@GetCurrentProcessorNumber@ 0000000180035630     libcpmt:winapisupp.obj
 0002:00001650       ??_C@_0BE@FKKLLFLM@CreateSymbolicLinkW@ 0000000180035650     libcpmt:winapisupp.obj
 0002:00001668       ??_C@_0BE@JOGNEJCI@GetCurrentPackageId@ 0000000180035668     libcpmt:winapisupp.obj
 0002:00001680       ??_C@_0P@CDHHOHKP@GetTickCount64@ 0000000180035680     libcpmt:winapisupp.obj
 0002:00001690       ??_C@_0BN@NEEHBBPO@GetFileInformationByHandleEx@ 0000000180035690     libcpmt:winapisupp.obj
 0002:000016b0       ??_C@_0BL@KBBHGKCM@SetFileInformationByHandle@ 00000001800356b0     libcpmt:winapisupp.obj
 0002:000016d0       ??_C@_0BP@FPNJPEJC@GetSystemTimePreciseAsFileTime@ 00000001800356d0     libcpmt:winapisupp.obj
 0002:000016f0       ??_C@_0BM@HLJJNPAH@InitializeConditionVariable@ 00000001800356f0     libcpmt:winapisupp.obj
 0002:00001710       ??_C@_0BG@BFNILBLN@WakeConditionVariable@ 0000000180035710     libcpmt:winapisupp.obj
 0002:00001728       ??_C@_0BJ@PGPPEPCC@WakeAllConditionVariable@ 0000000180035728     libcpmt:winapisupp.obj
 0002:00001748       ??_C@_0BJ@JEBJOJFJ@SleepConditionVariableCS@ 0000000180035748     libcpmt:winapisupp.obj
 0002:00001768       ??_C@_0BC@MMLHEBPB@InitializeSRWLock@ 0000000180035768     libcpmt:winapisupp.obj
 0002:00001780       ??_C@_0BI@OMNLIJDB@AcquireSRWLockExclusive@ 0000000180035780     libcpmt:winapisupp.obj
 0002:00001798       ??_C@_0BL@OGHFEMNA@TryAcquireSRWLockExclusive@ 0000000180035798     libcpmt:winapisupp.obj
 0002:000017b8       ??_C@_0BI@HMIEPCNJ@ReleaseSRWLockExclusive@ 00000001800357b8     libcpmt:winapisupp.obj
 0002:000017d0       ??_C@_0BK@LGACAGIC@SleepConditionVariableSRW@ 00000001800357d0     libcpmt:winapisupp.obj
 0002:000017f0       ??_C@_0BF@GGPHFPJA@CreateThreadpoolWork@ 00000001800357f0     libcpmt:winapisupp.obj
 0002:00001808       ??_C@_0BF@NHDAIMMO@SubmitThreadpoolWork@ 0000000180035808     libcpmt:winapisupp.obj
 0002:00001820       ??_C@_0BE@NPHIPNPD@CloseThreadpoolWork@ 0000000180035820     libcpmt:winapisupp.obj
 0002:00001838       ??_C@_0BA@IHGNDAEB@CompareStringEx@ 0000000180035838     libcpmt:winapisupp.obj
 0002:00001848       ??_C@_0BA@ONOKGCMP@GetLocaleInfoEx@ 0000000180035848     libcpmt:winapisupp.obj
 0002:00001858       ??_C@_0O@KKBNKAPF@LCMapStringEx@ 0000000180035858     libcpmt:winapisupp.obj
 0002:00001870       ??_7type_info@@6B@         0000000180035870     LIBCMT:std_type_info_static.obj
 0002:00001878       _pRawDllMain               0000000180035878     LIBCMT:dll_dllmain.obj
 0002:00001878       _pDefaultRawDllMain        0000000180035878     LIBCMT:dll_dllmain.obj
 0002:00001898       ??_7bad_array_new_length@std@@6B@ 0000000180035898     LIBCMT:throw_bad_alloc.obj
 0002:000018a8       ??_C@_0BF@KINCDENJ@bad?5array?5new?5length@ 00000001800358a8     LIBCMT:throw_bad_alloc.obj
 0002:000018c0       __xmm@ffffffffffffffffffffffffffffffff 00000001800358c0     LIBCMT:utility.obj
 0002:00001968       _pDestructExceptionObject  0000000180035968     libvcruntime:ehhelpers.obj
 0002:000019b8       ??_7bad_exception@std@@6B@ 00000001800359b8     libvcruntime:frame.obj
 0002:000019c8       ??_C@_0O@DPKOEFFH@bad?5exception@ 00000001800359c8     libvcruntime:frame.obj
 0002:00001d20       ??_C@_08EHJDFFNH@__based?$CI@ 0000000180035d20     libvcruntime:undname.obj
 0002:00001d30       ??_C@_07KOLFKCDI@__cdecl@  0000000180035d30     libvcruntime:undname.obj
 0002:00001d38       ??_C@_08GHMPAG@__pascal@   0000000180035d38     libvcruntime:undname.obj
 0002:00001d48       ??_C@_09IFJBGAPI@__stdcall@ 0000000180035d48     libvcruntime:undname.obj
 0002:00001d58       ??_C@_0L@NPHFGOKO@__thiscall@ 0000000180035d58     libvcruntime:undname.obj
 0002:00001d68       ??_C@_0L@JMKHOMEK@__fastcall@ 0000000180035d68     libvcruntime:undname.obj
 0002:00001d78       ??_C@_0N@BCKKPABJ@__vectorcall@ 0000000180035d78     libvcruntime:undname.obj
 0002:00001d88       ??_C@_09HIJEGCPM@__clrcall@ 0000000180035d88     libvcruntime:undname.obj
 0002:00001d94       ??_C@_06GHPCKEAG@__eabi@   0000000180035d94     libvcruntime:undname.obj
 0002:00001da0       ??_C@_09IOPIDJLG@__swift_1@ 0000000180035da0     libvcruntime:undname.obj
 0002:00001db0       ??_C@_09KFNFGKHF@__swift_2@ 0000000180035db0     libvcruntime:undname.obj
 0002:00001dc0       ??_C@_07JOMMBBKO@__ptr64@  0000000180035dc0     libvcruntime:undname.obj
 0002:00001dc8       ??_C@_0L@PILCLIHE@__restrict@ 0000000180035dc8     libvcruntime:undname.obj
 0002:00001dd8       ??_C@_0M@GFIIJFMG@__unaligned@ 0000000180035dd8     libvcruntime:undname.obj
 0002:00001de8       ??_C@_09DHDLOLLB@restrict?$CI@ 0000000180035de8     libvcruntime:undname.obj
 0002:00001df2       ??_C@_00CNPNBAHC@@         0000000180035df2     libvcruntime:undname.obj
 0002:00001df4       ??_C@_04NIHEBCM@?5new@     0000000180035df4     libvcruntime:undname.obj
 0002:00001e00       ??_C@_07FPCDHGMM@?5delete@ 0000000180035e00     libvcruntime:undname.obj
 0002:00001e08       ??_C@_01NEMOKFLO@?$DN@     0000000180035e08     libvcruntime:undname.obj
 0002:00001e0c       ??_C@_02GPIOPFAK@?$DO?$DO@ 0000000180035e0c     libvcruntime:undname.obj
 0002:00001e10       ??_C@_02FODMEDOG@?$DM?$DM@ 0000000180035e10     libvcruntime:undname.obj
 0002:00001e14       ??_C@_01DCLJPIOD@?$CB@     0000000180035e14     libvcruntime:undname.obj
 0002:00001e18       ??_C@_02EGOFBIJA@?$DN?$DN@ 0000000180035e18     libvcruntime:undname.obj
 0002:00001e1c       ??_C@_02FDNJECIE@?$CB?$DN@ 0000000180035e1c     libvcruntime:undname.obj
 0002:00001e20       ??_C@_02GPECMEKF@?$FL?$FN@ 0000000180035e20     libvcruntime:undname.obj
 0002:00001e28       ??_C@_08LHJFAFGD@operator@ 0000000180035e28     libvcruntime:undname.obj
 0002:00001e34       ??_C@_02HBOOOICD@?9?$DO@   0000000180035e34     libvcruntime:undname.obj
 0002:00001e38       ??_C@_01NBENCBCI@?$CK@     0000000180035e38     libvcruntime:undname.obj
 0002:00001e3c       ??_C@_02ECNGHCIF@?$CL?$CL@ 0000000180035e3c     libvcruntime:undname.obj
 0002:00001e40       ??_C@_02BAABKJLB@?9?9@     0000000180035e40     libvcruntime:undname.obj
 0002:00001e44       ??_C@_01JOAMLHOP@?9@       0000000180035e44     libvcruntime:undname.obj
 0002:00001e48       ??_C@_01MIFGBAGJ@?$CL@     0000000180035e48     libvcruntime:undname.obj
 0002:00001e4c       ??_C@_01HNPIGOCE@?$CG@     0000000180035e4c     libvcruntime:undname.obj
 0002:00001e50       ??_C@_03MNHNFDLC@?9?$DO?$CK@ 0000000180035e50     libvcruntime:undname.obj
 0002:00001e54       ??_C@_01KMDKNFGN@?1@       0000000180035e54     libvcruntime:undname.obj
 0002:00001e58       ??_C@_01FGNFDNOH@?$CF@     0000000180035e58     libvcruntime:undname.obj
 0002:00001e5c       ??_C@_01MNNFJEPP@?$DM@     0000000180035e5c     libvcruntime:undname.obj
 0002:00001e60       ??_C@_02EHCHHCKH@?$DM?$DN@ 0000000180035e60     libvcruntime:undname.obj
 0002:00001e64       ??_C@_01PPODPGHN@?$DO@     0000000180035e64     libvcruntime:undname.obj
 0002:00001e68       ??_C@_02EEKDKGMJ@?$DO?$DN@ 0000000180035e68     libvcruntime:undname.obj
 0002:00001e6c       ??_C@_01IHBHIGKO@?0@       0000000180035e6c     libvcruntime:undname.obj
 0002:00001e70       ??_C@_02HCKGKOFO@?$CI?$CJ@ 0000000180035e70     libvcruntime:undname.obj
 0002:00001e74       ??_C@_01PJKLJHI@?$HO@      0000000180035e74     libvcruntime:undname.obj
 0002:00001e78       ??_C@_01JKBOJNNK@?$FO@     0000000180035e78     libvcruntime:undname.obj
 0002:00001e7c       ??_C@_01DNKMNLPK@?$HM@     0000000180035e7c     libvcruntime:undname.obj
 0002:00001e80       ??_C@_02PPKAJPJL@?$CG?$CG@ 0000000180035e80     libvcruntime:undname.obj
 0002:00001e84       ??_C@_02NONPIBCD@?$HM?$HM@ 0000000180035e84     libvcruntime:undname.obj
 0002:00001e88       ??_C@_02FPIMKNGF@?$CK?$DN@ 0000000180035e88     libvcruntime:undname.obj
 0002:00001e8c       ??_C@_02FOEOMHFC@?$CL?$DN@ 0000000180035e8c     libvcruntime:undname.obj
 0002:00001e90       ??_C@_02FKMDLLOA@?9?$DN@   0000000180035e90     libvcruntime:undname.obj
 0002:00001e94       ??_C@_02FJEHGPIO@?1?$DN@   0000000180035e94     libvcruntime:undname.obj
 0002:00001e98       ??_C@_02FENAOKFI@?$CF?$DN@ 0000000180035e98     libvcruntime:undname.obj
 0002:00001e9c       ??_C@_03IKFCCPFF@?$DO?$DO?$DN@ 0000000180035e9c     libvcruntime:undname.obj
 0002:00001ea0       ??_C@_03CDNPDDLA@?$DM?$DM?$DN@ 0000000180035ea0     libvcruntime:undname.obj
 0002:00001ea4       ??_C@_02FGJGFEAB@?$CG?$DN@ 0000000180035ea4     libvcruntime:undname.obj
 0002:00001ea8       ??_C@_02DHLNPPGH@?$HM?$DN@ 0000000180035ea8     libvcruntime:undname.obj
 0002:00001eac       ??_C@_02MHEGNOJ@?$FO?$DN@  0000000180035eac     libvcruntime:undname.obj
 0002:00001eb0       ??_C@_09IFPLHPGF@?$GAvftable?8@ 0000000180035eb0     libvcruntime:undname.obj
 0002:00001ec0       ??_C@_09BLBHBJP@?$GAvbtable?8@ 0000000180035ec0     libvcruntime:undname.obj
 0002:00001ed0       ??_C@_07FEEIOKP@?$GAvcall?8@ 0000000180035ed0     libvcruntime:undname.obj
 0002:00001ed8       ??_C@_08LLFFHHDJ@?$GAtypeof?8@ 0000000180035ed8     libvcruntime:undname.obj
 0002:00001ee8       ??_C@_0BF@KDPPACIK@?$GAlocal?5static?5guard?8@ 0000000180035ee8     libvcruntime:undname.obj
 0002:00001f00       ??_C@_08OBABFOLI@?$GAstring?8@ 0000000180035f00     libvcruntime:undname.obj
 0002:00001f10       ??_C@_0BD@JDLKDPAB@?$GAvbase?5destructor?8@ 0000000180035f10     libvcruntime:undname.obj
 0002:00001f28       ??_C@_0BN@DEGPLNFK@?$GAvector?5deleting?5destructor?8@ 0000000180035f28     libvcruntime:undname.obj
 0002:00001f48       ??_C@_0BO@OBMKPJIG@?$GAdefault?5constructor?5closure?8@ 0000000180035f48     libvcruntime:undname.obj
 0002:00001f68       ??_C@_0BN@IMDCHIKM@?$GAscalar?5deleting?5destructor?8@ 0000000180035f68     libvcruntime:undname.obj
 0002:00001f88       ??_C@_0BO@PFGOCPJJ@?$GAvector?5constructor?5iterator?8@ 0000000180035f88     libvcruntime:undname.obj
 0002:00001fa8       ??_C@_0BN@LFPFMEDL@?$GAvector?5destructor?5iterator?8@ 0000000180035fa8     libvcruntime:undname.obj
 0002:00001fc8       ??_C@_0CE@IKBNEHA@?$GAvector?5vbase?5constructor?5itera@ 0000000180035fc8     libvcruntime:undname.obj
 0002:00001ff0       ??_C@_0BL@NILFHHPC@?$GAvirtual?5displacement?5map?8@ 0000000180035ff0     libvcruntime:undname.obj
 0002:00002010       ??_C@_0CB@JONCMFFK@?$GAeh?5vector?5constructor?5iterator@ 0000000180036010     libvcruntime:undname.obj
 0002:00002038       ??_C@_0CA@GCEOPDGL@?$GAeh?5vector?5destructor?5iterator?8@ 0000000180036038     libvcruntime:undname.obj
 0002:00002058       ??_C@_0CH@OOJPLCPH@?$GAeh?5vector?5vbase?5constructor?5it@ 0000000180036058     libvcruntime:undname.obj
 0002:00002080       ??_C@_0BL@LLKPOHJI@?$GAcopy?5constructor?5closure?8@ 0000000180036080     libvcruntime:undname.obj
 0002:000020a0       ??_C@_0BA@KBCDOMBN@?$GAudt?5returning?8@ 00000001800360a0     libvcruntime:undname.obj
 0002:000020b0       ??_C@_03KLGMFNMG@?$GAEH@   00000001800360b0     libvcruntime:undname.obj
 0002:000020b4       ??_C@_05KHLCHHI@?$GARTTI@  00000001800360b4     libvcruntime:undname.obj
 0002:000020c0       ??_C@_0BA@KKLDJDLB@?$GAlocal?5vftable?8@ 00000001800360c0     libvcruntime:undname.obj
 0002:000020d0       ??_C@_0CE@IIHCMGGL@?$GAlocal?5vftable?5constructor?5clos@ 00000001800360d0     libvcruntime:undname.obj
 0002:000020f4       ??_C@_06FHBGPFGH@?5new?$FL?$FN@ 00000001800360f4     libvcruntime:undname.obj
 0002:00002100       ??_C@_09LBNFPBCA@?5delete?$FL?$FN@ 0000000180036100     libvcruntime:undname.obj
 0002:00002110       ??_C@_0P@HJKNJFNN@?$GAomni?5callsig?8@ 0000000180036110     libvcruntime:undname.obj
 0002:00002120       ??_C@_0BL@CNOONJFP@?$GAplacement?5delete?5closure?8@ 0000000180036120     libvcruntime:undname.obj
 0002:00002140       ??_C@_0BN@CKNJLHMB@?$GAplacement?5delete?$FL?$FN?5closure?8@ 0000000180036140     libvcruntime:undname.obj
 0002:00002160       ??_C@_0CG@CFDHKGGD@?$GAmanaged?5vector?5constructor?5ite@ 0000000180036160     libvcruntime:undname.obj
 0002:00002188       ??_C@_0CF@IMGKMJNO@?$GAmanaged?5vector?5destructor?5iter@ 0000000180036188     libvcruntime:undname.obj
 0002:000021b0       ??_C@_0CG@HLDDJMAG@?$GAeh?5vector?5copy?5constructor?5ite@ 00000001800361b0     libvcruntime:undname.obj
 0002:000021d8       ??_C@_0CM@FCBBDIGB@?$GAeh?5vector?5vbase?5copy?5construct@ 00000001800361d8     libvcruntime:undname.obj
 0002:00002208       ??_C@_0BL@CLIPGLGB@?$GAdynamic?5initializer?5for?5?8@ 0000000180036208     libvcruntime:undname.obj
 0002:00002228       ??_C@_0CB@PDBIFEP@?$GAdynamic?5atexit?5destructor?5for?5@ 0000000180036228     libvcruntime:undname.obj
 0002:00002250       ??_C@_0CD@CGAJBKEJ@?$GAvector?5copy?5constructor?5iterat@ 0000000180036250     libvcruntime:undname.obj
 0002:00002278       ??_C@_0CJ@GJELGAMM@?$GAvector?5vbase?5copy?5constructor?5@ 0000000180036278     libvcruntime:undname.obj
 0002:000022a8       ??_C@_0CL@FGIJHLCE@?$GAmanaged?5vector?5copy?5constructo@ 00000001800362a8     libvcruntime:undname.obj
 0002:000022d8       ??_C@_0BM@PMGGMLDN@?$GAlocal?5static?5thread?5guard?8@ 00000001800362d8     libvcruntime:undname.obj
 0002:000022f8       ??_C@_0N@BDNMDMOL@operator?5?$CC?$CC?5@ 00000001800362f8     libvcruntime:undname.obj
 0002:00002308       ??_C@_0BC@GGEBGALA@operator?5co_await@ 0000000180036308     libvcruntime:undname.obj
 0002:00002320       ??_C@_0M@GAAIMMOH@operator?$DM?$DN?$DO@ 0000000180036320     libvcruntime:undname.obj
 0002:00002330       ??_C@_0BC@DAFEJGAK@?5Type?5Descriptor?8@ 0000000180036330     libvcruntime:undname.obj
 0002:00002348       ??_C@_0BM@LDKODKLH@?5Base?5Class?5Descriptor?5at?5?$CI@ 0000000180036348     libvcruntime:undname.obj
 0002:00002368       ??_C@_0BD@LGICGFMM@?5Base?5Class?5Array?8@ 0000000180036368     libvcruntime:undname.obj
 0002:00002380       ??_C@_0BN@MECKDCOJ@?5Class?5Hierarchy?5Descriptor?8@ 0000000180036380     libvcruntime:undname.obj
 0002:000023a0       ??_C@_0BK@CFCOFLF@?5Complete?5Object?5Locator?8@ 00000001800363a0     libvcruntime:undname.obj
 0002:000023d8       ??_C@_1DM@KHCHBNEB@?$AAa?$AAp?$AAi?$AA?9?$AAm?$AAs?$AA?9?$AAw?$AAi?$AAn?$AA?9?$AAc?$AAo?$AAr?$AAe@ 00000001800363d8     libvcruntime:winapi_downlevel.obj
 0002:00002418       ??_C@_1DK@LPPGFMPP@?$AAa?$AAp?$AAi?$AA?9?$AAm?$AAs?$AA?9?$AAw?$AAi?$AAn?$AA?9?$AAc?$AAo?$AAr?$AAe@ 0000000180036418     libvcruntime:winapi_downlevel.obj
 0002:00002458       ??_C@_1BC@GDMECMAK@?$AAk?$AAe?$AAr?$AAn?$AAe?$AAl?$AA3?$AA2@ 0000000180036458     libvcruntime:winapi_downlevel.obj
 0002:00002470       ??_C@_1BA@PFFKHIOG@?$AAa?$AAp?$AAi?$AA?9?$AAm?$AAs?$AA?9@ 0000000180036470     libvcruntime:winapi_downlevel.obj
 0002:000024b0       __acrt_exception_action_table 00000001800364b0     libucrt:exception_filter.obj
 0002:00002570       __acrt_signal_action_table_count 0000000180036570     libucrt:exception_filter.obj
 0002:00002578       __acrt_signal_action_first_fpe_index 0000000180036578     libucrt:exception_filter.obj
 0002:00002580       __acrt_signal_action_fpe_count 0000000180036580     libucrt:exception_filter.obj
 0002:00002588       ??_C@_1BI@BGOHAHKC@?$AAm?$AAs?$AAc?$AAo?$AAr?$AAe?$AAe?$AA?4?$AAd?$AAl?$AAl@ 0000000180036588     libucrt:exit.obj
 0002:000025a0       ??_C@_0P@MIGLKIOC@CorExitProcess@ 00000001800365a0     libucrt:exit.obj
 0002:00002820       __lc_time_c                0000000180036820     libucrt:nlsdata.obj
 0002:00002ae0       ??_C@_03KOEHGMDN@Sun@      0000000180036ae0     libucrt:nlsdata.obj
 0002:00002ae4       ??_C@_03PDAGKDH@Mon@       0000000180036ae4     libucrt:nlsdata.obj
 0002:00002ae8       ??_C@_03NAGEINEP@Tue@      0000000180036ae8     libucrt:nlsdata.obj
 0002:00002aec       ??_C@_03MHOMLAJA@Wed@      0000000180036aec     libucrt:nlsdata.obj
 0002:00002af0       ??_C@_03IOFIKPDN@Thu@      0000000180036af0     libucrt:nlsdata.obj
 0002:00002af4       ??_C@_03IDIOELNC@Fri@      0000000180036af4     libucrt:nlsdata.obj
 0002:00002af8       ??_C@_03FEFJNEK@Sat@       0000000180036af8     libucrt:nlsdata.obj
 0002:00002afc       ??_C@_06OOPIFAJ@Sunday@    0000000180036afc     libucrt:nlsdata.obj
 0002:00002b04       ??_C@_06JLEDEDGH@Monday@   0000000180036b04     libucrt:nlsdata.obj
 0002:00002b10       ??_C@_07BAAGCFCM@Tuesday@  0000000180036b10     libucrt:nlsdata.obj
 0002:00002b18       ??_C@_09DLIGFAKA@Wednesday@ 0000000180036b18     libucrt:nlsdata.obj
 0002:00002b28       ??_C@_08HACCIKIA@Thursday@ 0000000180036b28     libucrt:nlsdata.obj
 0002:00002b34       ??_C@_06JECMNKMI@Friday@   0000000180036b34     libucrt:nlsdata.obj
 0002:00002b40       ??_C@_08INBOOONO@Saturday@ 0000000180036b40     libucrt:nlsdata.obj
 0002:00002b4c       ??_C@_03JIHJHPIE@Jan@      0000000180036b4c     libucrt:nlsdata.obj
 0002:00002b50       ??_C@_03HJBDCHOM@Feb@      0000000180036b50     libucrt:nlsdata.obj
 0002:00002b54       ??_C@_03ODNJBKGA@Mar@      0000000180036b54     libucrt:nlsdata.obj
 0002:00002b58       ??_C@_03LEOLGMJP@Apr@      0000000180036b58     libucrt:nlsdata.obj
 0002:00002b5c       ??_C@_03CNMDKL@May@        0000000180036b5c     libucrt:nlsdata.obj
 0002:00002b60       ??_C@_03IDFGHECI@Jun@      0000000180036b60     libucrt:nlsdata.obj
 0002:00002b64       ??_C@_03LBGABGKK@Jul@      0000000180036b64     libucrt:nlsdata.obj
 0002:00002b68       ??_C@_03IFJFEIGA@Aug@      0000000180036b68     libucrt:nlsdata.obj
 0002:00002b6c       ??_C@_03GGCAPAJC@Sep@      0000000180036b6c     libucrt:nlsdata.obj
 0002:00002b70       ??_C@_03BMAOKBAD@Oct@      0000000180036b70     libucrt:nlsdata.obj
 0002:00002b74       ??_C@_03JPJOFNIA@Nov@      0000000180036b74     libucrt:nlsdata.obj
 0002:00002b78       ??_C@_03MKABNOCG@Dec@      0000000180036b78     libucrt:nlsdata.obj
 0002:00002b80       ??_C@_07CGJPFGJA@January@  0000000180036b80     libucrt:nlsdata.obj
 0002:00002b88       ??_C@_08GNJGEPFN@February@ 0000000180036b88     libucrt:nlsdata.obj
 0002:00002b94       ??_C@_05HPCKOFNC@March@    0000000180036b94     libucrt:nlsdata.obj
 0002:00002b9c       ??_C@_05DMJDNLEJ@April@    0000000180036b9c     libucrt:nlsdata.obj
 0002:00002ba4       ??_C@_04CNLMGBGM@June@     0000000180036ba4     libucrt:nlsdata.obj
 0002:00002bac       ??_C@_04MIEPOIFP@July@     0000000180036bac     libucrt:nlsdata.obj
 0002:00002bb4       ??_C@_06LBBHFDDG@August@   0000000180036bb4     libucrt:nlsdata.obj
 0002:00002bc0       ??_C@_09BHHEALKD@September@ 0000000180036bc0     libucrt:nlsdata.obj
 0002:00002bd0       ??_C@_07JJNFCEND@October@  0000000180036bd0     libucrt:nlsdata.obj
 0002:00002bd8       ??_C@_08HCHEGEOA@November@ 0000000180036bd8     libucrt:nlsdata.obj
 0002:00002be8       ??_C@_08EDHMEBNP@December@ 0000000180036be8     libucrt:nlsdata.obj
 0002:00002bf4       ??_C@_02DEDBPAFC@AM@       0000000180036bf4     libucrt:nlsdata.obj
 0002:00002bf8       ??_C@_02CJNFDJBF@PM@       0000000180036bf8     libucrt:nlsdata.obj
 0002:00002c00       ??_C@_08BPBNCDIB@MM?1dd?1yy@ 0000000180036c00     libucrt:nlsdata.obj
 0002:00002c10       ??_C@_0BE@CKGJFCPC@dddd?0?5MMMM?5dd?0?5yyyy@ 0000000180036c10     libucrt:nlsdata.obj
 0002:00002c28       ??_C@_08JCCMCCIL@HH?3mm?3ss@ 0000000180036c28     libucrt:nlsdata.obj
 0002:00002c38       ??_C@_17MBGCMIPB@?$AAS?$AAu?$AAn@ 0000000180036c38     libucrt:nlsdata.obj
 0002:00002c40       ??_C@_17KBOMKBF@?$AAM?$AAo?$AAn@ 0000000180036c40     libucrt:nlsdata.obj
 0002:00002c48       ??_C@_17BMKGEGOJ@?$AAT?$AAu?$AAe@ 0000000180036c48     libucrt:nlsdata.obj
 0002:00002c50       ??_C@_17CJEDCEPE@?$AAW?$AAe?$AAd@ 0000000180036c50     libucrt:nlsdata.obj
 0002:00002c58       ??_C@_17PDPHAADD@?$AAT?$AAh?$AAu@ 0000000180036c58     libucrt:nlsdata.obj
 0002:00002c60       ??_C@_17HFOLPPLP@?$AAF?$AAr?$AAi@ 0000000180036c60     libucrt:nlsdata.obj
 0002:00002c68       ??_C@_17GGIBDPIH@?$AAS?$AAa?$AAt@ 0000000180036c68     libucrt:nlsdata.obj
 0002:00002c70       ??_C@_1O@IHNHDHPB@?$AAS?$AAu?$AAn?$AAd?$AAa?$AAy@ 0000000180036c70     libucrt:nlsdata.obj
 0002:00002c80       ??_C@_1O@MMNBFLIA@?$AAM?$AAo?$AAn?$AAd?$AAa?$AAy@ 0000000180036c80     libucrt:nlsdata.obj
 0002:00002c90       ??_C@_1BA@ENFBFFEK@?$AAT?$AAu?$AAe?$AAs?$AAd?$AAa?$AAy@ 0000000180036c90     libucrt:nlsdata.obj
 0002:00002ca0       ??_C@_1BE@EBOGMDOH@?$AAW?$AAe?$AAd?$AAn?$AAe?$AAs?$AAd?$AAa?$AAy@ 0000000180036ca0     libucrt:nlsdata.obj
 0002:00002cb8       ??_C@_1BC@HHMNLIHE@?$AAT?$AAh?$AAu?$AAr?$AAs?$AAd?$AAa?$AAy@ 0000000180036cb8     libucrt:nlsdata.obj
 0002:00002cd0       ??_C@_1O@PDICJHAG@?$AAF?$AAr?$AAi?$AAd?$AAa?$AAy@ 0000000180036cd0     libucrt:nlsdata.obj
 0002:00002ce0       ??_C@_1BC@ENMNNPAJ@?$AAS?$AAa?$AAt?$AAu?$AAr?$AAd?$AAa?$AAy@ 0000000180036ce0     libucrt:nlsdata.obj
 0002:00002cf8       ??_C@_17DKNBKCHM@?$AAJ?$AAa?$AAn@ 0000000180036cf8     libucrt:nlsdata.obj
 0002:00002d00       ??_C@_17LMDJEKJN@?$AAF?$AAe?$AAb@ 0000000180036d00     libucrt:nlsdata.obj
 0002:00002d08       ??_C@_17CKNLEDEC@?$AAM?$AAa?$AAr@ 0000000180036d08     libucrt:nlsdata.obj
 0002:00002d10       ??_C@_17LFPOIHDD@?$AAA?$AAp?$AAr@ 0000000180036d10     libucrt:nlsdata.obj
 0002:00002d18       ??_C@_17PNNKMEED@?$AAM?$AAa?$AAy@ 0000000180036d18     libucrt:nlsdata.obj
 0002:00002d20       ??_C@_17KCJGOCPB@?$AAJ?$AAu?$AAn@ 0000000180036d20     libucrt:nlsdata.obj
 0002:00002d28       ??_C@_17IJPCKHK@?$AAJ?$AAu?$AAl@ 0000000180036d28     libucrt:nlsdata.obj
 0002:00002d30       ??_C@_17ICPELBCN@?$AAA?$AAu?$AAg@ 0000000180036d30     libucrt:nlsdata.obj
 0002:00002d38       ??_C@_17HCHCOKMG@?$AAS?$AAe?$AAp@ 0000000180036d38     libucrt:nlsdata.obj
 0002:00002d40       ??_C@_17FNLKOI@?$AAO?$AAc?$AAt@ 0000000180036d40     libucrt:nlsdata.obj
 0002:00002d48       ??_C@_17BBDMLCIG@?$AAN?$AAo?$AAv@ 0000000180036d48     libucrt:nlsdata.obj
 0002:00002d50       ??_C@_17EGKACKIF@?$AAD?$AAe?$AAc@ 0000000180036d50     libucrt:nlsdata.obj
 0002:00002d58       ??_C@_1BA@EFMEIEBA@?$AAJ?$AAa?$AAn?$AAu?$AAa?$AAr?$AAy@ 0000000180036d58     libucrt:nlsdata.obj
 0002:00002d68       ??_C@_1BC@JGDDFFAM@?$AAF?$AAe?$AAb?$AAr?$AAu?$AAa?$AAr?$AAy@ 0000000180036d68     libucrt:nlsdata.obj
 0002:00002d80       ??_C@_1M@IKEENEDF@?$AAM?$AAa?$AAr?$AAc?$AAh@ 0000000180036d80     libucrt:nlsdata.obj
 0002:00002d90       ??_C@_1M@GJNLMHFD@?$AAA?$AAp?$AAr?$AAi?$AAl@ 0000000180036d90     libucrt:nlsdata.obj
 0002:00002da0       ??_C@_19EPFLPGAP@?$AAJ?$AAu?$AAn?$AAe@ 0000000180036da0     libucrt:nlsdata.obj
 0002:00002db0       ??_C@_19BIFMLPCD@?$AAJ?$AAu?$AAl?$AAy@ 0000000180036db0     libucrt:nlsdata.obj
 0002:00002dc0       ??_C@_1O@PAHLKOAC@?$AAA?$AAu?$AAg?$AAu?$AAs?$AAt@ 0000000180036dc0     libucrt:nlsdata.obj
 0002:00002dd0       ??_C@_1BE@DKAAMBJL@?$AAS?$AAe?$AAp?$AAt?$AAe?$AAm?$AAb?$AAe?$AAr@ 0000000180036dd0     libucrt:nlsdata.obj
 0002:00002de8       ??_C@_1BA@EPANDLNG@?$AAO?$AAc?$AAt?$AAo?$AAb?$AAe?$AAr@ 0000000180036de8     libucrt:nlsdata.obj
 0002:00002df8       ??_C@_1BC@BGLIFPF@?$AAN?$AAo?$AAv?$AAe?$AAm?$AAb?$AAe?$AAr@ 0000000180036df8     libucrt:nlsdata.obj
 0002:00002e10       ??_C@_1BC@FEMKIFH@?$AAD?$AAe?$AAc?$AAe?$AAm?$AAb?$AAe?$AAr@ 0000000180036e10     libucrt:nlsdata.obj
 0002:00002e24       ??_C@_15ODEHAHHF@?$AAA?$AAM@ 0000000180036e24     libucrt:nlsdata.obj
 0002:00002e2c       ??_C@_15CLMNNGEL@?$AAP?$AAM@ 0000000180036e2c     libucrt:nlsdata.obj
 0002:00002e38       ??_C@_1BC@IEBCMHCM@?$AAM?$AAM?$AA?1?$AAd?$AAd?$AA?1?$AAy?$AAy@ 0000000180036e38     libucrt:nlsdata.obj
 0002:00002e50       ??_C@_1CI@KNAKOEBC@?$AAd?$AAd?$AAd?$AAd?$AA?0?$AA?5?$AAM?$AAM?$AAM?$AAM?$AA?5?$AAd?$AAd?$AA?0?$AA?5@ 0000000180036e50     libucrt:nlsdata.obj
 0002:00002e78       ??_C@_1BC@GDGBMEMK@?$AAH?$AAH?$AA?3?$AAm?$AAm?$AA?3?$AAs?$AAs@ 0000000180036e78     libucrt:nlsdata.obj
 0002:00002e90       ??_C@_1M@BMHNFIME@?$AAe?$AAn?$AA?9?$AAU?$AAS@ 0000000180036e90     libucrt:nlsdata.obj
 0002:00002ec0       ??_C@_1M@HPNHIDJI@?$AAj?$AAa?$AA?9?$AAJ?$AAP@ 0000000180036ec0     libucrt:mbctype.obj
 0002:00002ed0       ??_C@_1M@BIBDDEMK@?$AAz?$AAh?$AA?9?$AAC?$AAN@ 0000000180036ed0     libucrt:mbctype.obj
 0002:00002ee0       ??_C@_1M@JLOOOEGK@?$AAk?$AAo?$AA?9?$AAK?$AAR@ 0000000180036ee0     libucrt:mbctype.obj
 0002:00002ef0       ??_C@_1M@CLNBBOPM@?$AAz?$AAh?$AA?9?$AAT?$AAW@ 0000000180036ef0     libucrt:mbctype.obj
 0002:00002fa0       ??_C@_1EA@JGEFHKEI@?$AAa?$AAp?$AAi?$AA?9?$AAm?$AAs?$AA?9?$AAw?$AAi?$AAn?$AA?9?$AAc?$AAo?$AAr?$AAe@ 0000000180036fa0     libucrt:winapi_thunks.obj
 0002:00002fe0       ??_C@_1DI@IJCEHOCB@?$AAa?$AAp?$AAi?$AA?9?$AAm?$AAs?$AA?9?$AAw?$AAi?$AAn?$AA?9?$AAc?$AAo?$AAr?$AAe@ 0000000180036fe0     libucrt:winapi_thunks.obj
 0002:00003020       ??_C@_1EI@MPIAOHOC@?$AAa?$AAp?$AAi?$AA?9?$AAm?$AAs?$AA?9?$AAw?$AAi?$AAn?$AA?9?$AAc?$AAo?$AAr?$AAe@ 0000000180037020     libucrt:winapi_thunks.obj
 0002:00003070       ??_C@_1FK@FPHCKFIE@?$AAa?$AAp?$AAi?$AA?9?$AAm?$AAs?$AA?9?$AAw?$AAi?$AAn?$AA?9?$AAc?$AAo?$AAr?$AAe@ 0000000180037070     libucrt:winapi_thunks.obj
 0002:000030d0       ??_C@_1EM@DILCGIIO@?$AAa?$AAp?$AAi?$AA?9?$AAm?$AAs?$AA?9?$AAw?$AAi?$AAn?$AA?9?$AAc?$AAo?$AAr?$AAe@ 00000001800370d0     libucrt:winapi_thunks.obj
 0002:00003120       ??_C@_1DM@LNCGDDPN@?$AAa?$AAp?$AAi?$AA?9?$AAm?$AAs?$AA?9?$AAw?$AAi?$AAn?$AA?9?$AAc?$AAo?$AAr?$AAe@ 0000000180037120     libucrt:winapi_thunks.obj
 0002:00003160       ??_C@_1DO@FPAPJEMD@?$AAa?$AAp?$AAi?$AA?9?$AAm?$AAs?$AA?9?$AAw?$AAi?$AAn?$AA?9?$AAc?$AAo?$AAr?$AAe@ 0000000180037160     libucrt:winapi_thunks.obj
 0002:000031a0       ??_C@_1DK@NDHNAHIO@?$AAa?$AAp?$AAi?$AA?9?$AAm?$AAs?$AA?9?$AAw?$AAi?$AAn?$AA?9?$AAc?$AAo?$AAr?$AAe@ 00000001800371a0     libucrt:winapi_thunks.obj
 0002:000031e0       ??_C@_1DM@KGHDGBCM@?$AAa?$AAp?$AAi?$AA?9?$AAm?$AAs?$AA?9?$AAw?$AAi?$AAn?$AA?9?$AAc?$AAo?$AAr?$AAe@ 00000001800371e0     libucrt:winapi_thunks.obj
 0002:00003220       ??_C@_1EO@IJIOEFOH@?$AAa?$AAp?$AAi?$AA?9?$AAm?$AAs?$AA?9?$AAw?$AAi?$AAn?$AA?9?$AAr?$AAt?$AAc?$AAo@ 0000000180037220     libucrt:winapi_thunks.obj
 0002:00003270       ??_C@_1FG@HHGEKANL@?$AAa?$AAp?$AAi?$AA?9?$AAm?$AAs?$AA?9?$AAw?$AAi?$AAn?$AA?9?$AAs?$AAe?$AAc?$AAu@ 0000000180037270     libucrt:winapi_thunks.obj
 0002:000032d0       ??_C@_1EG@DBIOJECG@?$AAe?$AAx?$AAt?$AA?9?$AAm?$AAs?$AA?9?$AAw?$AAi?$AAn?$AA?9?$AAn?$AAt?$AAu?$AAs@ 00000001800372d0     libucrt:winapi_thunks.obj
 0002:00003320       ??_C@_1EO@FIHMJCLF@?$AAe?$AAx?$AAt?$AA?9?$AAm?$AAs?$AA?9?$AAw?$AAi?$AAn?$AA?9?$AAn?$AAt?$AAu?$AAs@ 0000000180037320     libucrt:winapi_thunks.obj
 0002:00003370       ??_C@_1BC@DNHGCMLG@?$AAa?$AAd?$AAv?$AAa?$AAp?$AAi?$AA3?$AA2@ 0000000180037370     libucrt:winapi_thunks.obj
 0002:00003388       ??_C@_1M@OAIMIKLP@?$AAn?$AAt?$AAd?$AAl?$AAl@ 0000000180037388     libucrt:winapi_thunks.obj
 0002:000033a0       ??_C@_1EG@DPGNFKGC@?$AAa?$AAp?$AAi?$AA?9?$AAm?$AAs?$AA?9?$AAw?$AAi?$AAn?$AA?9?$AAa?$AAp?$AAp?$AAm@ 00000001800373a0     libucrt:winapi_thunks.obj
 0002:000033e8       ??_C@_1O@BCCLBEOE@?$AAu?$AAs?$AAe?$AAr?$AA3?$AA2@ 00000001800373e8     libucrt:winapi_thunks.obj
 0002:000033f8       ??_C@_1BA@IAIFMGEF@?$AAe?$AAx?$AAt?$AA?9?$AAm?$AAs?$AA?9@ 00000001800373f8     libucrt:winapi_thunks.obj
 0002:00003410       ??_C@_0BA@FHFNEAED@AreFileApisANSI@ 0000000180037410     libucrt:winapi_thunks.obj
 0002:00003458       ??_C@_0BB@HBDEELFH@LocaleNameToLCID@ 0000000180037458     libucrt:winapi_thunks.obj
 0002:00003470       ??_C@_0CF@OJOFEIGO@AppPolicyGetProcessTerminationM@ 0000000180037470     libucrt:winapi_thunks.obj
 0002:000034a0       __newctype                 00000001800374a0     libucrt:ctype.obj
 0002:000037a0       __newclmap                 00000001800377a0     libucrt:ctype.obj
 0002:00003920       __newcumap                 0000000180037920     libucrt:ctype.obj
 0002:00003aa0       ??_C@_15PJPFLCCM@?$AAu?$AAk@ 0000000180037aa0     libucrt:get_qualified_locale.obj
 0002:000048f0       ??_C@_15EMKDOKLE@?$AAa?$AAr@ 00000001800388f0     libucrt:lcidtoname_downlevel.obj
 0002:000048f8       ??_C@_15KNPADPLH@?$AAb?$AAg@ 00000001800388f8     libucrt:lcidtoname_downlevel.obj
 0002:00004900       ??_C@_15EDMHLDMO@?$AAc?$AAa@ 0000000180038900     libucrt:lcidtoname_downlevel.obj
 0002:00004908       ??_C@_1O@BPEAJADD@?$AAz?$AAh?$AA?9?$AAC?$AAH?$AAS@ 0000000180038908     libucrt:lcidtoname_downlevel.obj
 0002:00004918       ??_C@_15LJNHCMNK@?$AAc?$AAs@ 0000000180038918     libucrt:lcidtoname_downlevel.obj
 0002:00004920       ??_C@_15FOMCIDHG@?$AAd?$AAa@ 0000000180038920     libucrt:lcidtoname_downlevel.obj
 0002:00004928       ??_C@_15NBKABECB@?$AAd?$AAe@ 0000000180038928     libucrt:lcidtoname_downlevel.obj
 0002:00004930       ??_C@_15GHPEIIAO@?$AAe?$AAl@ 0000000180038930     libucrt:lcidtoname_downlevel.obj
 0002:00004938       ??_C@_15MNPNEAIF@?$AAe?$AAn@ 0000000180038938     libucrt:lcidtoname_downlevel.obj
 0002:00004940       ??_C@_15GPIOMPMH@?$AAe?$AAs@ 0000000180038940     libucrt:lcidtoname_downlevel.obj
 0002:00004948       ??_C@_15NGLOAKJC@?$AAf?$AAi@ 0000000180038948     libucrt:lcidtoname_downlevel.obj
 0002:00004950       ??_C@_15FBKGNKAM@?$AAf?$AAr@ 0000000180038950     libucrt:lcidtoname_downlevel.obj
 0002:00004958       ??_C@_15KGGCNEFK@?$AAh?$AAe@ 0000000180038958     libucrt:lcidtoname_downlevel.obj
 0002:00004960       ??_C@_15PGHLIDMF@?$AAh?$AAu@ 0000000180038960     libucrt:lcidtoname_downlevel.obj
 0002:00004968       ??_C@_15BIEMAPLM@?$AAi?$AAs@ 0000000180038968     libucrt:lcidtoname_downlevel.obj
 0002:00004970       ??_C@_15IFJLDHAF@?$AAi?$AAt@ 0000000180038970     libucrt:lcidtoname_downlevel.obj
 0002:00004978       ??_C@_15GEMIOCAG@?$AAj?$AAa@ 0000000180038978     libucrt:lcidtoname_downlevel.obj
 0002:00004980       ??_C@_15EPELEGJA@?$AAk?$AAo@ 0000000180038980     libucrt:lcidtoname_downlevel.obj
 0002:00004988       ??_C@_15NDDHIMN@?$AAn?$AAl@ 0000000180038988     libucrt:lcidtoname_downlevel.obj
 0002:00004990       ??_C@_15BPIGNHCD@?$AAn?$AAo@ 0000000180038990     libucrt:lcidtoname_downlevel.obj
 0002:00004998       ??_C@_15DEOPBLCG@?$AAp?$AAl@ 0000000180038998     libucrt:lcidtoname_downlevel.obj
 0002:000049a0       ??_C@_15KBECGEFG@?$AAp?$AAt@ 00000001800389a0     libucrt:lcidtoname_downlevel.obj
 0002:000049a8       ??_C@_15GLJCBFMD@?$AAr?$AAo@ 00000001800389a8     libucrt:lcidtoname_downlevel.obj
 0002:000049b0       ??_C@_15FEDGKCDI@?$AAr?$AAu@ 00000001800389b0     libucrt:lcidtoname_downlevel.obj
 0002:000049b8       ??_C@_15GLKMLLHM@?$AAh?$AAr@ 00000001800389b8     libucrt:lcidtoname_downlevel.obj
 0002:000049c0       ??_C@_15CPKMFBDB@?$AAs?$AAk@ 00000001800389c0     libucrt:lcidtoname_downlevel.obj
 0002:000049c8       ??_C@_15BAAIOGMK@?$AAs?$AAq@ 00000001800389c8     libucrt:lcidtoname_downlevel.obj
 0002:000049d0       ??_C@_15INNPNOHD@?$AAs?$AAv@ 00000001800389d0     libucrt:lcidtoname_downlevel.obj
 0002:000049d8       ??_C@_15CABMMOGH@?$AAt?$AAh@ 00000001800389d8     libucrt:lcidtoname_downlevel.obj
 0002:000049e0       ??_C@_15BPLIHJJM@?$AAt?$AAr@ 00000001800389e0     libucrt:lcidtoname_downlevel.obj
 0002:000049e8       ??_C@_15NEOEKKDJ@?$AAu?$AAr@ 00000001800389e8     libucrt:lcidtoname_downlevel.obj
 0002:000049f0       ??_C@_15NFICGAJK@?$AAi?$AAd@ 00000001800389f0     libucrt:lcidtoname_downlevel.obj
 0002:000049f8       ??_C@_15HPJPHDM@?$AAb?$AAe@ 00000001800389f8     libucrt:lcidtoname_downlevel.obj
 0002:00004a00       ??_C@_15LCHLGJII@?$AAs?$AAl@ 0000000180038a00     libucrt:lcidtoname_downlevel.obj
 0002:00004a08       ??_C@_15PCFJPHHO@?$AAe?$AAt@ 0000000180038a08     libucrt:lcidtoname_downlevel.obj
 0002:00004a10       ??_C@_15HPFPGODN@?$AAl?$AAv@ 0000000180038a10     libucrt:lcidtoname_downlevel.obj
 0002:00004a18       ??_C@_15NFFGKGLG@?$AAl?$AAt@ 0000000180038a18     libucrt:lcidtoname_downlevel.obj
 0002:00004a20       ??_C@_15BDAKCCHN@?$AAf?$AAa@ 0000000180038a20     libucrt:lcidtoname_downlevel.obj
 0002:00004a28       ??_C@_15NFGIAIAJ@?$AAv?$AAi@ 0000000180038a28     libucrt:lcidtoname_downlevel.obj
 0002:00004a30       ??_C@_15LMKNDMHN@?$AAh?$AAy@ 0000000180038a30     libucrt:lcidtoname_downlevel.obj
 0002:00004a38       ??_C@_15IJBHMCFL@?$AAa?$AAz@ 0000000180038a38     libucrt:lcidtoname_downlevel.obj
 0002:00004a40       ??_C@_15EKOFJABL@?$AAe?$AAu@ 0000000180038a40     libucrt:lcidtoname_downlevel.obj
 0002:00004a48       ??_C@_15BGHADCNK@?$AAm?$AAk@ 0000000180038a48     libucrt:lcidtoname_downlevel.obj
 0002:00004a50       ??_C@_15JDNICKHM@?$AAa?$AAf@ 0000000180038a50     libucrt:lcidtoname_downlevel.obj
 0002:00004a58       ??_C@_15KPJEDBKD@?$AAk?$AAa@ 0000000180038a58     libucrt:lcidtoname_downlevel.obj
 0002:00004a60       ??_C@_15PDNFFFEO@?$AAf?$AAo@ 0000000180038a60     libucrt:lcidtoname_downlevel.obj
 0002:00004a68       ??_C@_15OMLEGLOC@?$AAh?$AAi@ 0000000180038a68     libucrt:lcidtoname_downlevel.obj
 0002:00004a70       ??_C@_15IDNNENKK@?$AAm?$AAs@ 0000000180038a70     libucrt:lcidtoname_downlevel.obj
 0002:00004a78       ??_C@_15MACJNBMH@?$AAk?$AAk@ 0000000180038a78     libucrt:lcidtoname_downlevel.obj
 0002:00004a80       ??_C@_15DKDJEOND@?$AAk?$AAy@ 0000000180038a80     libucrt:lcidtoname_downlevel.obj
 0002:00004a88       ??_C@_15DFGDLJBG@?$AAs?$AAw@ 0000000180038a88     libucrt:lcidtoname_downlevel.obj
 0002:00004a90       ??_C@_15BBFAICNG@?$AAu?$AAz@ 0000000180038a90     libucrt:lcidtoname_downlevel.obj
 0002:00004a98       ??_C@_15DKNDCGEA@?$AAt?$AAt@ 0000000180038a98     libucrt:lcidtoname_downlevel.obj
 0002:00004aa0       ??_C@_15MGIFMDPL@?$AAp?$AAa@ 0000000180038aa0     libucrt:lcidtoname_downlevel.obj
 0002:00004aa8       ??_C@_15HCNDBBA@?$AAg?$AAu@ 0000000180038aa8     libucrt:lcidtoname_downlevel.obj
 0002:00004ab0       ??_C@_15FNBEIBON@?$AAt?$AAa@ 0000000180038ab0     libucrt:lcidtoname_downlevel.obj
 0002:00004ab8       ??_C@_15NCHGBGLK@?$AAt?$AAe@ 0000000180038ab8     libucrt:lcidtoname_downlevel.obj
 0002:00004ac0       ??_C@_15PHPHCBPF@?$AAk?$AAn@ 0000000180038ac0     libucrt:lcidtoname_downlevel.obj
 0002:00004ac8       ??_C@_15DLGBCKMP@?$AAm?$AAr@ 0000000180038ac8     libucrt:lcidtoname_downlevel.obj
 0002:00004ad0       ??_C@_15EABBLBFF@?$AAs?$AAa@ 0000000180038ad0     libucrt:lcidtoname_downlevel.obj
 0002:00004ad8       ??_C@_15CBKOMCOI@?$AAm?$AAn@ 0000000180038ad8     libucrt:lcidtoname_downlevel.obj
 0002:00004ae0       ??_C@_15CKDMCJAF@?$AAg?$AAl@ 0000000180038ae0     libucrt:lcidtoname_downlevel.obj
 0002:00004ae8       ??_C@_17CNJFBPG@?$AAk?$AAo?$AAk@ 0000000180038ae8     libucrt:lcidtoname_downlevel.obj
 0002:00004af0       ??_C@_17FFBJICPL@?$AAs?$AAy?$AAr@ 0000000180038af0     libucrt:lcidtoname_downlevel.obj
 0002:00004af8       ??_C@_17KPNDCPAF@?$AAd?$AAi?$AAv@ 0000000180038af8     libucrt:lcidtoname_downlevel.obj
 0002:00004b00       ??_C@_11LOCGONAA@@         0000000180038b00     libucrt:lcidtoname_downlevel.obj
 0002:00004b08       ??_C@_1M@OKAHONE@?$AAa?$AAr?$AA?9?$AAS?$AAA@ 0000000180038b08     libucrt:lcidtoname_downlevel.obj
 0002:00004b18       ??_C@_1M@FFFIGIGK@?$AAb?$AAg?$AA?9?$AAB?$AAG@ 0000000180038b18     libucrt:lcidtoname_downlevel.obj
 0002:00004b28       ??_C@_1M@BJNKEDC@?$AAc?$AAa?$AA?9?$AAE?$AAS@ 0000000180038b28     libucrt:lcidtoname_downlevel.obj
 0002:00004b38       ??_C@_1M@IJJHFJHA@?$AAc?$AAs?$AA?9?$AAC?$AAZ@ 0000000180038b38     libucrt:lcidtoname_downlevel.obj
 0002:00004b48       ??_C@_1M@CLPEOBGI@?$AAd?$AAa?$AA?9?$AAD?$AAK@ 0000000180038b48     libucrt:lcidtoname_downlevel.obj
 0002:00004b58       ??_C@_1M@MCMADGCB@?$AAd?$AAe?$AA?9?$AAD?$AAE@ 0000000180038b58     libucrt:lcidtoname_downlevel.obj
 0002:00004b68       ??_C@_1M@OOCKEMAM@?$AAe?$AAl?$AA?9?$AAG?$AAR@ 0000000180038b68     libucrt:lcidtoname_downlevel.obj
 0002:00004b78       ??_C@_1M@DDNJFGID@?$AAf?$AAi?$AA?9?$AAF?$AAI@ 0000000180038b78     libucrt:lcidtoname_downlevel.obj
 0002:00004b88       ??_C@_1M@GLIPPMAC@?$AAf?$AAr?$AA?9?$AAF?$AAR@ 0000000180038b88     libucrt:lcidtoname_downlevel.obj
 0002:00004b98       ??_C@_1M@GFMCHPE@?$AAh?$AAe?$AA?9?$AAI?$AAL@ 0000000180038b98     libucrt:lcidtoname_downlevel.obj
 0002:00004ba8       ??_C@_1M@MHLPGNKM@?$AAh?$AAu?$AA?9?$AAH?$AAU@ 0000000180038ba8     libucrt:lcidtoname_downlevel.obj
 0002:00004bb8       ??_C@_1M@LPDDNNPN@?$AAi?$AAs?$AA?9?$AAI?$AAS@ 0000000180038bb8     libucrt:lcidtoname_downlevel.obj
 0002:00004bc8       ??_C@_1M@MADIPODN@?$AAi?$AAt?$AA?9?$AAI?$AAT@ 0000000180038bc8     libucrt:lcidtoname_downlevel.obj
 0002:00004bd8       ??_C@_1M@IHBJJGG@?$AAn?$AAl?$AA?9?$AAN?$AAL@ 0000000180038bd8     libucrt:lcidtoname_downlevel.obj
 0002:00004be8       ??_C@_1M@EANAGDL@?$AAn?$AAb?$AA?9?$AAN?$AAO@ 0000000180038be8     libucrt:lcidtoname_downlevel.obj
 0002:00004bf8       ??_C@_1M@NEIEMEGP@?$AAp?$AAl?$AA?9?$AAP?$AAL@ 0000000180038bf8     libucrt:lcidtoname_downlevel.obj
 0002:00004c08       ??_C@_1M@BOCFIGEP@?$AAp?$AAt?$AA?9?$AAB?$AAR@ 0000000180038c08     libucrt:lcidtoname_downlevel.obj
 0002:00004c18       ??_C@_1M@IMPFOPBG@?$AAr?$AAo?$AA?9?$AAR?$AAO@ 0000000180038c18     libucrt:lcidtoname_downlevel.obj
 0002:00004c28       ??_C@_1M@IDNNEJMM@?$AAr?$AAu?$AA?9?$AAR?$AAU@ 0000000180038c28     libucrt:lcidtoname_downlevel.obj
 0002:00004c38       ??_C@_1M@LILEEOGM@?$AAh?$AAr?$AA?9?$AAH?$AAR@ 0000000180038c38     libucrt:lcidtoname_downlevel.obj
 0002:00004c48       ??_C@_1M@FKIFEHPB@?$AAs?$AAk?$AA?9?$AAS?$AAK@ 0000000180038c48     libucrt:lcidtoname_downlevel.obj
 0002:00004c58       ??_C@_1M@LJMAMNPJ@?$AAs?$AAq?$AA?9?$AAA?$AAL@ 0000000180038c58     libucrt:lcidtoname_downlevel.obj
 0002:00004c68       ??_C@_1M@GIAKDKJK@?$AAs?$AAv?$AA?9?$AAS?$AAE@ 0000000180038c68     libucrt:lcidtoname_downlevel.obj
 0002:00004c78       ??_C@_1M@MKJKIKCL@?$AAt?$AAh?$AA?9?$AAT?$AAH@ 0000000180038c78     libucrt:lcidtoname_downlevel.obj
 0002:00004c88       ??_C@_1M@MFLCCMPB@?$AAt?$AAr?$AA?9?$AAT?$AAR@ 0000000180038c88     libucrt:lcidtoname_downlevel.obj
 0002:00004c98       ??_C@_1M@OIJHDKJN@?$AAu?$AAr?$AA?9?$AAP?$AAK@ 0000000180038c98     libucrt:lcidtoname_downlevel.obj
 0002:00004ca8       ??_C@_1M@LHIPCIEK@?$AAi?$AAd?$AA?9?$AAI?$AAD@ 0000000180038ca8     libucrt:lcidtoname_downlevel.obj
 0002:00004cb8       ??_C@_1M@MFMOBGI@?$AAu?$AAk?$AA?9?$AAU?$AAA@ 0000000180038cb8     libucrt:lcidtoname_downlevel.obj
 0002:00004cc8       ??_C@_1M@OBGLJIPL@?$AAb?$AAe?$AA?9?$AAB?$AAY@ 0000000180038cc8     libucrt:lcidtoname_downlevel.obj
 0002:00004cd8       ??_C@_1M@BCFAJEAD@?$AAs?$AAl?$AA?9?$AAS?$AAI@ 0000000180038cd8     libucrt:lcidtoname_downlevel.obj
 0002:00004ce8       ??_C@_1M@FKFFEDDN@?$AAe?$AAt?$AA?9?$AAE?$AAE@ 0000000180038ce8     libucrt:lcidtoname_downlevel.obj
 0002:00004cf8       ??_C@_1M@KGKKAACI@?$AAl?$AAv?$AA?9?$AAL?$AAV@ 0000000180038cf8     libucrt:lcidtoname_downlevel.obj
 0002:00004d08       ??_C@_1M@IFGBIJO@?$AAl?$AAt?$AA?9?$AAL?$AAT@ 0000000180038d08     libucrt:lcidtoname_downlevel.obj
 0002:00004d18       ??_C@_1M@FGEAHEDM@?$AAf?$AAa?$AA?9?$AAI?$AAR@ 0000000180038d18     libucrt:lcidtoname_downlevel.obj
 0002:00004d28       ??_C@_1M@KBMAIBFN@?$AAv?$AAi?$AA?9?$AAV?$AAN@ 0000000180038d28     libucrt:lcidtoname_downlevel.obj
 0002:00004d38       ??_C@_1M@GPCBKDJK@?$AAh?$AAy?$AA?9?$AAA?$AAM@ 0000000180038d38     libucrt:lcidtoname_downlevel.obj
 0002:00004d48       ??_C@_1BG@BECMDDJB@?$AAa?$AAz?$AA?9?$AAA?$AAZ?$AA?9?$AAL?$AAa?$AAt?$AAn@ 0000000180038d48     libucrt:lcidtoname_downlevel.obj
 0002:00004d60       ??_C@_1M@MAOFCAEA@?$AAe?$AAu?$AA?9?$AAE?$AAS@ 0000000180038d60     libucrt:lcidtoname_downlevel.obj
 0002:00004d70       ??_C@_1M@IGHABKPI@?$AAm?$AAk?$AA?9?$AAM?$AAK@ 0000000180038d70     libucrt:lcidtoname_downlevel.obj
 0002:00004d80       ??_C@_1M@IAIGNEJG@?$AAt?$AAn?$AA?9?$AAZ?$AAA@ 0000000180038d80     libucrt:lcidtoname_downlevel.obj
 0002:00004d90       ??_C@_1M@IIJCOJFA@?$AAx?$AAh?$AA?9?$AAZ?$AAA@ 0000000180038d90     libucrt:lcidtoname_downlevel.obj
 0002:00004da0       ??_C@_1M@LGPJHNJH@?$AAz?$AAu?$AA?9?$AAZ?$AAA@ 0000000180038da0     libucrt:lcidtoname_downlevel.obj
 0002:00004db0       ??_C@_1M@HOKAOIO@?$AAa?$AAf?$AA?9?$AAZ?$AAA@ 0000000180038db0     libucrt:lcidtoname_downlevel.obj
 0002:00004dc0       ??_C@_1M@DPCLHLIE@?$AAk?$AAa?$AA?9?$AAG?$AAE@ 0000000180038dc0     libucrt:lcidtoname_downlevel.obj
 0002:00004dd0       ??_C@_1M@BLKMHJBI@?$AAf?$AAo?$AA?9?$AAF?$AAO@ 0000000180038dd0     libucrt:lcidtoname_downlevel.obj
 0002:00004de0       ??_C@_1M@LGGJAPPB@?$AAh?$AAi?$AA?9?$AAI?$AAN@ 0000000180038de0     libucrt:lcidtoname_downlevel.obj
 0002:00004df0       ??_C@_1M@FIKPIHFE@?$AAm?$AAt?$AA?9?$AAM?$AAT@ 0000000180038df0     libucrt:lcidtoname_downlevel.obj
 0002:00004e00       ??_C@_1M@HEGGPBFA@?$AAs?$AAe?$AA?9?$AAN?$AAO@ 0000000180038e00     libucrt:lcidtoname_downlevel.obj
 0002:00004e10       ??_C@_1M@EIBJEEPA@?$AAm?$AAs?$AA?9?$AAM?$AAY@ 0000000180038e10     libucrt:lcidtoname_downlevel.obj
 0002:00004e20       ??_C@_1M@FHLBGMPP@?$AAk?$AAk?$AA?9?$AAK?$AAZ@ 0000000180038e20     libucrt:lcidtoname_downlevel.obj
 0002:00004e30       ??_C@_1M@NGJJLCGI@?$AAk?$AAy?$AA?9?$AAK?$AAG@ 0000000180038e30     libucrt:lcidtoname_downlevel.obj
 0002:00004e40       ??_C@_1M@GIENNBFC@?$AAs?$AAw?$AA?9?$AAK?$AAE@ 0000000180038e40     libucrt:lcidtoname_downlevel.obj
 0002:00004e50       ??_C@_1BG@NDGMJIMJ@?$AAu?$AAz?$AA?9?$AAU?$AAZ?$AA?9?$AAL?$AAa?$AAt?$AAn@ 0000000180038e50     libucrt:lcidtoname_downlevel.obj
 0002:00004e68       ??_C@_1M@IDCCIHBC@?$AAt?$AAt?$AA?9?$AAR?$AAU@ 0000000180038e68     libucrt:lcidtoname_downlevel.obj
 0002:00004e78       ??_C@_1M@LOICPMOJ@?$AAb?$AAn?$AA?9?$AAI?$AAN@ 0000000180038e78     libucrt:lcidtoname_downlevel.obj
 0002:00004e88       ??_C@_1M@KPKKNEAH@?$AAp?$AAa?$AA?9?$AAI?$AAN@ 0000000180038e88     libucrt:lcidtoname_downlevel.obj
 0002:00004e98       ??_C@_1M@PJGPPBOG@?$AAg?$AAu?$AA?9?$AAI?$AAN@ 0000000180038e98     libucrt:lcidtoname_downlevel.obj
 0002:00004ea8       ??_C@_1M@KMKMOPHI@?$AAt?$AAa?$AA?9?$AAI?$AAN@ 0000000180038ea8     libucrt:lcidtoname_downlevel.obj
 0002:00004eb8       ??_C@_1M@KFEHEPAC@?$AAt?$AAe?$AA?9?$AAI?$AAN@ 0000000180038eb8     libucrt:lcidtoname_downlevel.obj
 0002:00004ec8       ??_C@_1M@CDCLMGHI@?$AAk?$AAn?$AA?9?$AAI?$AAN@ 0000000180038ec8     libucrt:lcidtoname_downlevel.obj
 0002:00004ed8       ??_C@_1M@MIODLDKF@?$AAm?$AAl?$AA?9?$AAI?$AAN@ 0000000180038ed8     libucrt:lcidtoname_downlevel.obj
 0002:00004ee8       ??_C@_1M@PBIEACPO@?$AAm?$AAr?$AA?9?$AAI?$AAN@ 0000000180038ee8     libucrt:lcidtoname_downlevel.obj
 0002:00004ef8       ??_C@_1M@NIDEAGPH@?$AAs?$AAa?$AA?9?$AAI?$AAN@ 0000000180038ef8     libucrt:lcidtoname_downlevel.obj
 0002:00004f08       ??_C@_1M@FHIHCBIO@?$AAm?$AAn?$AA?9?$AAM?$AAN@ 0000000180038f08     libucrt:lcidtoname_downlevel.obj
 0002:00004f18       ??_C@_1M@JAIJPENP@?$AAc?$AAy?$AA?9?$AAG?$AAB@ 0000000180038f18     libucrt:lcidtoname_downlevel.obj
 0002:00004f28       ??_C@_1M@PHGFBEPN@?$AAg?$AAl?$AA?9?$AAE?$AAS@ 0000000180038f28     libucrt:lcidtoname_downlevel.obj
 0002:00004f38       ??_C@_1O@KPIPDNCP@?$AAk?$AAo?$AAk?$AA?9?$AAI?$AAN@ 0000000180038f38     libucrt:lcidtoname_downlevel.obj
 0002:00004f48       ??_C@_1O@KNHJLDJA@?$AAs?$AAy?$AAr?$AA?9?$AAS?$AAY@ 0000000180038f48     libucrt:lcidtoname_downlevel.obj
 0002:00004f58       ??_C@_1O@MKEKBLAH@?$AAd?$AAi?$AAv?$AA?9?$AAM?$AAV@ 0000000180038f58     libucrt:lcidtoname_downlevel.obj
 0002:00004f68       ??_C@_1O@OHDCKDDF@?$AAq?$AAu?$AAz?$AA?9?$AAB?$AAO@ 0000000180038f68     libucrt:lcidtoname_downlevel.obj
 0002:00004f78       ??_C@_1M@LEPJNLFD@?$AAn?$AAs?$AA?9?$AAZ?$AAA@ 0000000180038f78     libucrt:lcidtoname_downlevel.obj
 0002:00004f88       ??_C@_1M@OMLEIIJB@?$AAm?$AAi?$AA?9?$AAN?$AAZ@ 0000000180038f88     libucrt:lcidtoname_downlevel.obj
 0002:00004f98       ??_C@_1M@PMPEAILG@?$AAa?$AAr?$AA?9?$AAI?$AAQ@ 0000000180038f98     libucrt:lcidtoname_downlevel.obj
 0002:00004fa8       ??_C@_1M@CNKPNOEE@?$AAd?$AAe?$AA?9?$AAC?$AAH@ 0000000180038fa8     libucrt:lcidtoname_downlevel.obj
 0002:00004fb8       ??_C@_1M@LKMGMLKO@?$AAe?$AAn?$AA?9?$AAG?$AAB@ 0000000180038fb8     libucrt:lcidtoname_downlevel.obj
 0002:00004fc8       ??_C@_1M@PGKJFFGL@?$AAe?$AAs?$AA?9?$AAM?$AAX@ 0000000180038fc8     libucrt:lcidtoname_downlevel.obj
 0002:00004fd8       ??_C@_1M@DNNANBDC@?$AAf?$AAr?$AA?9?$AAB?$AAE@ 0000000180038fd8     libucrt:lcidtoname_downlevel.obj
 0002:00004fe8       ??_C@_1M@HLGMDFHM@?$AAi?$AAt?$AA?9?$AAC?$AAH@ 0000000180038fe8     libucrt:lcidtoname_downlevel.obj
 0002:00004ff8       ??_C@_1M@CLLBGJH@?$AAn?$AAl?$AA?9?$AAB?$AAE@ 0000000180038ff8     libucrt:lcidtoname_downlevel.obj
 0002:00005008       ??_C@_1M@BODBOGLF@?$AAn?$AAn?$AA?9?$AAN?$AAO@ 0000000180039008     libucrt:lcidtoname_downlevel.obj
 0002:00005018       ??_C@_1M@HFFAHKAD@?$AAp?$AAt?$AA?9?$AAP?$AAT@ 0000000180039018     libucrt:lcidtoname_downlevel.obj
 0002:00005028       ??_C@_1BG@LNOAKHIE@?$AAs?$AAr?$AA?9?$AAS?$AAP?$AA?9?$AAL?$AAa?$AAt?$AAn@ 0000000180039028     libucrt:lcidtoname_downlevel.obj
 0002:00005040       ??_C@_1M@HBMHBGAK@?$AAs?$AAv?$AA?9?$AAF?$AAI@ 0000000180039040     libucrt:lcidtoname_downlevel.obj
 0002:00005050       ??_C@_1BG@DGCJGJBE@?$AAa?$AAz?$AA?9?$AAA?$AAZ?$AA?9?$AAC?$AAy?$AAr?$AAl@ 0000000180039050     libucrt:lcidtoname_downlevel.obj
 0002:00005068       ??_C@_1M@KEJDAAHB@?$AAs?$AAe?$AA?9?$AAS?$AAE@ 0000000180039068     libucrt:lcidtoname_downlevel.obj
 0002:00005078       ??_C@_1M@HEIBJJAD@?$AAm?$AAs?$AA?9?$AAB?$AAN@ 0000000180039078     libucrt:lcidtoname_downlevel.obj
 0002:00005088       ??_C@_1BG@PBGJMCEM@?$AAu?$AAz?$AA?9?$AAU?$AAZ?$AA?9?$AAC?$AAy?$AAr?$AAl@ 0000000180039088     libucrt:lcidtoname_downlevel.obj
 0002:000050a0       ??_C@_1O@LAOBCMDF@?$AAq?$AAu?$AAz?$AA?9?$AAE?$AAC@ 00000001800390a0     libucrt:lcidtoname_downlevel.obj
 0002:000050b0       ??_C@_1M@POEEMAIO@?$AAa?$AAr?$AA?9?$AAE?$AAG@ 00000001800390b0     libucrt:lcidtoname_downlevel.obj
 0002:000050c0       ??_C@_1M@EFAKDEDL@?$AAz?$AAh?$AA?9?$AAH?$AAK@ 00000001800390c0     libucrt:lcidtoname_downlevel.obj
 0002:000050d0       ??_C@_1M@HKKIJHGI@?$AAd?$AAe?$AA?9?$AAA?$AAT@ 00000001800390d0     libucrt:lcidtoname_downlevel.obj
 0002:000050e0       ??_C@_1M@KBFBEHJF@?$AAe?$AAn?$AA?9?$AAA?$AAU@ 00000001800390e0     libucrt:lcidtoname_downlevel.obj
 0002:000050f0       ??_C@_1M@MNPLFAAH@?$AAe?$AAs?$AA?9?$AAE?$AAS@ 00000001800390f0     libucrt:lcidtoname_downlevel.obj
 0002:00005100       ??_C@_1M@HJOOJFMA@?$AAf?$AAr?$AA?9?$AAC?$AAA@ 0000000180039100     libucrt:lcidtoname_downlevel.obj
 0002:00005110       ??_C@_1BG@JPOFPNAB@?$AAs?$AAr?$AA?9?$AAS?$AAP?$AA?9?$AAC?$AAy?$AAr?$AAl@ 0000000180039110     libucrt:lcidtoname_downlevel.obj
 0002:00005128       ??_C@_1M@LNFOCMOB@?$AAs?$AAe?$AA?9?$AAF?$AAI@ 0000000180039128     libucrt:lcidtoname_downlevel.obj
 0002:00005138       ??_C@_1O@MGJBOAMB@?$AAq?$AAu?$AAz?$AA?9?$AAP?$AAE@ 0000000180039138     libucrt:lcidtoname_downlevel.obj
 0002:00005148       ??_C@_1M@GJINLBOK@?$AAa?$AAr?$AA?9?$AAL?$AAY@ 0000000180039148     libucrt:lcidtoname_downlevel.obj
 0002:00005158       ??_C@_1M@GGMNHJNL@?$AAz?$AAh?$AA?9?$AAS?$AAG@ 0000000180039158     libucrt:lcidtoname_downlevel.obj
 0002:00005168       ??_C@_1M@HOIKODND@?$AAd?$AAe?$AA?9?$AAL?$AAU@ 0000000180039168     libucrt:lcidtoname_downlevel.obj
 0002:00005178       ??_C@_1M@DDOCCGFG@?$AAe?$AAn?$AA?9?$AAC?$AAA@ 0000000180039178     libucrt:lcidtoname_downlevel.obj
 0002:00005188       ??_C@_1M@BNOEMJLF@?$AAe?$AAs?$AA?9?$AAG?$AAT@ 0000000180039188     libucrt:lcidtoname_downlevel.obj
 0002:00005198       ??_C@_1M@EOGNKEK@?$AAf?$AAr?$AA?9?$AAC?$AAH@ 0000000180039198     libucrt:lcidtoname_downlevel.obj
 0002:000051a8       ??_C@_1M@FLIDJFHL@?$AAh?$AAr?$AA?9?$AAB?$AAA@ 00000001800391a8     libucrt:lcidtoname_downlevel.obj
 0002:000051b8       ??_C@_1O@FMCELNAJ@?$AAs?$AAm?$AAj?$AA?9?$AAN?$AAO@ 00000001800391b8     libucrt:lcidtoname_downlevel.obj
 0002:000051c8       ??_C@_1M@JHGLJMGJ@?$AAa?$AAr?$AA?9?$AAD?$AAZ@ 00000001800391c8     libucrt:lcidtoname_downlevel.obj
 0002:000051d8       ??_C@_1M@JKKFDCNP@?$AAz?$AAh?$AA?9?$AAM?$AAO@ 00000001800391d8     libucrt:lcidtoname_downlevel.obj
 0002:000051e8       ??_C@_1M@GEEFALPE@?$AAd?$AAe?$AA?9?$AAL?$AAI@ 00000001800391e8     libucrt:lcidtoname_downlevel.obj
 0002:000051f8       ??_C@_1M@IGEOFBG@?$AAe?$AAn?$AA?9?$AAN?$AAZ@ 00000001800391f8     libucrt:lcidtoname_downlevel.obj
 0002:00005208       ??_C@_1M@KDBONEHP@?$AAe?$AAs?$AA?9?$AAC?$AAR@ 0000000180039208     libucrt:lcidtoname_downlevel.obj
 0002:00005218       ??_C@_1M@FHMDOHNN@?$AAf?$AAr?$AA?9?$AAL?$AAU@ 0000000180039218     libucrt:lcidtoname_downlevel.obj
 0002:00005228       ??_C@_1BG@NFKKMAFG@?$AAb?$AAs?$AA?9?$AAB?$AAA?$AA?9?$AAL?$AAa?$AAt?$AAn@ 0000000180039228     libucrt:lcidtoname_downlevel.obj
 0002:00005240       ??_C@_1O@IMNBEMCI@?$AAs?$AAm?$AAj?$AA?9?$AAS?$AAE@ 0000000180039240     libucrt:lcidtoname_downlevel.obj
 0002:00005250       ??_C@_1M@DHHMBNDP@?$AAa?$AAr?$AA?9?$AAM?$AAA@ 0000000180039250     libucrt:lcidtoname_downlevel.obj
 0002:00005260       ??_C@_1M@BNBLJCGH@?$AAe?$AAn?$AA?9?$AAI?$AAE@ 0000000180039260     libucrt:lcidtoname_downlevel.obj
 0002:00005270       ??_C@_1M@GEPAFMDL@?$AAe?$AAs?$AA?9?$AAP?$AAA@ 0000000180039270     libucrt:lcidtoname_downlevel.obj
 0002:00005280       ??_C@_1M@OJONDMDL@?$AAf?$AAr?$AA?9?$AAM?$AAC@ 0000000180039280     libucrt:lcidtoname_downlevel.obj
 0002:00005290       ??_C@_1BG@OBCNFJB@?$AAs?$AAr?$AA?9?$AAB?$AAA?$AA?9?$AAL?$AAa?$AAt?$AAn@ 0000000180039290     libucrt:lcidtoname_downlevel.obj
 0002:000052a8       ??_C@_1O@KEMEEGPO@?$AAs?$AAm?$AAa?$AA?9?$AAN?$AAO@ 00000001800392a8     libucrt:lcidtoname_downlevel.obj
 0002:000052b8       ??_C@_1M@ELMGFODK@?$AAa?$AAr?$AA?9?$AAT?$AAN@ 00000001800392b8     libucrt:lcidtoname_downlevel.obj
 0002:000052c8       ??_C@_1M@BHDLHFAF@?$AAe?$AAn?$AA?9?$AAZ?$AAA@ 00000001800392c8     libucrt:lcidtoname_downlevel.obj
 0002:000052d8       ??_C@_1M@BMGIGLIF@?$AAe?$AAs?$AA?9?$AAD?$AAO@ 00000001800392d8     libucrt:lcidtoname_downlevel.obj
 0002:000052e8       ??_C@_1BG@CMBHIPBE@?$AAs?$AAr?$AA?9?$AAB?$AAA?$AA?9?$AAC?$AAy?$AAr?$AAl@ 00000001800392e8     libucrt:lcidtoname_downlevel.obj
 0002:00005300       ??_C@_1O@HEDBLHNP@?$AAs?$AAm?$AAa?$AA?9?$AAS?$AAE@ 0000000180039300     libucrt:lcidtoname_downlevel.obj
 0002:00005310       ??_C@_1M@DAGCADIM@?$AAa?$AAr?$AA?9?$AAO?$AAM@ 0000000180039310     libucrt:lcidtoname_downlevel.obj
 0002:00005320       ??_C@_1M@FODLMICG@?$AAe?$AAn?$AA?9?$AAJ?$AAM@ 0000000180039320     libucrt:lcidtoname_downlevel.obj
 0002:00005330       ??_C@_1M@DNMLCIHB@?$AAe?$AAs?$AA?9?$AAV?$AAE@ 0000000180039330     libucrt:lcidtoname_downlevel.obj
 0002:00005340       ??_C@_1O@EOKHMKJK@?$AAs?$AAm?$AAs?$AA?9?$AAF?$AAI@ 0000000180039340     libucrt:lcidtoname_downlevel.obj
 0002:00005350       ??_C@_1M@CAFJMKOF@?$AAa?$AAr?$AA?9?$AAY?$AAE@ 0000000180039350     libucrt:lcidtoname_downlevel.obj
 0002:00005360       ??_C@_1M@CBFHIJLI@?$AAe?$AAn?$AA?9?$AAC?$AAB@ 0000000180039360     libucrt:lcidtoname_downlevel.obj
 0002:00005370       ??_C@_1M@BGNFLDN@?$AAe?$AAs?$AA?9?$AAC?$AAO@ 0000000180039370     libucrt:lcidtoname_downlevel.obj
 0002:00005380       ??_C@_1O@JMPHMAMC@?$AAs?$AAm?$AAn?$AA?9?$AAF?$AAI@ 0000000180039380     libucrt:lcidtoname_downlevel.obj
 0002:00005390       ??_C@_1M@JLANABKE@?$AAa?$AAr?$AA?9?$AAS?$AAY@ 0000000180039390     libucrt:lcidtoname_downlevel.obj
 0002:000053a0       ??_C@_1M@HPKGCFGN@?$AAe?$AAn?$AA?9?$AAB?$AAZ@ 00000001800393a0     libucrt:lcidtoname_downlevel.obj
 0002:000053b0       ??_C@_1M@OLJCMLGM@?$AAe?$AAs?$AA?9?$AAP?$AAE@ 00000001800393b0     libucrt:lcidtoname_downlevel.obj
 0002:000053c0       ??_C@_1M@MKKGFKLE@?$AAa?$AAr?$AA?9?$AAJ?$AAO@ 00000001800393c0     libucrt:lcidtoname_downlevel.obj
 0002:000053d0       ??_C@_1M@EKPGLDNI@?$AAe?$AAn?$AA?9?$AAT?$AAT@ 00000001800393d0     libucrt:lcidtoname_downlevel.obj
 0002:000053e0       ??_C@_1M@OONGHFHE@?$AAe?$AAs?$AA?9?$AAA?$AAR@ 00000001800393e0     libucrt:lcidtoname_downlevel.obj
 0002:000053f0       ??_C@_1M@OOJFGBHE@?$AAa?$AAr?$AA?9?$AAL?$AAB@ 00000001800393f0     libucrt:lcidtoname_downlevel.obj
 0002:00005400       ??_C@_1M@GCEJHNEG@?$AAe?$AAn?$AA?9?$AAZ?$AAW@ 0000000180039400     libucrt:lcidtoname_downlevel.obj
 0002:00005410       ??_C@_1M@JNOCAHJI@?$AAe?$AAs?$AA?9?$AAE?$AAC@ 0000000180039410     libucrt:lcidtoname_downlevel.obj
 0002:00005420       ??_C@_1M@JEFHPGGB@?$AAa?$AAr?$AA?9?$AAK?$AAW@ 0000000180039420     libucrt:lcidtoname_downlevel.obj
 0002:00005430       ??_C@_1M@MLKIBJOJ@?$AAe?$AAn?$AA?9?$AAP?$AAH@ 0000000180039430     libucrt:lcidtoname_downlevel.obj
 0002:00005440       ??_C@_1M@BDNIPEND@?$AAe?$AAs?$AA?9?$AAC?$AAL@ 0000000180039440     libucrt:lcidtoname_downlevel.obj
 0002:00005450       ??_C@_1M@MPNMEKBD@?$AAa?$AAr?$AA?9?$AAA?$AAE@ 0000000180039450     libucrt:lcidtoname_downlevel.obj
 0002:00005460       ??_C@_1M@KBJALCPI@?$AAe?$AAs?$AA?9?$AAU?$AAY@ 0000000180039460     libucrt:lcidtoname_downlevel.obj
 0002:00005470       ??_C@_1M@LLCCOAGA@?$AAa?$AAr?$AA?9?$AAB?$AAH@ 0000000180039470     libucrt:lcidtoname_downlevel.obj
 0002:00005480       ??_C@_1M@PBFNCDEL@?$AAe?$AAs?$AA?9?$AAP?$AAY@ 0000000180039480     libucrt:lcidtoname_downlevel.obj
 0002:00005490       ??_C@_1M@EDGINPNP@?$AAa?$AAr?$AA?9?$AAQ?$AAA@ 0000000180039490     libucrt:lcidtoname_downlevel.obj
 0002:000054a0       ??_C@_1M@MKDBIIJI@?$AAe?$AAs?$AA?9?$AAB?$AAO@ 00000001800394a0     libucrt:lcidtoname_downlevel.obj
 0002:000054b0       ??_C@_1M@CPKKEBLD@?$AAe?$AAs?$AA?9?$AAS?$AAV@ 00000001800394b0     libucrt:lcidtoname_downlevel.obj
 0002:000054c0       ??_C@_1M@NDBGMMJL@?$AAe?$AAs?$AA?9?$AAH?$AAN@ 00000001800394c0     libucrt:lcidtoname_downlevel.obj
 0002:000054d0       ??_C@_1M@JIJIBHDP@?$AAe?$AAs?$AA?9?$AAN?$AAI@ 00000001800394d0     libucrt:lcidtoname_downlevel.obj
 0002:000054e0       ??_C@_1M@CGFMKEEK@?$AAe?$AAs?$AA?9?$AAP?$AAR@ 00000001800394e0     libucrt:lcidtoname_downlevel.obj
 0002:000054f0       ??_C@_1O@ICJHKIIK@?$AAz?$AAh?$AA?9?$AAC?$AAH?$AAT@ 00000001800394f0     libucrt:lcidtoname_downlevel.obj
 0002:00005500       ??_C@_15CLNEJCE@?$AAs?$AAr@ 0000000180039500     libucrt:lcidtoname_downlevel.obj
 0002:00006350       ??_C@_1M@KAHEKEIG@?$AAa?$AAf?$AA?9?$AAz?$AAa@ 000000018003a350     libucrt:lcidtoname_downlevel.obj
 0002:00006360       ??_C@_1M@GIECOABL@?$AAa?$AAr?$AA?9?$AAa?$AAe@ 000000018003a360     libucrt:lcidtoname_downlevel.obj
 0002:00006370       ??_C@_1M@BMLMEKGI@?$AAa?$AAr?$AA?9?$AAb?$AAh@ 000000018003a370     libucrt:lcidtoname_downlevel.obj
 0002:00006380       ??_C@_1M@DAPFDGGB@?$AAa?$AAr?$AA?9?$AAd?$AAz@ 000000018003a380     libucrt:lcidtoname_downlevel.obj
 0002:00006390       ??_C@_1M@FJNKGKIG@?$AAa?$AAr?$AA?9?$AAe?$AAg@ 000000018003a390     libucrt:lcidtoname_downlevel.obj
 0002:000063a0       ??_C@_1M@FLGKKCLO@?$AAa?$AAr?$AA?9?$AAi?$AAq@ 000000018003a3a0     libucrt:lcidtoname_downlevel.obj
 0002:000063b0       ??_C@_1M@GNDIPALM@?$AAa?$AAr?$AA?9?$AAj?$AAo@ 000000018003a3b0     libucrt:lcidtoname_downlevel.obj
 0002:000063c0       ??_C@_1M@DDMJFMGJ@?$AAa?$AAr?$AA?9?$AAk?$AAw@ 000000018003a3c0     libucrt:lcidtoname_downlevel.obj
 0002:000063d0       ??_C@_1M@EJALMLHM@?$AAa?$AAr?$AA?9?$AAl?$AAb@ 000000018003a3d0     libucrt:lcidtoname_downlevel.obj
 0002:000063e0       ??_C@_1M@MOBDBLOC@?$AAa?$AAr?$AA?9?$AAl?$AAy@ 000000018003a3e0     libucrt:lcidtoname_downlevel.obj
 0002:000063f0       ??_C@_1M@JAOCLHDH@?$AAa?$AAr?$AA?9?$AAm?$AAa@ 000000018003a3f0     libucrt:lcidtoname_downlevel.obj
 0002:00006400       ??_C@_1M@JHPMKJIE@?$AAa?$AAr?$AA?9?$AAo?$AAm@ 000000018003a400     libucrt:lcidtoname_downlevel.obj
 0002:00006410       ??_C@_1M@OEPGHFNH@?$AAa?$AAr?$AA?9?$AAq?$AAa@ 000000018003a410     libucrt:lcidtoname_downlevel.obj
 0002:00006420       ??_C@_1M@KJDONENM@?$AAa?$AAr?$AA?9?$AAs?$AAa@ 000000018003a420     libucrt:lcidtoname_downlevel.obj
 0002:00006430       ??_C@_1M@DMJDKLKM@?$AAa?$AAr?$AA?9?$AAs?$AAy@ 000000018003a430     libucrt:lcidtoname_downlevel.obj
 0002:00006440       ??_C@_1M@OMFIPEDC@?$AAa?$AAr?$AA?9?$AAt?$AAn@ 000000018003a440     libucrt:lcidtoname_downlevel.obj
 0002:00006450       ??_C@_1M@IHMHGAON@?$AAa?$AAr?$AA?9?$AAy?$AAe@ 000000018003a450     libucrt:lcidtoname_downlevel.obj
 0002:00006460       ??_C@_1BG@KDCPGJGB@?$AAa?$AAz?$AA?9?$AAa?$AAz?$AA?9?$AAc?$AAy?$AAr?$AAl@ 000000018003a460     libucrt:lcidtoname_downlevel.obj
 0002:00006478       ??_C@_1BG@IBCKDDOE@?$AAa?$AAz?$AA?9?$AAa?$AAz?$AA?9?$AAl?$AAa?$AAt?$AAn@ 000000018003a478     libucrt:lcidtoname_downlevel.obj
 0002:00006490       ??_C@_1M@EGPFDCPD@?$AAb?$AAe?$AA?9?$AAb?$AAy@ 000000018003a490     libucrt:lcidtoname_downlevel.obj
 0002:000064a0       ??_C@_1M@PCMGMCGC@?$AAb?$AAg?$AA?9?$AAb?$AAg@ 000000018003a4a0     libucrt:lcidtoname_downlevel.obj
 0002:000064b0       ??_C@_1M@BJBMFGOB@?$AAb?$AAn?$AA?9?$AAi?$AAn@ 000000018003a4b0     libucrt:lcidtoname_downlevel.obj
 0002:000064c0       ??_C@_1BG@EAKMMACD@?$AAb?$AAs?$AA?9?$AAb?$AAa?$AA?9?$AAl?$AAa?$AAt?$AAn@ 000000018003a4c0     libucrt:lcidtoname_downlevel.obj
 0002:000064d8       ??_C@_1M@KGADAODK@?$AAc?$AAa?$AA?9?$AAe?$AAs@ 000000018003a4d8     libucrt:lcidtoname_downlevel.obj
 0002:000064e8       ??_C@_1M@COAJPDHI@?$AAc?$AAs?$AA?9?$AAc?$AAz@ 000000018003a4e8     libucrt:lcidtoname_downlevel.obj
 0002:000064f8       ??_C@_1M@DHBHFONH@?$AAc?$AAy?$AA?9?$AAg?$AAb@ 000000018003a4f8     libucrt:lcidtoname_downlevel.obj
 0002:00006508       ??_C@_1M@IMGKELGA@?$AAd?$AAa?$AA?9?$AAd?$AAk@ 000000018003a508     libucrt:lcidtoname_downlevel.obj
 0002:00006518       ??_C@_1M@NNDGDNGA@?$AAd?$AAe?$AA?9?$AAa?$AAt@ 000000018003a518     libucrt:lcidtoname_downlevel.obj
 0002:00006528       ??_C@_1M@IKDBHEEM@?$AAd?$AAe?$AA?9?$AAc?$AAh@ 000000018003a528     libucrt:lcidtoname_downlevel.obj
 0002:00006538       ??_C@_1M@GFFOJMCJ@?$AAd?$AAe?$AA?9?$AAd?$AAe@ 000000018003a538     libucrt:lcidtoname_downlevel.obj
 0002:00006548       ??_C@_1M@MDNLKBPM@?$AAd?$AAe?$AA?9?$AAl?$AAi@ 000000018003a548     libucrt:lcidtoname_downlevel.obj
 0002:00006558       ??_C@_1M@NJBEEJNL@?$AAd?$AAe?$AA?9?$AAl?$AAu@ 000000018003a558     libucrt:lcidtoname_downlevel.obj
 0002:00006568       ??_C@_1O@GNNELBAP@?$AAd?$AAi?$AAv?$AA?9?$AAm?$AAv@ 000000018003a568     libucrt:lcidtoname_downlevel.obj
 0002:00006578       ??_C@_1M@EJLEOGAE@?$AAe?$AAl?$AA?9?$AAg?$AAr@ 000000018003a578     libucrt:lcidtoname_downlevel.obj
 0002:00006588       ??_C@_1M@GMPONJN@?$AAe?$AAn?$AA?9?$AAa?$AAu@ 000000018003a588     libucrt:lcidtoname_downlevel.obj
 0002:00006598       ??_C@_1M@NIDIIPGF@?$AAe?$AAn?$AA?9?$AAb?$AAz@ 000000018003a598     libucrt:lcidtoname_downlevel.obj
 0002:000065a8       ??_C@_1M@JEHMIMFO@?$AAe?$AAn?$AA?9?$AAc?$AAa@ 000000018003a5a8     libucrt:lcidtoname_downlevel.obj
 0002:000065b8       ??_C@_1M@IGMJCDLA@?$AAe?$AAn?$AA?9?$AAc?$AAb@ 000000018003a5b8     libucrt:lcidtoname_downlevel.obj
 0002:000065c8       ??_C@_1M@BNFIGBKG@?$AAe?$AAn?$AA?9?$AAg?$AAb@ 000000018003a5c8     libucrt:lcidtoname_downlevel.obj
 0002:000065d8       ??_C@_1M@LKIFDIGP@?$AAe?$AAn?$AA?9?$AAi?$AAe@ 000000018003a5d8     libucrt:lcidtoname_downlevel.obj
 0002:000065e8       ??_C@_1M@PJKFGCCO@?$AAe?$AAn?$AA?9?$AAj?$AAm@ 000000018003a5e8     libucrt:lcidtoname_downlevel.obj
 0002:000065f8       ??_C@_1M@KPPKEPBO@?$AAe?$AAn?$AA?9?$AAn?$AAz@ 000000018003a5f8     libucrt:lcidtoname_downlevel.obj
 0002:00006608       ??_C@_1M@GMDGLDOB@?$AAe?$AAn?$AA?9?$AAp?$AAh@ 000000018003a608     libucrt:lcidtoname_downlevel.obj
 0002:00006618       ??_C@_1M@ONGIBJNA@?$AAe?$AAn?$AA?9?$AAt?$AAt@ 000000018003a618     libucrt:lcidtoname_downlevel.obj
 0002:00006628       ??_C@_1M@LLODPCMM@?$AAe?$AAn?$AA?9?$AAu?$AAs@ 000000018003a628     libucrt:lcidtoname_downlevel.obj
 0002:00006638       ??_C@_1M@LAKFNPAN@?$AAe?$AAn?$AA?9?$AAz?$AAa@ 000000018003a638     libucrt:lcidtoname_downlevel.obj
 0002:00006648       ??_C@_1M@MFNHNHEO@?$AAe?$AAn?$AA?9?$AAz?$AAw@ 000000018003a648     libucrt:lcidtoname_downlevel.obj
 0002:00006658       ??_C@_1M@EJEINPHM@?$AAe?$AAs?$AA?9?$AAa?$AAr@ 000000018003a658     libucrt:lcidtoname_downlevel.obj
 0002:00006668       ??_C@_1M@GNKPCCJA@?$AAe?$AAs?$AA?9?$AAb?$AAo@ 000000018003a668     libucrt:lcidtoname_downlevel.obj
 0002:00006678       ??_C@_1M@LEEGFONL@?$AAe?$AAs?$AA?9?$AAc?$AAl@ 000000018003a678     libucrt:lcidtoname_downlevel.obj
 0002:00006688       ??_C@_1M@KGPDPBDF@?$AAe?$AAs?$AA?9?$AAc?$AAo@ 000000018003a688     libucrt:lcidtoname_downlevel.obj
 0002:00006698       ??_C@_1M@EIAHOHH@?$AAe?$AAs?$AA?9?$AAc?$AAr@ 000000018003a698     libucrt:lcidtoname_downlevel.obj
 0002:000066a8       ??_C@_1M@LLPGMBIN@?$AAe?$AAs?$AA?9?$AAd?$AAo@ 000000018003a6a8     libucrt:lcidtoname_downlevel.obj
 0002:000066b8       ??_C@_1M@DKHMKNJA@?$AAe?$AAs?$AA?9?$AAe?$AAc@ 000000018003a6b8     libucrt:lcidtoname_downlevel.obj
 0002:000066c8       ??_C@_1M@GKGFPKAP@?$AAe?$AAs?$AA?9?$AAe?$AAs@ 000000018003a6c8     libucrt:lcidtoname_downlevel.obj
 0002:000066d8       ??_C@_1M@LKHKGDLN@?$AAe?$AAs?$AA?9?$AAg?$AAt@ 000000018003a6d8     libucrt:lcidtoname_downlevel.obj
 0002:000066e8       ??_C@_1M@HEIIGGJD@?$AAe?$AAs?$AA?9?$AAh?$AAn@ 000000018003a6e8     libucrt:lcidtoname_downlevel.obj
 0002:000066f8       ??_C@_1M@FBDHPPGD@?$AAe?$AAs?$AA?9?$AAm?$AAx@ 000000018003a6f8     libucrt:lcidtoname_downlevel.obj
 0002:00006708       ??_C@_1M@DPAGLNDH@?$AAe?$AAs?$AA?9?$AAn?$AAi@ 000000018003a708     libucrt:lcidtoname_downlevel.obj
 0002:00006718       ??_C@_1M@MDGOPGDD@?$AAe?$AAs?$AA?9?$AAp?$AAa@ 000000018003a718     libucrt:lcidtoname_downlevel.obj
 0002:00006728       ??_C@_1M@EMAMGBGE@?$AAe?$AAs?$AA?9?$AAp?$AAe@ 000000018003a728     libucrt:lcidtoname_downlevel.obj
 0002:00006738       ??_C@_1M@IBMCAOEC@?$AAe?$AAs?$AA?9?$AAp?$AAr@ 000000018003a738     libucrt:lcidtoname_downlevel.obj
 0002:00006748       ??_C@_1M@FGMDIJED@?$AAe?$AAs?$AA?9?$AAp?$AAy@ 000000018003a748     libucrt:lcidtoname_downlevel.obj
 0002:00006758       ??_C@_1M@IIDEOLLL@?$AAe?$AAs?$AA?9?$AAs?$AAv@ 000000018003a758     libucrt:lcidtoname_downlevel.obj
 0002:00006768       ??_C@_1M@GAOBIPA@?$AAe?$AAs?$AA?9?$AAu?$AAy@ 000000018003a768     libucrt:lcidtoname_downlevel.obj
 0002:00006778       ??_C@_1M@JKFFICHJ@?$AAe?$AAs?$AA?9?$AAv?$AAe@ 000000018003a778     libucrt:lcidtoname_downlevel.obj
 0002:00006788       ??_C@_1M@PNMLOJDF@?$AAe?$AAt?$AA?9?$AAe?$AAe@ 000000018003a788     libucrt:lcidtoname_downlevel.obj
 0002:00006798       ??_C@_1M@GHHLIKEI@?$AAe?$AAu?$AA?9?$AAe?$AAs@ 000000018003a798     libucrt:lcidtoname_downlevel.obj
 0002:000067a8       ??_C@_1M@PBNONODE@?$AAf?$AAa?$AA?9?$AAi?$AAr@ 000000018003a7a8     libucrt:lcidtoname_downlevel.obj
 0002:000067b8       ??_C@_1M@JEEHPMIL@?$AAf?$AAi?$AA?9?$AAf?$AAi@ 000000018003a7b8     libucrt:lcidtoname_downlevel.obj
 0002:000067c8       ??_C@_1M@LMDCNDBA@?$AAf?$AAo?$AA?9?$AAf?$AAo@ 000000018003a7c8     libucrt:lcidtoname_downlevel.obj
 0002:000067d8       ??_C@_1M@JKEOHLDK@?$AAf?$AAr?$AA?9?$AAb?$AAe@ 000000018003a7d8     libucrt:lcidtoname_downlevel.obj
 0002:000067e8       ??_C@_1M@NOHADPMI@?$AAf?$AAr?$AA?9?$AAc?$AAa@ 000000018003a7e8     libucrt:lcidtoname_downlevel.obj
 0002:000067f8       ??_C@_1M@KDHIHAEC@?$AAf?$AAr?$AA?9?$AAc?$AAh@ 000000018003a7f8     libucrt:lcidtoname_downlevel.obj
 0002:00006808       ??_C@_1M@MMBBFGAK@?$AAf?$AAr?$AA?9?$AAf?$AAr@ 000000018003a808     libucrt:lcidtoname_downlevel.obj
 0002:00006818       ??_C@_1M@PAFNENNF@?$AAf?$AAr?$AA?9?$AAl?$AAu@ 000000018003a818     libucrt:lcidtoname_downlevel.obj
 0002:00006828       ??_C@_1M@EOHDJGDD@?$AAf?$AAr?$AA?9?$AAm?$AAc@ 000000018003a828     libucrt:lcidtoname_downlevel.obj
 0002:00006838       ??_C@_1M@FAPLLOPF@?$AAg?$AAl?$AA?9?$AAe?$AAs@ 000000018003a838     libucrt:lcidtoname_downlevel.obj
 0002:00006848       ??_C@_1M@FOPBFLOO@?$AAg?$AAu?$AA?9?$AAi?$AAn@ 000000018003a848     libucrt:lcidtoname_downlevel.obj
 0002:00006858       ??_C@_1M@KBMCINPM@?$AAh?$AAe?$AA?9?$AAi?$AAl@ 000000018003a858     libucrt:lcidtoname_downlevel.obj
 0002:00006868       ??_C@_1M@BBPHKFPJ@?$AAh?$AAi?$AA?9?$AAi?$AAn@ 000000018003a868     libucrt:lcidtoname_downlevel.obj
 0002:00006878       ??_C@_1M@PMBNDPHD@?$AAh?$AAr?$AA?9?$AAb?$AAa@ 000000018003a878     libucrt:lcidtoname_downlevel.obj
 0002:00006888       ??_C@_1M@BPCKOEGE@?$AAh?$AAr?$AA?9?$AAh?$AAr@ 000000018003a888     libucrt:lcidtoname_downlevel.obj
 0002:00006898       ??_C@_1M@GACBMHKE@?$AAh?$AAu?$AA?9?$AAh?$AAu@ 000000018003a898     libucrt:lcidtoname_downlevel.obj
 0002:000068a8       ??_C@_1M@MILPAJJC@?$AAh?$AAy?$AA?9?$AAa?$AAm@ 000000018003a8a8     libucrt:lcidtoname_downlevel.obj
 0002:000068b8       ??_C@_1M@BABBICEC@?$AAi?$AAd?$AA?9?$AAi?$AAd@ 000000018003a8b8     libucrt:lcidtoname_downlevel.obj
 0002:000068c8       ??_C@_1M@BIKNHHPF@?$AAi?$AAs?$AA?9?$AAi?$AAs@ 000000018003a8c8     libucrt:lcidtoname_downlevel.obj
 0002:000068d8       ??_C@_1M@NMPCJPHE@?$AAi?$AAt?$AA?9?$AAc?$AAh@ 000000018003a8d8     libucrt:lcidtoname_downlevel.obj
 0002:000068e8       ??_C@_1M@GHKGFEDF@?$AAi?$AAt?$AA?9?$AAi?$AAt@ 000000018003a8e8     libucrt:lcidtoname_downlevel.obj
 0002:000068f8       ??_C@_1M@NIEJCJJA@?$AAj?$AAa?$AA?9?$AAj?$AAp@ 000000018003a8f8     libucrt:lcidtoname_downlevel.obj
 0002:00006908       ??_C@_1M@JILFNBIM@?$AAk?$AAa?$AA?9?$AAg?$AAe@ 000000018003a908     libucrt:lcidtoname_downlevel.obj
 0002:00006918       ??_C@_1M@PACPMGPH@?$AAk?$AAk?$AA?9?$AAk?$AAz@ 000000018003a918     libucrt:lcidtoname_downlevel.obj
 0002:00006928       ??_C@_1M@IELFGMHA@?$AAk?$AAn?$AA?9?$AAi?$AAn@ 000000018003a928     libucrt:lcidtoname_downlevel.obj
 0002:00006938       ??_C@_1O@IBBJHCH@?$AAk?$AAo?$AAk?$AA?9?$AAi?$AAn@ 000000018003a938     libucrt:lcidtoname_downlevel.obj
 0002:00006948       ??_C@_1M@DMHAEOGC@?$AAk?$AAo?$AA?9?$AAk?$AAr@ 000000018003a948     libucrt:lcidtoname_downlevel.obj
 0002:00006958       ??_C@_1M@HBAHBIGA@?$AAk?$AAy?$AA?9?$AAk?$AAg@ 000000018003a958     libucrt:lcidtoname_downlevel.obj
 0002:00006968       ??_C@_1M@KPMILCJG@?$AAl?$AAt?$AA?9?$AAl?$AAt@ 000000018003a968     libucrt:lcidtoname_downlevel.obj
 0002:00006978       ??_C@_1M@BDEKKCA@?$AAl?$AAv?$AA?9?$AAl?$AAv@ 000000018003a978     libucrt:lcidtoname_downlevel.obj
 0002:00006988       ??_C@_1M@ELCKCCJJ@?$AAm?$AAi?$AA?9?$AAn?$AAz@ 000000018003a988     libucrt:lcidtoname_downlevel.obj
 0002:00006998       ??_C@_1M@CBOOLAPA@?$AAm?$AAk?$AA?9?$AAm?$AAk@ 000000018003a998     libucrt:lcidtoname_downlevel.obj
 0002:000069a8       ??_C@_1M@GPHNBJKN@?$AAm?$AAl?$AA?9?$AAi?$AAn@ 000000018003a9a8     libucrt:lcidtoname_downlevel.obj
 0002:000069b8       ??_C@_1M@PABJILIG@?$AAm?$AAn?$AA?9?$AAm?$AAn@ 000000018003a9b8     libucrt:lcidtoname_downlevel.obj
 0002:000069c8       ??_C@_1M@FGBKKIPG@?$AAm?$AAr?$AA?9?$AAi?$AAn@ 000000018003a9c8     libucrt:lcidtoname_downlevel.obj
 0002:000069d8       ??_C@_1M@NDBPDDAL@?$AAm?$AAs?$AA?9?$AAb?$AAn@ 000000018003a9d8     libucrt:lcidtoname_downlevel.obj
 0002:000069e8       ??_C@_1M@OPIHOOPI@?$AAm?$AAs?$AA?9?$AAm?$AAy@ 000000018003a9e8     libucrt:lcidtoname_downlevel.obj
 0002:000069f8       ??_C@_1M@PPDBCNFM@?$AAm?$AAt?$AA?9?$AAm?$AAt@ 000000018003a9f8     libucrt:lcidtoname_downlevel.obj
 0002:00006a08       ??_C@_1M@KDJDKMDD@?$AAn?$AAb?$AA?9?$AAn?$AAo@ 000000018003aa08     libucrt:lcidtoname_downlevel.obj
 0002:00006a18       ??_C@_1M@KFCFLMJP@?$AAn?$AAl?$AA?9?$AAb?$AAe@ 000000018003aa18     libucrt:lcidtoname_downlevel.obj
 0002:00006a28       ??_C@_1M@KPOPDDGO@?$AAn?$AAl?$AA?9?$AAn?$AAl@ 000000018003aa28     libucrt:lcidtoname_downlevel.obj
 0002:00006a38       ??_C@_1M@LJKPEMLN@?$AAn?$AAn?$AA?9?$AAn?$AAo@ 000000018003aa38     libucrt:lcidtoname_downlevel.obj
 0002:00006a48       ??_C@_1M@BDGHHBFL@?$AAn?$AAs?$AA?9?$AAz?$AAa@ 000000018003aa48     libucrt:lcidtoname_downlevel.obj
 0002:00006a58       ??_C@_1M@IDEHOAP@?$AAp?$AAa?$AA?9?$AAi?$AAn@ 000000018003aa58     libucrt:lcidtoname_downlevel.obj
 0002:00006a68       ??_C@_1M@HDBKGOGH@?$AAp?$AAl?$AA?9?$AAp?$AAl@ 000000018003aa68     libucrt:lcidtoname_downlevel.obj
 0002:00006a78       ??_C@_1M@LJLLCMEH@?$AAp?$AAt?$AA?9?$AAb?$AAr@ 000000018003aa78     libucrt:lcidtoname_downlevel.obj
 0002:00006a88       ??_C@_1M@NCMONAAL@?$AAp?$AAt?$AA?9?$AAp?$AAt@ 000000018003aa88     libucrt:lcidtoname_downlevel.obj
 0002:00006a98       ??_C@_1O@EAKMAJDN@?$AAq?$AAu?$AAz?$AA?9?$AAb?$AAo@ 000000018003aa98     libucrt:lcidtoname_downlevel.obj
 0002:00006aa8       ??_C@_1O@BHHPIGDN@?$AAq?$AAu?$AAz?$AA?9?$AAe?$AAc@ 000000018003aaa8     libucrt:lcidtoname_downlevel.obj
 0002:00006ab8       ??_C@_1O@GBAPEKMJ@?$AAq?$AAu?$AAz?$AA?9?$AAp?$AAe@ 000000018003aab8     libucrt:lcidtoname_downlevel.obj
 0002:00006ac8       ??_C@_1M@CLGLEFBO@?$AAr?$AAo?$AA?9?$AAr?$AAo@ 000000018003aac8     libucrt:lcidtoname_downlevel.obj
 0002:00006ad8       ??_C@_1M@CEEDODME@?$AAr?$AAu?$AA?9?$AAr?$AAu@ 000000018003aad8     libucrt:lcidtoname_downlevel.obj
 0002:00006ae8       ??_C@_1M@HPKKKMPP@?$AAs?$AAa?$AA?9?$AAi?$AAn@ 000000018003aae8     libucrt:lcidtoname_downlevel.obj
 0002:00006af8       ??_C@_1M@BKMAIGOJ@?$AAs?$AAe?$AA?9?$AAf?$AAi@ 000000018003aaf8     libucrt:lcidtoname_downlevel.obj
 0002:00006b08       ??_C@_1M@NDPIFLFI@?$AAs?$AAe?$AA?9?$AAn?$AAo@ 000000018003ab08     libucrt:lcidtoname_downlevel.obj
 0002:00006b18       ??_C@_1M@DANKKHJ@?$AAs?$AAe?$AA?9?$AAs?$AAe@ 000000018003ab18     libucrt:lcidtoname_downlevel.obj
 0002:00006b28       ??_C@_1M@PNBLONPJ@?$AAs?$AAk?$AA?9?$AAs?$AAk@ 000000018003ab28     libucrt:lcidtoname_downlevel.obj
 0002:00006b38       ??_C@_1M@LFMODOAL@?$AAs?$AAl?$AA?9?$AAs?$AAi@ 000000018003ab38     libucrt:lcidtoname_downlevel.obj
 0002:00006b48       ??_C@_1O@DFKOMPG@?$AAs?$AAm?$AAa?$AA?9?$AAn?$AAo@ 000000018003ab48     libucrt:lcidtoname_downlevel.obj
 0002:00006b58       ??_C@_1O@NDKPBNNH@?$AAs?$AAm?$AAa?$AA?9?$AAs?$AAe@ 000000018003ab58     libucrt:lcidtoname_downlevel.obj
 0002:00006b68       ??_C@_1O@PLLKBHAB@?$AAs?$AAm?$AAj?$AA?9?$AAn?$AAo@ 000000018003ab68     libucrt:lcidtoname_downlevel.obj
 0002:00006b78       ??_C@_1O@CLEPOGCA@?$AAs?$AAm?$AAj?$AA?9?$AAs?$AAe@ 000000018003ab78     libucrt:lcidtoname_downlevel.obj
 0002:00006b88       ??_C@_1O@DLGJGKMK@?$AAs?$AAm?$AAn?$AA?9?$AAf?$AAi@ 000000018003ab88     libucrt:lcidtoname_downlevel.obj
 0002:00006b98       ??_C@_1O@OJDJGAJC@?$AAs?$AAm?$AAs?$AA?9?$AAf?$AAi@ 000000018003ab98     libucrt:lcidtoname_downlevel.obj
 0002:00006ba8       ??_C@_1M@BOFOGHPB@?$AAs?$AAq?$AA?9?$AAa?$AAl@ 000000018003aba8     libucrt:lcidtoname_downlevel.obj
 0002:00006bb8       ??_C@_1BG@LJBBIPGB@?$AAs?$AAr?$AA?9?$AAb?$AAa?$AA?9?$AAc?$AAy?$AAr?$AAl@ 000000018003abb8     libucrt:lcidtoname_downlevel.obj
 0002:00006bd0       ??_C@_1BG@JLBENFOE@?$AAs?$AAr?$AA?9?$AAb?$AAa?$AA?9?$AAl?$AAa?$AAt?$AAn@ 000000018003abd0     libucrt:lcidtoname_downlevel.obj
 0002:00006be8       ??_C@_1BG@KODPNHE@?$AAs?$AAr?$AA?9?$AAs?$AAp?$AA?9?$AAc?$AAy?$AAr?$AAl@ 000000018003abe8     libucrt:lcidtoname_downlevel.obj
 0002:00006c00       ??_C@_1BG@CIOGKHPB@?$AAs?$AAr?$AA?9?$AAs?$AAp?$AA?9?$AAl?$AAa?$AAt?$AAn@ 000000018003ac00     libucrt:lcidtoname_downlevel.obj
 0002:00006c18       ??_C@_1M@NGFJLMAC@?$AAs?$AAv?$AA?9?$AAf?$AAi@ 000000018003ac18     libucrt:lcidtoname_downlevel.obj
 0002:00006c28       ??_C@_1M@MPJEJAJC@?$AAs?$AAv?$AA?9?$AAs?$AAe@ 000000018003ac28     libucrt:lcidtoname_downlevel.obj
 0002:00006c38       ??_C@_1M@MPNDHLFK@?$AAs?$AAw?$AA?9?$AAk?$AAe@ 000000018003ac38     libucrt:lcidtoname_downlevel.obj
 0002:00006c48       ??_C@_1O@KOHBJJI@?$AAs?$AAy?$AAr?$AA?9?$AAs?$AAy@ 000000018003ac48     libucrt:lcidtoname_downlevel.obj
 0002:00006c58       ??_C@_1M@LDCEFHA@?$AAt?$AAa?$AA?9?$AAi?$AAn@ 000000018003ac58     libucrt:lcidtoname_downlevel.obj
 0002:00006c68       ??_C@_1M@CNJOFAK@?$AAt?$AAe?$AA?9?$AAi?$AAn@ 000000018003ac68     libucrt:lcidtoname_downlevel.obj
 0002:00006c78       ??_C@_1M@GNAECACD@?$AAt?$AAh?$AA?9?$AAt?$AAh@ 000000018003ac78     libucrt:lcidtoname_downlevel.obj
 0002:00006c88       ??_C@_1M@CHBIHOJO@?$AAt?$AAn?$AA?9?$AAz?$AAa@ 000000018003ac88     libucrt:lcidtoname_downlevel.obj
 0002:00006c98       ??_C@_1M@GCCMIGPJ@?$AAt?$AAr?$AA?9?$AAt?$AAr@ 000000018003ac98     libucrt:lcidtoname_downlevel.obj
 0002:00006ca8       ??_C@_1M@CELMCNBK@?$AAt?$AAt?$AA?9?$AAr?$AAu@ 000000018003aca8     libucrt:lcidtoname_downlevel.obj
 0002:00006cb8       ??_C@_1M@KLMCELGA@?$AAu?$AAk?$AA?9?$AAu?$AAa@ 000000018003acb8     libucrt:lcidtoname_downlevel.obj
 0002:00006cc8       ??_C@_1M@EPAJJAJF@?$AAu?$AAr?$AA?9?$AAp?$AAk@ 000000018003acc8     libucrt:lcidtoname_downlevel.obj
 0002:00006cd8       ??_C@_1BG@GEGPMCDJ@?$AAu?$AAz?$AA?9?$AAu?$AAz?$AA?9?$AAc?$AAy?$AAr?$AAl@ 000000018003acd8     libucrt:lcidtoname_downlevel.obj
 0002:00006cf0       ??_C@_1BG@EGGKJILM@?$AAu?$AAz?$AA?9?$AAu?$AAz?$AA?9?$AAl?$AAa?$AAt?$AAn@ 000000018003acf0     libucrt:lcidtoname_downlevel.obj
 0002:00006d08       ??_C@_1M@GFOCLFF@?$AAv?$AAi?$AA?9?$AAv?$AAn@ 000000018003ad08     libucrt:lcidtoname_downlevel.obj
 0002:00006d18       ??_C@_1M@CPAMEDFI@?$AAx?$AAh?$AA?9?$AAz?$AAa@ 000000018003ad18     libucrt:lcidtoname_downlevel.obj
 0002:00006d28       ??_C@_1O@EBKIFIGN@?$AAz?$AAh?$AA?9?$AAc?$AAh?$AAs@ 000000018003ad28     libucrt:lcidtoname_downlevel.obj
 0002:00006d38       ??_C@_1O@NMHPGANE@?$AAz?$AAh?$AA?9?$AAc?$AAh?$AAt@ 000000018003ad38     libucrt:lcidtoname_downlevel.obj
 0002:00006d48       ??_C@_1M@LPINJOMC@?$AAz?$AAh?$AA?9?$AAc?$AAn@ 000000018003ad48     libucrt:lcidtoname_downlevel.obj
 0002:00006d58       ??_C@_1M@OCJEJODD@?$AAz?$AAh?$AA?9?$AAh?$AAk@ 000000018003ad58     libucrt:lcidtoname_downlevel.obj
 0002:00006d68       ??_C@_1M@DNDLJINH@?$AAz?$AAh?$AA?9?$AAm?$AAo@ 000000018003ad68     libucrt:lcidtoname_downlevel.obj
 0002:00006d78       ??_C@_1M@MBFDNDND@?$AAz?$AAh?$AA?9?$AAs?$AAg@ 000000018003ad78     libucrt:lcidtoname_downlevel.obj
 0002:00006d88       ??_C@_1M@IMEPLEPE@?$AAz?$AAh?$AA?9?$AAt?$AAw@ 000000018003ad88     libucrt:lcidtoname_downlevel.obj
 0002:00006d98       ??_C@_1M@BBGHNHJP@?$AAz?$AAu?$AA?9?$AAz?$AAa@ 000000018003ad98     libucrt:lcidtoname_downlevel.obj
 0002:00007000       ??_C@_1BA@BALFACEM@?$AAC?$AAO?$AAN?$AAO?$AAU?$AAT?$AA$@ 000000018003b000     libucrt:initcon.obj
 0002:00007010       __log10_256_lead           000000018003b010     libucrt:log10_256_lead_tail_table.obj
 0002:00007820       __log10_256_tail           000000018003b820     libucrt:log10_256_lead_tail_table.obj
 0002:00008030       __log_F_inv_qword          000000018003c030     libucrt:log_f_inv_qword_table.obj
 0002:00008840       ??_C@_05HGHHAHAP@log10@    000000018003c840     libucrt:log_special.obj
 0002:00008860       ??_C@_0BC@BDKFLDHL@unknown?5exception@ 000000018003c860     VError.obj
 0002:00008874       ??_C@_02LMMGGCAJ@?3?5@     000000018003c874     VError.obj
 0002:00008878       ??_C@_08LLGCOLLL@iostream@ 000000018003c878     VError.obj
 0002:00008888       ??_C@_0BG@PADBLCHM@iostream?5stream?5error@ 000000018003c888     VError.obj
 0002:000088a0       ??_C@_07CIFAGBMG@unknown@  000000018003c8a0     VError.obj
 0002:000088a8       ??_C@_0BF@PHHKMMFD@ios_base?3?3badbit?5set@ 000000018003c8a8     VError.obj
 0002:000088c0       ??_C@_0BG@FMKFHCIL@ios_base?3?3failbit?5set@ 000000018003c8c0     VError.obj
 0002:000088d8       ??_C@_0BF@OOHOMBOF@ios_base?3?3eofbit?5set@ 000000018003c8d8     VError.obj
 0002:000088f0       ??_C@_0CO@MDKMFKKK@?$CBnew_vobject?5?$HM?$HM?5VIPS_IS_OBJECT?$CI@ 000000018003c8f0     VError.obj
 0002:00008920       ??_C@_0BH@GOCJPHDF@vips?3?3VObject?3?3VObject@ 000000018003c920     VError.obj
 0002:00008940       ??_C@_0GL@LKKGDMMM@C?3?2Users?2Boneluv?2Desktop?2CHEMA?2@ 000000018003c940     VError.obj
 0002:000089b0       ??_C@_0BM@LENMHEAB@VIPS_IS_OBJECT?$CI?5a?4vobject?5?$CJ@ 000000018003c9b0     VError.obj
 0002:000089d0       ??_C@_0CG@IJKKON@?$CBvobject?5?$HM?$HM?5VIPS_IS_OBJECT?$CI?5vob@ 000000018003c9d0     VError.obj
 0002:000089f8       ??_C@_0BK@FEDAPFJC@vips?3?3VObject?3?3operator?5?$DN@ 000000018003c9f8     VError.obj
 0002:00008a18       ??_C@_0CJ@JCMMCJOH@a?4vobject?5?$CG?$CG?5VIPS_IS_OBJECT?$CI?5a?4@ 000000018003ca18     VError.obj
 0002:00008a48       ??_C@_0BI@LLDIPMFE@vips?3?3VObject?3?3?$HOVObject@ 000000018003ca48     VError.obj
 0002:00008a60       ??_C@_0BK@CFEFMCJG@vips?3?3VObject?3?3get_object@ 000000018003ca60     VError.obj
 0002:00008a80       ??_C@_0BA@JFNIOLAK@string?5too?5long@ 000000018003ca80     VError.obj
 0002:00008a90       ??_7_Iostream_error_category@std@@6B@ 000000018003ca90     VError.obj
 0002:00008ac0       ??_7VError@vips@@6B@       000000018003cac0     VError.obj
 0002:00008ad8       ??_7exception@stdext@@6B@  000000018003cad8     VError.obj
 0002:00008af0       ??_7VOption@vips@@6B@      000000018003caf0     VError.obj
 0002:00008af8       ??_7failure@ios_base@std@@6B@ 000000018003caf8     VError.obj
 0002:00008b10       ??_C@_0BB@MOGOBHAF@list?$DMT?$DO?5too?5long@ 000000018003cb10     VInterpolate.obj
 0002:00008b24       ??_C@_06FHFOAHML@system@   000000018003cb24     VImage.obj
 0002:00008b2c       ??_C@_02DKCKIIND@?$CFs@    000000018003cb2c     VImage.obj
 0002:00008b30       ??_C@_08BABJIOEM@filename@ 000000018003cb30     VImage.obj
 0002:00008b3c       ??_C@_03KEJHNBPP@out@      000000018003cb3c     VImage.obj
 0002:00008b40       ??_C@_06HOHPNJLC@buffer@   000000018003cb40     VImage.obj
 0002:00008b48       ??_C@_02LMMGJAGL@in@       000000018003cb48     VImage.obj
 0002:00008b50       ??_C@_07EEAEFHLG@CMC2LCh@  000000018003cb50     VImage.obj
 0002:00008b58       ??_C@_08GJMCDJCO@CMYK2XYZ@ 000000018003cb58     VImage.obj
 0002:00008b68       ??_C@_08MGEOCPLE@HSV2sRGB@ 000000018003cb68     VImage.obj
 0002:00008b78       ??_C@_07IEPNALIH@LCh2CMC@  000000018003cb78     VImage.obj
 0002:00008b80       ??_C@_07GBFGLBLG@LCh2Lab@  000000018003cb80     VImage.obj
 0002:00008b88       ??_C@_07FJMJMAGB@Lab2LCh@  000000018003cb88     VImage.obj
 0002:00008b90       ??_C@_08JOOABGHI@Lab2LabQ@ 000000018003cb90     VImage.obj
 0002:00008ba0       ??_C@_08KMNGHEPK@Lab2LabS@ 000000018003cba0     VImage.obj
 0002:00008bb0       ??_C@_07HKHDHCHO@Lab2XYZ@  000000018003cbb0     VImage.obj
 0002:00008bb8       ??_C@_08PCBHJJKI@LabQ2Lab@ 000000018003cbb8     VImage.obj
 0002:00008bc8       ??_C@_09EJGJDCNE@LabQ2LabS@ 000000018003cbc8     VImage.obj
 0002:00008bd8       ??_C@_09OFNJONNH@LabQ2sRGB@ 000000018003cbd8     VImage.obj
 0002:00008be8       ??_C@_08LPNPDIKD@LabS2Lab@ 000000018003cbe8     VImage.obj
 0002:00008bf8       ??_C@_09OMMAEBHP@LabS2LabQ@ 000000018003cbf8     VImage.obj
 0002:00008c08       ??_C@_08FCMPNBAF@XYZ2CMYK@ 000000018003cc08     VImage.obj
 0002:00008c18       ??_C@_07BDLLOLEB@XYZ2Lab@  000000018003cc18     VImage.obj
 0002:00008c20       ??_C@_07MOLNBPIJ@XYZ2Yxy@  000000018003cc20     VImage.obj
 0002:00008c28       ??_C@_09BGOHPOHE@XYZ2scRGB@ 000000018003cc28     VImage.obj
 0002:00008c38       ??_C@_07NFHPGGHE@Yxy2XYZ@  000000018003cc38     VImage.obj
 0002:00008c40       ??_C@_03BCGAIFPO@abs@      000000018003cc40     VImage.obj
 0002:00008c44       ??_C@_04GOOOJOPP@left@     000000018003cc44     VImage.obj
 0002:00008c4c       ??_C@_05DHJDAOHK@right@    000000018003cc4c     VImage.obj
 0002:00008c54       ??_C@_03BDGOHNNK@add@      000000018003cc54     VImage.obj
 0002:00008c58       ??_C@_06CGNOPMBC@matrix@   000000018003cc58     VImage.obj
 0002:00008c60       ??_C@_06JLGAMIDL@affine@   000000018003cc60     VImage.obj
 0002:00008c68       ??_C@_0M@GFDAFAKN@analyzeload@ 000000018003cc68     VImage.obj
 0002:00008c78       ??_C@_09BPCDKABO@arrayjoin@ 000000018003cc78     VImage.obj
 0002:00008c88       ??_C@_07HKPDIIIM@autorot@  000000018003cc88     VImage.obj
 0002:00008c90       ??_C@_03CHOBFJAH@avg@      000000018003cc90     VImage.obj
 0002:00008c98       ??_C@_07GOBOHMJA@boolean@  000000018003cc98     VImage.obj
 0002:00008ca0       ??_C@_08DFLKPDGM@bandbool@ 000000018003cca0     VImage.obj
 0002:00008cb0       ??_C@_08KKFGBPN@bandfold@  000000018003ccb0     VImage.obj
 0002:00008cc0       ??_C@_08DDHBKGJN@bandjoin@ 000000018003ccc0     VImage.obj
 0002:00008ccc       ??_C@_01PAPGNFGE@c@        000000018003cccc     VImage.obj
 0002:00008cd0       ??_C@_0P@CNLDBNGG@bandjoin_const@ 000000018003ccd0     VImage.obj
 0002:00008ce0       ??_C@_08OAPPMLFB@bandmean@ 000000018003cce0     VImage.obj
 0002:00008cf0       ??_C@_08PLAGOPCN@bandrank@ 000000018003ccf0     VImage.obj
 0002:00008d00       ??_C@_0L@NLCAJCCK@bandunfold@ 000000018003cd00     VImage.obj
 0002:00008d0c       ??_C@_05IGKADHGO@width@    000000018003cd0c     VImage.obj
 0002:00008d14       ??_C@_06LNLHEAAG@height@   000000018003cd14     VImage.obj
 0002:00008d1c       ??_C@_05BIMBDNDC@black@    000000018003cd1c     VImage.obj
 0002:00008d28       ??_C@_0O@FFEJDDPG@boolean_const@ 000000018003cd28     VImage.obj
 0002:00008d38       ??_C@_08OKOAJEOP@buildlut@ 000000018003cd38     VImage.obj
 0002:00008d48       ??_C@_08LGNCHIMC@byteswap@ 000000018003cd48     VImage.obj
 0002:00008d54       ??_C@_05BDNCCAMC@cache@    000000018003cd54     VImage.obj
 0002:00008d5c       ??_C@_05DECNJPA@canny@     000000018003cd5c     VImage.obj
 0002:00008d64       ??_C@_06DLEPGFEF@format@   000000018003cd64     VImage.obj
 0002:00008d6c       ??_C@_04HJDBPPOC@cast@     000000018003cd6c     VImage.obj
 0002:00008d74       ??_C@_05OLNILLAB@space@    000000018003cd74     VImage.obj
 0002:00008d80       ??_C@_0M@GKGJPELG@colourspace@ 000000018003cd80     VImage.obj
 0002:00008d8c       ??_C@_04LFLEPBN@mask@      000000018003cd8c     VImage.obj
 0002:00008d98       ??_C@_07CFMACLND@compass@  000000018003cd98     VImage.obj
 0002:00008da0       ??_C@_05GMOLPBHC@cmplx@    000000018003cda0     VImage.obj
 0002:00008da8       ??_C@_07CMPFPFAH@complex@  000000018003cda8     VImage.obj
 0002:00008db0       ??_C@_08HDDIDECH@complex2@ 000000018003cdb0     VImage.obj
 0002:00008dc0       ??_C@_0M@IHNKDMPF@complexform@ 000000018003cdc0     VImage.obj
 0002:00008dcc       ??_C@_03HNAFFKGA@get@      000000018003cdcc     VImage.obj
 0002:00008dd0       ??_C@_0L@CONHPEB@complexget@ 000000018003cdd0     VImage.obj
 0002:00008ddc       ??_C@_04GMGOKAFF@mode@     000000018003cddc     VImage.obj
 0002:00008de8       ??_C@_09EIHFMDLJ@composite@ 000000018003cde8     VImage.obj
 0002:00008df4       ??_C@_04BHIIPFEC@base@     000000018003cdf4     VImage.obj
 0002:00008e00       ??_C@_07BJNHBMF@overlay@   000000018003ce00     VImage.obj
 0002:00008e08       ??_C@_0L@FPIFCKJK@composite2@ 000000018003ce08     VImage.obj
 0002:00008e14       ??_C@_04LPCGNKHA@conv@     000000018003ce14     VImage.obj
 0002:00008e1c       ??_C@_05CMFMANAA@conva@    000000018003ce1c     VImage.obj
 0002:00008e28       ??_C@_08MPNKBMPB@convasep@ 000000018003ce28     VImage.obj
 0002:00008e34       ??_C@_05GDBNJLMH@convf@    000000018003ce34     VImage.obj
 0002:00008e3c       ??_C@_05OEIFIHAI@convi@    000000018003ce3c     VImage.obj
 0002:00008e48       ??_C@_07OFICLPMI@convsep@  000000018003ce48     VImage.obj
 0002:00008e50       ??_C@_04COAGEIMF@copy@     000000018003ce50     VImage.obj
 0002:00008e58       ??_C@_07FIKBNHMA@nolines@  000000018003ce58     VImage.obj
 0002:00008e60       ??_C@_09HPKLLIJF@direction@ 000000018003ce60     VImage.obj
 0002:00008e70       ??_C@_0L@GADDFICP@countlines@ 000000018003ce70     VImage.obj
 0002:00008e7c       ??_C@_05DFJCHPDH@input@    000000018003ce7c     VImage.obj
 0002:00008e84       ??_C@_03FGFCOCMD@top@      000000018003ce84     VImage.obj
 0002:00008e88       ??_C@_04EKMNJIID@crop@     000000018003ce88     VImage.obj
 0002:00008e90       ??_C@_07LDEBNBAJ@csvload@  000000018003ce90     VImage.obj
 0002:00008e98       ??_C@_07LBFMCCNN@csvsave@  000000018003ce98     VImage.obj
 0002:00008ea0       ??_C@_04CIIKCAD@dE00@      000000018003cea0     VImage.obj
 0002:00008ea8       ??_C@_04FBJNBDAA@dE76@     000000018003cea8     VImage.obj
 0002:00008eb0       ??_C@_05GHPMDBKP@dECMC@    000000018003ceb0     VImage.obj
 0002:00008eb8       ??_C@_07JGEDNJHN@deviate@  000000018003ceb8     VImage.obj
 0002:00008ec0       ??_C@_06FFHJEHBN@divide@   000000018003cec0     VImage.obj
 0002:00008ec8       ??_C@_05NGOMGBBD@image@    000000018003cec8     VImage.obj
 0002:00008ed0       ??_C@_03FMNFMMCM@ink@      000000018003ced0     VImage.obj
 0002:00008ed4       ??_C@_02KNMJKAGK@cx@       000000018003ced4     VImage.obj
 0002:00008ed8       ??_C@_02LENCJBCL@cy@       000000018003ced8     VImage.obj
 0002:00008edc       ??_C@_06KGHINEPG@radius@   000000018003cedc     VImage.obj
 0002:00008ee8       ??_C@_0M@EJLCOLOD@draw_circle@ 000000018003cee8     VImage.obj
 0002:00008ef4       ??_C@_01FJMABOPO@x@        000000018003cef4     VImage.obj
 0002:00008ef8       ??_C@_01EANLCPLP@y@        000000018003cef8     VImage.obj
 0002:00008f00       ??_C@_0L@BNOJNJNM@draw_flood@ 000000018003cf00     VImage.obj
 0002:00008f0c       ??_C@_03KCMAIMAP@sub@      000000018003cf0c     VImage.obj
 0002:00008f10       ??_C@_0L@CGAIFFHD@draw_image@ 000000018003cf10     VImage.obj
 0002:00008f1c       ??_C@_02JMABBILH@x1@       000000018003cf1c     VImage.obj
 0002:00008f20       ??_C@_02JNMDHCIA@y1@       000000018003cf20     VImage.obj
 0002:00008f24       ??_C@_02LHCMELHE@x2@       000000018003cf24     VImage.obj
 0002:00008f28       ??_C@_02LGOOCBED@y2@       000000018003cf28     VImage.obj
 0002:00008f30       ??_C@_09JCFFHHHP@draw_line@ 000000018003cf30     VImage.obj
 0002:00008f40       ??_C@_09OAPMGLIN@draw_mask@ 000000018003cf40     VImage.obj
 0002:00008f50       ??_C@_09FMFCFBGH@draw_rect@ 000000018003cf50     VImage.obj
 0002:00008f60       ??_C@_0M@JGFPDOHD@draw_smudge@ 000000018003cf60     VImage.obj
 0002:00008f6c       ??_C@_06MCMNOHKJ@dzsave@   000000018003cf6c     VImage.obj
 0002:00008f78       ??_C@_0O@IEFJKPDJ@dzsave_buffer@ 000000018003cf78     VImage.obj
 0002:00008f88       ??_C@_05KJAEOLKJ@embed@    000000018003cf88     VImage.obj
 0002:00008f90       ??_C@_0N@NKELEKIM@extract_area@ 000000018003cf90     VImage.obj
 0002:00008fa0       ??_C@_04BKGNPECA@band@     000000018003cfa0     VImage.obj
 0002:00008fa8       ??_C@_0N@KOGFNDIJ@extract_band@ 000000018003cfa8     VImage.obj
 0002:00008fb8       ??_C@_03JBOJOLOP@eye@      000000018003cfb8     VImage.obj
 0002:00008fc0       ??_C@_0M@HLKJCLJA@falsecolour@ 000000018003cfc0     VImage.obj
 0002:00008fcc       ??_C@_03GCDGINBO@ref@      000000018003cfcc     VImage.obj
 0002:00008fd0       ??_C@_07FHGNDIBP@fastcor@  000000018003cfd0     VImage.obj
 0002:00008fd8       ??_C@_0N@JKNBFHJA@fill_nearest@ 000000018003cfd8     VImage.obj
 0002:00008fe8       ??_C@_09CNDNHPEB@find_trim@ 000000018003cfe8     VImage.obj
 0002:00008ff8       ??_C@_08BLLJFBBF@fitsload@ 000000018003cff8     VImage.obj
 0002:00009008       ??_C@_08BJKEKCMB@fitssave@ 000000018003d008     VImage.obj
 0002:00009018       ??_C@_07FOIKENOC@flatten@  000000018003d018     VImage.obj
 0002:00009020       ??_C@_04DGGGELON@flip@     000000018003d020     VImage.obj
 0002:00009028       ??_C@_09JMDBKHNK@float2rad@ 000000018003d028     VImage.obj
 0002:00009038       ??_C@_0BC@CLPCNNOE@fractal_dimension@ 000000018003d038     VImage.obj
 0002:00009050       ??_C@_09KODEALMJ@fractsurf@ 000000018003d050     VImage.obj
 0002:00009060       ??_C@_08PGNHFFFA@freqmult@ 000000018003d060     VImage.obj
 0002:0000906c       ??_C@_05MCCGCNHL@fwfft@    000000018003d06c     VImage.obj
 0002:00009074       ??_C@_05KDLBCAI@gamma@     000000018003d074     VImage.obj
 0002:0000907c       ??_C@_05MNLBPJCA@sigma@    000000018003d07c     VImage.obj
 0002:00009088       ??_C@_09NOBOKBD@gaussblur@ 000000018003d088     VImage.obj
 0002:00009098       ??_C@_08KNIIIGHA@min_ampl@ 000000018003d098     VImage.obj
 0002:000090a8       ??_C@_08HLCLIPNO@gaussmat@ 000000018003d0a8     VImage.obj
 0002:000090b8       ??_C@_0L@LHFGAHGN@gaussnoise@ 000000018003d0b8     VImage.obj
 0002:000090c8       ??_C@_09ENEOCMDF@out_array@ 000000018003d0c8     VImage.obj
 0002:000090d8       ??_C@_08POKMFCNH@getpoint@ 000000018003d0d8     VImage.obj
 0002:000090e8       ??_C@_07PHHDBOOI@gifload@  000000018003d0e8     VImage.obj
 0002:000090f0       ??_C@_0P@DMLKCHMD@gifload_buffer@ 000000018003d0f0     VImage.obj
 0002:00009100       ??_C@_0O@GIJIBKOK@globalbalance@ 000000018003d100     VImage.obj
 0002:00009110       ??_C@_07GFBFDLBM@gravity@  000000018003d110     VImage.obj
 0002:00009118       ??_C@_04GDBIAANM@grey@     000000018003d118     VImage.obj
 0002:00009120       ??_C@_0M@GPCIKFO@tile_height@ 000000018003d120     VImage.obj
 0002:0000912c       ??_C@_06HDMALCOC@across@   000000018003d12c     VImage.obj
 0002:00009134       ??_C@_04JMOKAGMG@down@     000000018003d134     VImage.obj
 0002:0000913c       ??_C@_04JFGOJFKE@grid@     000000018003d13c     VImage.obj
 0002:00009148       ??_C@_08NBMGPBOO@heifload@ 000000018003d148     VImage.obj
 0002:00009158       ??_C@_0BA@OFAGMMCI@heifload_buffer@ 000000018003d158     VImage.obj
 0002:00009168       ??_C@_08NDNLACDK@heifsave@ 000000018003d168     VImage.obj
 0002:00009178       ??_C@_0BA@BLPFBLHB@heifsave_buffer@ 000000018003d178     VImage.obj
 0002:00009188       ??_C@_08GNGDEJLK@hist_cum@ 000000018003d188     VImage.obj
 0002:00009198       ??_C@_0N@LNGDFBMF@hist_entropy@ 000000018003d198     VImage.obj
 0002:000091a8       ??_C@_0L@CHADGNHE@hist_equal@ 000000018003d1a8     VImage.obj
 0002:000091b8       ??_C@_09PKCBEOHG@hist_find@ 000000018003d1b8     VImage.obj
 0002:000091c4       ??_C@_05FKHKFDID@index@    000000018003d1c4     VImage.obj
 0002:000091d0       ??_C@_0BC@CKAIJALJ@hist_find_indexed@ 000000018003d1d0     VImage.obj
 0002:000091e8       ??_C@_0P@CCEOOJJO@hist_find_ndim@ 000000018003d1e8     VImage.obj
 0002:000091f8       ??_C@_09FKNHDPAJ@monotonic@ 000000018003d1f8     VImage.obj
 0002:00009208       ??_C@_0BB@BJFODBKP@hist_ismonotonic@ 000000018003d208     VImage.obj
 0002:00009220       ??_C@_0L@KKKOBNBM@hist_local@ 000000018003d220     VImage.obj
 0002:00009230       ??_C@_0L@HEOEAOJE@hist_match@ 000000018003d230     VImage.obj
 0002:00009240       ??_C@_09CLMELLDG@hist_norm@ 000000018003d240     VImage.obj
 0002:00009250       ??_C@_09GJFPKEAA@hist_plot@ 000000018003d250     VImage.obj
 0002:00009260       ??_C@_0N@EPCNCOFH@hough_circle@ 000000018003d260     VImage.obj
 0002:00009270       ??_C@_0L@DLDHKKAG@hough_line@ 000000018003d270     VImage.obj
 0002:00009280       ??_C@_0L@NEJHOOGO@icc_export@ 000000018003d280     VImage.obj
 0002:00009290       ??_C@_0L@EACMBHDC@icc_import@ 000000018003d290     VImage.obj
 0002:000092a0       ??_C@_0P@PEHDBPID@output_profile@ 000000018003d2a0     VImage.obj
 0002:000092b0       ??_C@_0O@JCOEDNPE@icc_transform@ 000000018003d2b0     VImage.obj
 0002:000092c0       ??_C@_08LBJOIDDC@identity@ 000000018003d2c0     VImage.obj
 0002:000092cc       ??_C@_04MHNCKKKD@cond@     000000018003d2cc     VImage.obj
 0002:000092d4       ??_C@_03BMIBHJPC@in1@      000000018003d2d4     VImage.obj
 0002:000092d8       ??_C@_03DHKMCKDB@in2@      000000018003d2d8     VImage.obj
 0002:000092e0       ??_C@_0L@EIDGEPEL@ifthenelse@ 000000018003d2e0     VImage.obj
 0002:000092ec       ??_C@_04GHJNJNPO@main@     000000018003d2ec     VImage.obj
 0002:000092f4       ??_C@_06OAOPNKHP@insert@   000000018003d2f4     VImage.obj
 0002:000092fc       ??_C@_06CIAPFFAP@invert@   000000018003d2fc     VImage.obj
 0002:00009308       ??_C@_09DELGKNGH@invertlut@ 000000018003d308     VImage.obj
 0002:00009314       ??_C@_06CBJFPBEN@invfft@   000000018003d314     VImage.obj
 0002:0000931c       ??_C@_04DFGCDGNN@join@     000000018003d31c     VImage.obj
 0002:00009328       ??_C@_08MHJHFPPG@jpegload@ 000000018003d328     VImage.obj
 0002:00009338       ??_C@_0BA@OCCAIACH@jpegload_buffer@ 000000018003d338     VImage.obj
 0002:00009348       ??_C@_08MFIKKMCC@jpegsave@ 000000018003d348     VImage.obj
 0002:00009358       ??_C@_0BA@BMNDFHHO@jpegsave_buffer@ 000000018003d358     VImage.obj
 0002:00009368       ??_C@_0O@GEECBBEC@jpegsave_mime@ 000000018003d368     VImage.obj
 0002:00009378       ??_C@_0N@MBCCJMPJ@labelregions@ 000000018003d378     VImage.obj
 0002:00009388       ??_C@_01MCMALHOG@a@        000000018003d388     VImage.obj
 0002:0000938c       ??_C@_01OJONOECF@b@        000000018003d38c     VImage.obj
 0002:00009390       ??_C@_06HPJICMPM@linear@   000000018003d390     VImage.obj
 0002:00009398       ??_C@_09GGGOOLNN@linecache@ 000000018003d398     VImage.obj
 0002:000093a4       ??_C@_06DHDPCCPJ@logmat@   000000018003d3a4     VImage.obj
 0002:000093b0       ??_C@_0L@GJNFHGND@magickload@ 000000018003d3b0     VImage.obj
 0002:000093c0       ??_C@_0BC@NAIBKHPN@magickload_buffer@ 000000018003d3c0     VImage.obj
 0002:000093d8       ??_C@_0L@GLMIIFAH@magicksave@ 000000018003d3d8     VImage.obj
 0002:000093e8       ??_C@_0BC@COHCHAKE@magicksave_buffer@ 000000018003d3e8     VImage.obj
 0002:000093fc       ??_C@_05KCGPFJPM@mapim@    000000018003d3fc     VImage.obj
 0002:00009404       ??_C@_03LGCCHOBB@lut@      000000018003d404     VImage.obj
 0002:00009408       ??_C@_06NKBBGPGG@maplut@   000000018003d408     VImage.obj
 0002:00009410       ??_C@_05NDNMCCJH@order@    000000018003d410     VImage.obj
 0002:00009418       ??_C@_0BB@LCNLIDKA@frequency_cutoff@ 000000018003d418     VImage.obj
 0002:00009430       ??_C@_0BB@MANGJMJN@amplitude_cutoff@ 000000018003d430     VImage.obj
 0002:00009448       ??_C@_0BB@PCPOEAAM@mask_butterworth@ 000000018003d448     VImage.obj
 0002:00009460       ??_C@_0BD@FKLAEGNL@frequency_cutoff_x@ 000000018003d460     VImage.obj
 0002:00009478       ??_C@_0BD@EDKLHHJK@frequency_cutoff_y@ 000000018003d478     VImage.obj
 0002:00009490       ??_C@_0BG@BJFMCODJ@mask_butterworth_band@ 000000018003d490     VImage.obj
 0002:000094a8       ??_C@_09FNOEFMAD@ringwidth@ 000000018003d4a8     VImage.obj
 0002:000094b8       ??_C@_0BG@JHCFMCJH@mask_butterworth_ring@ 000000018003d4b8     VImage.obj
 0002:000094d0       ??_C@_0N@PNMGGNMD@mask_fractal@ 000000018003d4d0     VImage.obj
 0002:000094e0       ??_C@_0O@PDKKOMCP@mask_gaussian@ 000000018003d4e0     VImage.obj
 0002:000094f0       ??_C@_0BD@OKCOGKHN@mask_gaussian_band@ 000000018003d4f0     VImage.obj
 0002:00009508       ??_C@_0BD@GEFHIGND@mask_gaussian_ring@ 000000018003d508     VImage.obj
 0002:00009520       ??_C@_0L@GPMDCNFD@mask_ideal@ 000000018003d520     VImage.obj
 0002:00009530       ??_C@_0BA@ICAPNLGJ@mask_ideal_band@ 000000018003d530     VImage.obj
 0002:00009540       ??_C@_0BA@MHGDHMH@mask_ideal_ring@ 000000018003d540     VImage.obj
 0002:00009550       ??_C@_03KHPNBODO@sec@      000000018003d550     VImage.obj
 0002:00009554       ??_C@_03OBBIBDBM@xr1@      000000018003d554     VImage.obj
 0002:00009558       ??_C@_03FJKEHEHJ@yr1@      000000018003d558     VImage.obj
 0002:0000955c       ??_C@_03OANKHJCL@xs1@      000000018003d55c     VImage.obj
 0002:00009560       ??_C@_03FIGGBOEO@ys1@      000000018003d560     VImage.obj
 0002:00009564       ??_C@_03MKDFEANP@xr2@      000000018003d564     VImage.obj
 0002:00009568       ??_C@_03HCIJCHLK@yr2@      000000018003d568     VImage.obj
 0002:0000956c       ??_C@_03MLPHCKOI@xs2@      000000018003d56c     VImage.obj
 0002:00009570       ??_C@_03HDELENIN@ys2@      000000018003d570     VImage.obj
 0002:00009574       ??_C@_05FNONLPDI@match@    000000018003d574     VImage.obj
 0002:0000957c       ??_C@_04CFDJAKFL@math@     000000018003d57c     VImage.obj
 0002:00009584       ??_C@_05BBOMOFAH@math2@    000000018003d584     VImage.obj
 0002:00009590       ??_C@_0M@PKPOKBCN@math2_const@ 000000018003d590     VImage.obj
 0002:000095a0       ??_C@_07BLECOPNH@matload@  000000018003d5a0     VImage.obj
 0002:000095a8       ??_C@_0L@PMHLAKGB@matrixload@ 000000018003d5a8     VImage.obj
 0002:000095b8       ??_C@_0M@FFFNKKNM@matrixprint@ 000000018003d5b8     VImage.obj
 0002:000095c8       ??_C@_0L@POGGPJLF@matrixsave@ 000000018003d5c8     VImage.obj
 0002:000095d4       ??_C@_03LJAEFNNE@max@      000000018003d5d4     VImage.obj
 0002:000095d8       ??_C@_01BDACAMKP@h@        000000018003d5d8     VImage.obj
 0002:000095dc       ??_C@_01MHEDDDHA@v@        000000018003d5dc     VImage.obj
 0002:000095e0       ??_C@_07GGHJMDCM@measure@  000000018003d5e0     VImage.obj
 0002:000095e8       ??_C@_02KIIGLGOP@dx@       000000018003d5e8     VImage.obj
 0002:000095ec       ??_C@_02LBJNIHKO@dy@       000000018003d5ec     VImage.obj
 0002:000095f0       ??_C@_05DPKBJALF@merge@    000000018003d5f0     VImage.obj
 0002:000095f8       ??_C@_03KLIPLJLL@min@      000000018003d5f8     VImage.obj
 0002:000095fc       ??_C@_05NJNGEDKM@morph@    000000018003d5fc     VImage.obj
 0002:00009604       ??_C@_04EMPCAOBB@xref@     000000018003d604     VImage.obj
 0002:0000960c       ??_C@_04HBJCCHKB@yref@     000000018003d60c     VImage.obj
 0002:00009614       ??_C@_04IJDJJNDB@xsec@     000000018003d614     VImage.obj
 0002:0000961c       ??_C@_04LEFJLEIB@ysec@     000000018003d61c     VImage.obj
 0002:00009624       ??_C@_06EFGOHCJJ@mosaic@   000000018003d624     VImage.obj
 0002:00009630       ??_C@_07EPMLECCA@mosaic1@  000000018003d630     VImage.obj
 0002:00009638       ??_C@_03BGILNABB@msb@      000000018003d638     VImage.obj
 0002:00009640       ??_C@_08MMOCDOEL@multiply@ 000000018003d640     VImage.obj
 0002:00009650       ??_C@_09HFMAOFIO@niftiload@ 000000018003d650     VImage.obj
 0002:00009660       ??_C@_09HHNNBGFK@niftisave@ 000000018003d660     VImage.obj
 0002:00009670       ??_C@_0M@PFMEODOM@openexrload@ 000000018003d670     VImage.obj
 0002:00009680       ??_C@_0O@MEOEBEEM@openslideload@ 000000018003d680     VImage.obj
 0002:00009690       ??_C@_07OANKEHBK@pdfload@  000000018003d690     VImage.obj
 0002:00009698       ??_C@_0P@FECDMHMN@pdfload_buffer@ 000000018003d698     VImage.obj
 0002:000096a8       ??_C@_09DEHKFMCJ@threshold@ 000000018003d6a8     VImage.obj
 0002:000096b8       ??_C@_07HCJJCOPK@percent@  000000018003d6b8     VImage.obj
 0002:000096c0       ??_C@_06JIFICDNB@perlin@   000000018003d6c0     VImage.obj
 0002:000096c8       ??_C@_08GMOPJMAN@phasecor@ 000000018003d6c8     VImage.obj
 0002:000096d8       ??_C@_07IPPGMLPB@pngload@  000000018003d6d8     VImage.obj
 0002:000096e0       ??_C@_0P@FLICMEND@pngload_buffer@ 000000018003d6e0     VImage.obj
 0002:000096f0       ??_C@_07INOLDICF@pngsave@  000000018003d6f0     VImage.obj
 0002:000096f8       ??_C@_0P@KFHBBDIK@pngsave_buffer@ 000000018003d6f8     VImage.obj
 0002:00009708       ??_C@_07BJIMAPAE@ppmload@  000000018003d708     VImage.obj
 0002:00009710       ??_C@_07BLJBPMNA@ppmsave@  000000018003d710     VImage.obj
 0002:00009718       ??_C@_0M@OEPEEJHI@premultiply@ 000000018003d718     VImage.obj
 0002:00009728       ??_C@_07HIFEPIJN@columns@  000000018003d728     VImage.obj
 0002:00009730       ??_C@_04IMCGAIPI@rows@     000000018003d730     VImage.obj
 0002:00009738       ??_C@_07LNMDFKEJ@profile@  000000018003d738     VImage.obj
 0002:00009740       ??_C@_04MEMAJGDJ@name@     000000018003d740     VImage.obj
 0002:00009748       ??_C@_0N@LJAKOFJN@profile_load@ 000000018003d748     VImage.obj
 0002:00009758       ??_C@_07GKGAGMNN@project@  000000018003d758     VImage.obj
 0002:00009760       ??_C@_05KIDKLPLG@coeff@    000000018003d760     VImage.obj
 0002:00009768       ??_C@_09NDEBDKFB@quadratic@ 000000018003d768     VImage.obj
 0002:00009778       ??_C@_09CNOAMBEK@rad2float@ 000000018003d778     VImage.obj
 0002:00009788       ??_C@_07LNAPMOML@radload@  000000018003d788     VImage.obj
 0002:00009790       ??_C@_07LPBCDNBP@radsave@  000000018003d790     VImage.obj
 0002:00009798       ??_C@_0P@OGKJHKCD@radsave_buffer@ 000000018003d798     VImage.obj
 0002:000097a8       ??_C@_04PNBFHPGN@rank@     000000018003d7a8     VImage.obj
 0002:000097b0       ??_C@_05DPGGGHAJ@bands@    000000018003d7b0     VImage.obj
 0002:000097b8       ??_C@_07DIENLOPO@rawload@  000000018003d7b8     VImage.obj
 0002:000097c0       ??_C@_07DKFAENCK@rawsave@  000000018003d7c0     VImage.obj
 0002:000097c8       ??_C@_02ENHFDPNM@fd@       000000018003d7c8     VImage.obj
 0002:000097d0       ??_C@_0L@MFMDKFHF@rawsave_fd@ 000000018003d7d0     VImage.obj
 0002:000097dc       ??_C@_01GOHFPIOK@m@        000000018003d7dc     VImage.obj
 0002:000097e0       ??_C@_06OLEOMEPE@recomb@   000000018003d7e0     VImage.obj
 0002:000097e8       ??_C@_07KBIIIDHJ@hshrink@  000000018003d7e8     VImage.obj
 0002:000097f0       ??_C@_07MILJKAGA@vshrink@  000000018003d7f0     VImage.obj
 0002:000097f8       ??_C@_06CDBFBENC@reduce@   000000018003d7f8     VImage.obj
 0002:00009800       ??_C@_07MFNKEHED@reduceh@  000000018003d800     VImage.obj
 0002:00009808       ??_C@_07BBJLHIJM@reducev@  000000018003d808     VImage.obj
 0002:00009810       ??_C@_0L@NEPEPHDK@relational@ 000000018003d810     VImage.obj
 0002:00009820       ??_C@_0BB@FKPDFKGH@relational_const@ 000000018003d820     VImage.obj
 0002:00009838       ??_C@_09HALKBBKJ@remainder@ 000000018003d838     VImage.obj
 0002:00009848       ??_C@_0BA@MDCPNGEH@remainder_const@ 000000018003d848     VImage.obj
 0002:00009858       ??_C@_09CBPKCNMB@replicate@ 000000018003d858     VImage.obj
 0002:00009864       ??_C@_05MHMEBBGO@scale@    000000018003d864     VImage.obj
 0002:0000986c       ??_C@_06PIONCPJI@resize@   000000018003d86c     VImage.obj
 0002:00009874       ??_C@_05FECBCJJD@angle@    000000018003d874     VImage.obj
 0002:0000987c       ??_C@_03BHFFHIBL@rot@      000000018003d87c     VImage.obj
 0002:00009880       ??_C@_05HGLLKKDL@rot45@    000000018003d880     VImage.obj
 0002:00009888       ??_C@_06CEHMNFAL@rotate@   000000018003d888     VImage.obj
 0002:00009890       ??_C@_05MIMAKCN@round@     000000018003d890     VImage.obj
 0002:00009898       ??_C@_08DLNPBGF@sRGB2HSV@  000000018003d898     VImage.obj
 0002:000098a8       ??_C@_0L@CFFEDAKI@sRGB2scRGB@ 000000018003d8a8     VImage.obj
 0002:000098b8       ??_C@_08NGFONIGN@scRGB2BW@ 000000018003d8b8     VImage.obj
 0002:000098c8       ??_C@_09EGLLGMBC@scRGB2XYZ@ 000000018003d8c8     VImage.obj
 0002:000098d8       ??_C@_0L@EEFOEOJE@scRGB2sRGB@ 000000018003d8d8     VImage.obj
 0002:000098e8       ??_C@_0L@OGEPILOF@sequential@ 000000018003d8e8     VImage.obj
 0002:000098f8       ??_C@_07JOLMDEEJ@sharpen@  000000018003d8f8     VImage.obj
 0002:00009900       ??_C@_06FKMIDIGA@shrink@   000000018003d900     VImage.obj
 0002:00009908       ??_C@_07OAMMEIMP@shrinkh@  000000018003d908     VImage.obj
 0002:00009910       ??_C@_07DEINHHBA@shrinkv@  000000018003d910     VImage.obj
 0002:00009918       ??_C@_04HHGHLBPI@sign@     000000018003d918     VImage.obj
 0002:00009920       ??_C@_0L@FLEFHLED@similarity@ 000000018003d920     VImage.obj
 0002:0000992c       ??_C@_05MGFOJHMB@sines@    000000018003d92c     VImage.obj
 0002:00009938       ??_C@_09CIDCHBHA@smartcrop@ 000000018003d938     VImage.obj
 0002:00009944       ??_C@_05MOJCNDEH@sobel@    000000018003d944     VImage.obj
 0002:0000994c       ??_C@_05ENEIAOHI@spcor@    000000018003d94c     VImage.obj
 0002:00009958       ??_C@_08GEGLAKCO@spectrum@ 000000018003d958     VImage.obj
 0002:00009964       ??_C@_05BLKJBNOD@stats@    000000018003d964     VImage.obj
 0002:0000996c       ??_C@_05PDMDLOG@stdif@     000000018003d96c     VImage.obj
 0002:00009974       ??_C@_04OJPHJCEA@xfac@     000000018003d974     VImage.obj
 0002:0000997c       ??_C@_04NEJHLLPA@yfac@     000000018003d97c     VImage.obj
 0002:00009988       ??_C@_09GEADCAMB@subsample@ 000000018003d988     VImage.obj
 0002:00009998       ??_C@_08LJLIHDOM@subtract@ 000000018003d998     VImage.obj
 0002:000099a4       ??_C@_03CFFIJAMA@sum@      000000018003d9a4     VImage.obj
 0002:000099a8       ??_C@_07FFEIBOLL@svgload@  000000018003d9a8     VImage.obj
 0002:000099b0       ??_C@_0P@BPBEIMPA@svgload_buffer@ 000000018003d9b0     VImage.obj
 0002:000099c0       ??_C@_0L@KNACEFOM@cmd_format@ 000000018003d9c0     VImage.obj
 0002:000099cc       ??_C@_04CIMGMMMG@text@     000000018003d9cc     VImage.obj
 0002:000099d8       ??_C@_09GEFHAABJ@thumbnail@ 000000018003d9d8     VImage.obj
 0002:000099e8       ??_C@_0BB@FMNLLCML@thumbnail_buffer@ 000000018003d9e8     VImage.obj
 0002:00009a00       ??_C@_0BA@HAJBKBKF@thumbnail_image@ 000000018003da00     VImage.obj
 0002:00009a10       ??_C@_08DKNFCFCN@tiffload@ 000000018003da10     VImage.obj
 0002:00009a20       ??_C@_0BA@LHGCDMGM@tiffload_buffer@ 000000018003da20     VImage.obj
 0002:00009a30       ??_C@_08DIMINGPJ@tiffsave@ 000000018003da30     VImage.obj
 0002:00009a40       ??_C@_0BA@EJJBOLDF@tiffsave_buffer@ 000000018003da40     VImage.obj
 0002:00009a50       ??_C@_09BADCCNLM@tilecache@ 000000018003da50     VImage.obj
 0002:00009a60       ??_C@_07MEIMELBF@tonelut@  000000018003da60     VImage.obj
 0002:00009a68       ??_C@_0M@NIPMOMC@transpose3d@ 000000018003da68     VImage.obj
 0002:00009a78       ??_C@_0O@NEEDPNBG@unpremultiply@ 000000018003da78     VImage.obj
 0002:00009a88       ??_C@_08EDDGDHHH@vipsload@ 000000018003da88     VImage.obj
 0002:00009a98       ??_C@_08EBCLMEKD@vipssave@ 000000018003da98     VImage.obj
 0002:00009aa8       ??_C@_08HFDHMJDC@webpload@ 000000018003daa8     VImage.obj
 0002:00009ab8       ??_C@_0BA@NGBBNHGG@webpload_buffer@ 000000018003dab8     VImage.obj
 0002:00009ac8       ??_C@_08HHCKDKOG@webpsave@ 000000018003dac8     VImage.obj
 0002:00009ad8       ??_C@_0BA@CIOCAADP@webpsave_buffer@ 000000018003dad8     VImage.obj
 0002:00009ae8       ??_C@_06PAPNEDML@worley@   000000018003dae8     VImage.obj
 0002:00009af0       ??_C@_04NFDDIEML@wrap@     000000018003daf0     VImage.obj
 0002:00009af8       ??_C@_03POMAGKDD@xyz@      000000018003daf8     VImage.obj
 0002:00009afc       ??_C@_04LDDJGOBB@zone@     000000018003dafc     VImage.obj
 0002:00009b04       ??_C@_04HKCCIOCO@zoom@     000000018003db04     VImage.obj
 0002:00009b10       ??_C@_0BD@OLBABOEK@vector?$DMT?$DO?5too?5long@ 000000018003db10     VImage.obj
 0002:00009fb0       __real@3ff0000000000000    000000018003dfb0     VImage.obj
 0002:00009fb8       __real@bff0000000000000    000000018003dfb8     VImage.obj
 0002:00009fc0       __xmm@000000000000000f0000000000000000 000000018003dfc0     VError.obj
 0002:00009fd0       __xmm@80000000000000008000000000000000 000000018003dfd0     VImage.obj
 0002:0000dd70       _load_config_used          0000000180041d70     LIBCMT:loadcfg.obj
 0002:0000de78       ??_R4exception@std@@6B@    0000000180041e78     libcpmt:xonce.obj
 0002:0000dea0       ??_R3exception@std@@8      0000000180041ea0     libcpmt:xonce.obj
 0002:0000deb8       ??_R2exception@std@@8      0000000180041eb8     libcpmt:xonce.obj
 0002:0000dec8       ??_R1A@?0A@EA@exception@std@@8 0000000180041ec8     libcpmt:xonce.obj
 0002:0000def0       ??_R4runtime_error@std@@6B@ 0000000180041ef0     libcpmt:xonce.obj
 0002:0000df18       ??_R3runtime_error@std@@8  0000000180041f18     libcpmt:xonce.obj
 0002:0000df30       ??_R2runtime_error@std@@8  0000000180041f30     libcpmt:xonce.obj
 0002:0000df48       ??_R1A@?0A@EA@runtime_error@std@@8 0000000180041f48     libcpmt:xonce.obj
 0002:0000df70       ??_R4_System_error@std@@6B@ 0000000180041f70     libcpmt:xonce.obj
 0002:0000df98       ??_R3_System_error@std@@8  0000000180041f98     libcpmt:xonce.obj
 0002:0000dfb0       ??_R2_System_error@std@@8  0000000180041fb0     libcpmt:xonce.obj
 0002:0000dfd0       ??_R1A@?0A@EA@_System_error@std@@8 0000000180041fd0     libcpmt:xonce.obj
 0002:0000dff8       ??_R4system_error@std@@6B@ 0000000180041ff8     libcpmt:xonce.obj
 0002:0000e020       ??_R3system_error@std@@8   0000000180042020     libcpmt:xonce.obj
 0002:0000e038       ??_R2system_error@std@@8   0000000180042038     libcpmt:xonce.obj
 0002:0000e060       ??_R1A@?0A@EA@system_error@std@@8 0000000180042060     libcpmt:xonce.obj
 0002:0000e088       ??_R4bad_alloc@std@@6B@    0000000180042088     libcpmt:xthrow.obj
 0002:0000e0b0       ??_R3bad_alloc@std@@8      00000001800420b0     libcpmt:xthrow.obj
 0002:0000e0c8       ??_R2bad_alloc@std@@8      00000001800420c8     libcpmt:xthrow.obj
 0002:0000e0e0       ??_R1A@?0A@EA@bad_alloc@std@@8 00000001800420e0     libcpmt:xthrow.obj
 0002:0000e108       ??_R4logic_error@std@@6B@  0000000180042108     libcpmt:xthrow.obj
 0002:0000e130       ??_R3logic_error@std@@8    0000000180042130     libcpmt:xthrow.obj
 0002:0000e148       ??_R2logic_error@std@@8    0000000180042148     libcpmt:xthrow.obj
 0002:0000e160       ??_R1A@?0A@EA@logic_error@std@@8 0000000180042160     libcpmt:xthrow.obj
 0002:0000e188       ??_R4length_error@std@@6B@ 0000000180042188     libcpmt:xthrow.obj
 0002:0000e1b0       ??_R3length_error@std@@8   00000001800421b0     libcpmt:xthrow.obj
 0002:0000e1c8       ??_R2length_error@std@@8   00000001800421c8     libcpmt:xthrow.obj
 0002:0000e1e8       ??_R1A@?0A@EA@length_error@std@@8 00000001800421e8     libcpmt:xthrow.obj
 0002:0000e210       ??_R4type_info@@6B@        0000000180042210     LIBCMT:std_type_info_static.obj
 0002:0000e238       ??_R3type_info@@8          0000000180042238     LIBCMT:std_type_info_static.obj
 0002:0000e250       ??_R2type_info@@8          0000000180042250     LIBCMT:std_type_info_static.obj
 0002:0000e260       ??_R1A@?0A@EA@type_info@@8 0000000180042260     LIBCMT:std_type_info_static.obj
 0002:0000e288       ??_R4bad_array_new_length@std@@6B@ 0000000180042288     LIBCMT:throw_bad_alloc.obj
 0002:0000e2b0       ??_R3bad_array_new_length@std@@8 00000001800422b0     LIBCMT:throw_bad_alloc.obj
 0002:0000e2c8       ??_R2bad_array_new_length@std@@8 00000001800422c8     LIBCMT:throw_bad_alloc.obj
 0002:0000e2e8       ??_R1A@?0A@EA@bad_array_new_length@std@@8 00000001800422e8     LIBCMT:throw_bad_alloc.obj
 0002:0000e310       ??_R4bad_exception@std@@6B@ 0000000180042310     libvcruntime:frame.obj
 0002:0000e338       ??_R3bad_exception@std@@8  0000000180042338     libvcruntime:frame.obj
 0002:0000e350       ??_R2bad_exception@std@@8  0000000180042350     libvcruntime:frame.obj
 0002:0000e368       ??_R1A@?0A@EA@bad_exception@std@@8 0000000180042368     libvcruntime:frame.obj
 0002:0000e710       __rtc_iaa                  0000000180042710     LIBCMT:initsect.obj
 0002:0000e718       __rtc_izz                  0000000180042718     LIBCMT:initsect.obj
 0002:0000e720       __rtc_taa                  0000000180042720     LIBCMT:initsect.obj
 0002:0000e728       __rtc_tzz                  0000000180042728     LIBCMT:initsect.obj
 0002:00015388       _CT??_R0?AVexception@std@@@8??0exception@std@@QEAA@AEBV01@@Z24 0000000180049388     libcpmt:xonce.obj
 0002:000153b0       _TI2?AVbad_alloc@std@@     00000001800493b0     libcpmt:xthrow.obj
 0002:000153d0       _CTA2?AVbad_alloc@std@@    00000001800493d0     libcpmt:xthrow.obj
 0002:000153e8       _CT??_R0?AVbad_alloc@std@@@8??0bad_alloc@std@@QEAA@AEBV01@@Z24 00000001800493e8     libcpmt:xthrow.obj
 0002:00015410       _CT??_R0?AVlogic_error@std@@@8??0logic_error@std@@QEAA@AEBV01@@Z24 0000000180049410     libcpmt:xthrow.obj
 0002:00015438       _TI3?AVlength_error@std@@  0000000180049438     libcpmt:xthrow.obj
 0002:00015458       _CTA3?AVlength_error@std@@ 0000000180049458     libcpmt:xthrow.obj
 0002:00015478       _CT??_R0?AVlength_error@std@@@8??0length_error@std@@QEAA@AEBV01@@Z24 0000000180049478     libcpmt:xthrow.obj
 0002:000154a0       _TI3?AVbad_array_new_length@std@@ 00000001800494a0     LIBCMT:throw_bad_alloc.obj
 0002:000154c0       _CTA3?AVbad_array_new_length@std@@ 00000001800494c0     LIBCMT:throw_bad_alloc.obj
 0002:000154e0       _CT??_R0?AVbad_array_new_length@std@@@8??0bad_array_new_length@std@@QEAA@AEBV01@@Z24 00000001800494e0     LIBCMT:throw_bad_alloc.obj
 0002:00015508       _TI2?AVbad_exception@std@@ 0000000180049508     libvcruntime:frame.obj
 0002:00015528       _CTA2?AVbad_exception@std@@ 0000000180049528     libvcruntime:frame.obj
 0002:00015540       _CT??_R0?AVbad_exception@std@@@8??0bad_exception@std@@QEAA@AEBV01@@Z24 0000000180049540     libvcruntime:frame.obj
 0002:00015568       _CT??_R0?AVVError@vips@@@8??0VError@vips@@QEAA@AEBV01@@Z48 0000000180049568     VError.obj
 0002:00015590       _TI2?AVVError@vips@@       0000000180049590     VError.obj
 0002:000155b0       _CT??_R0?AVexception@stdext@@@8??0exception@stdext@@QEAA@AEBV01@@Z16 00000001800495b0     VError.obj
 0002:000155d8       _CTA2?AVVError@vips@@      00000001800495d8     VError.obj
 0002:0001d444       __IMPORT_DESCRIPTOR_KERNEL32 0000000180051444     kernel32:KERNEL32.dll
 0002:0001d458       _head_lib_libvips_lib      0000000180051458     libvips:dffjh.o
 0002:0001d46c       _head_lib_libglib_2_0_lib  000000018005146c     libglib-2.0:dobjh.o
 0002:0001d480       _head_lib_libgobject_2_0_lib 0000000180051480     libgobject-2.0:dybjh.o
 0002:0001d494       __NULL_IMPORT_DESCRIPTOR   0000000180051494     kernel32:KERNEL32.dll
 0002:0001e7fc       __lib_libvips_lib_iname    00000001800527fc     libvips:dffjt.o
 0002:0001e814       __lib_libglib_2_0_lib_iname 0000000180052814     libglib-2.0:dobjt.o
 0002:0001e880       __lib_libgobject_2_0_lib_iname 0000000180052880     libgobject-2.0:dybjt.o
 0003:00000000       __security_cookie_complement 0000000180053000     LIBCMT:gs_cookie.obj
 0003:00000008       __security_cookie          0000000180053008     LIBCMT:gs_cookie.obj
 0003:00000010       __scrt_native_dllmain_reason 0000000180053010     LIBCMT:utility.obj
 0003:00000020       __isa_available            0000000180053020     LIBCMT:cpu_disp.obj
 0003:00000024       __isa_enabled              0000000180053024     LIBCMT:cpu_disp.obj
 0003:00000028       __memcpy_nt_iters          0000000180053028     LIBCMT:cpu_disp.obj
 0003:00000030       __memset_nt_iters          0000000180053030     LIBCMT:cpu_disp.obj
 0003:00000050       __abort_behavior           0000000180053050     libucrt:abort.obj
 0003:00000070       __acrt_initial_locale_data 0000000180053070     libucrt:nlsdata.obj
 0003:000001c8       __acrt_initial_locale_pointers 00000001800531c8     libucrt:nlsdata.obj
 0003:000001d8       __acrt_wide_c_locale_string 00000001800531d8     libucrt:nlsdata.obj
 0003:000001e0       __acrt_initial_multibyte_data 00000001800531e0     libucrt:mbctype.obj
 0003:00000720       _iob                       0000000180053720     libucrt:_file.obj
 0003:00000828       __globallocalestatus       0000000180053828     libucrt:glstatus.obj
 0003:00000830       __acrt_lconv_c             0000000180053830     libucrt:localeconv.obj
 0003:000008c8       __acrt_lconv_static_decimal 00000001800538c8     libucrt:localeconv.obj
 0003:000008cc       __acrt_lconv_static_W_decimal 00000001800538cc     libucrt:localeconv.obj
 0003:000008d0       _lookuptrailbytes          00000001800538d0     libucrt:read.obj
 0003:000009f0       _fltused                   00000001800539f0     LIBCMT:fltused.obj
 0003:00000a00       ??_R0?AVsystem_error@std@@@8 0000000180053a00     libcpmt:xonce.obj
 0003:00000a28       ??_R0?AV_System_error@std@@@8 0000000180053a28     libcpmt:xonce.obj
 0003:00000a50       ??_R0?AVruntime_error@std@@@8 0000000180053a50     libcpmt:xonce.obj
 0003:00000a78       ??_R0?AVexception@std@@@8  0000000180053a78     libcpmt:xonce.obj
 0003:00000aa0       ??_R0?AVbad_alloc@std@@@8  0000000180053aa0     libcpmt:xthrow.obj
 0003:00000ac8       ??_R0?AVlogic_error@std@@@8 0000000180053ac8     libcpmt:xthrow.obj
 0003:00000af0       ??_R0?AVlength_error@std@@@8 0000000180053af0     libcpmt:xthrow.obj
 0003:00000b18       ??_R0?AVtype_info@@@8      0000000180053b18     LIBCMT:std_type_info_static.obj
 0003:00000b38       ??_R0?AVbad_array_new_length@std@@@8 0000000180053b38     LIBCMT:throw_bad_alloc.obj
 0003:00000b68       ??_R0?AVbad_exception@std@@@8 0000000180053b68     libvcruntime:frame.obj
 0003:00000b90       ??_R0?AVexception@stdext@@@8 0000000180053b90     VError.obj
 0003:00000bb8       ??_R0?AVVError@vips@@@8    0000000180053bb8     VError.obj
 0003:00000be0       ?_Raise_handler@std@@3P6AXAEBVexception@stdext@@@ZEA 0000000180053be0     libcpmt:raisehan.obj
 0003:00000bf0       __KERNEL32Functions        0000000180053bf0     libcpmt:winapisupp.obj
 0003:000012b0       ?__type_info_root_node@@3U__type_info_node@@A 00000001800542b0     LIBCMT:tncleanup.obj
 0003:000012c0       ?_OptionsStorage@?1??__local_stdio_printf_options@@9@4_KA 00000001800542c0     LIBCMT:default_local_stdio_options.obj
 0003:000012c8       ?_OptionsStorage@?1??__local_stdio_scanf_options@@9@4_KA 00000001800542c8     LIBCMT:default_local_stdio_options.obj
 0003:000012d0       __scrt_current_native_startup_state 00000001800542d0     LIBCMT:utility.obj
 0003:000012d8       __scrt_native_startup_lock 00000001800542d8     LIBCMT:utility.obj
 0003:00001318       __scrt_debugger_hook_flag  0000000180054318     LIBCMT:utility_desktop.obj
 0003:0000131c       __favor                    000000018005431c     LIBCMT:cpu_disp.obj
 0003:00001320       ?__WinRTOutOfMemoryExceptionCallback@@3P6APEAXXZEA 0000000180054320     libvcruntime:ehhelpers.obj
 0003:000013b0       ?pArgList@UnDecorator@@0PEAVReplicator@@EA 00000001800543b0     libvcruntime:undname.obj
 0003:000013b8       ?pZNameList@UnDecorator@@0PEAVReplicator@@EA 00000001800543b8     libvcruntime:undname.obj
 0003:000013c0       ?pTemplateArgList@UnDecorator@@0PEAVReplicator@@EA 00000001800543c0     libvcruntime:undname.obj
 0003:000013c8       ?gName@UnDecorator@@0PEBDEB 00000001800543c8     libvcruntime:undname.obj
 0003:000013d0       ?name@UnDecorator@@0PEBDEB 00000001800543d0     libvcruntime:undname.obj
 0003:000013d8       ?disableFlags@UnDecorator@@0KA 00000001800543d8     libvcruntime:undname.obj
 0003:000013dc       ?fExplicitTemplateParams@UnDecorator@@0_NA 00000001800543dc     libvcruntime:undname.obj
 0003:000013dd       ?fGetTemplateArgumentList@UnDecorator@@0_NA 00000001800543dd     libvcruntime:undname.obj
 0003:000013e0       ?m_pGetParameter@UnDecorator@@0P6APEADJ@ZEA 00000001800543e0     libvcruntime:undname.obj
 0003:000013e8       ?m_CHPENameOffset@UnDecorator@@0KA 00000001800543e8     libvcruntime:undname.obj
 0003:000013ec       ?m_recursionLevel@UnDecorator@@0KA 00000001800543ec     libvcruntime:undname.obj
 0003:00001488       __pPurecall                0000000180054488     libvcruntime:purevirt_data.obj
 0003:000014b0       ?c_exit_complete@?1???R<lambda_6e4b09c48022b2350581041d5f6b0c4c>@@QEBA@XZ@4_NA 00000001800544b0     libucrt:exit.obj
 0003:000015c8       _environ_table             00000001800545c8     libucrt:environment_initialization.obj
 0003:000015d0       _wenviron_table            00000001800545d0     libucrt:environment_initialization.obj
 0003:000015d8       __dcrt_initial_wide_environment 00000001800545d8     libucrt:environment_initialization.obj
 0003:000015e0       __dcrt_initial_narrow_environment 00000001800545e0     libucrt:environment_initialization.obj
 0003:000015e8       __acrt_atexit_table        00000001800545e8     libucrt:onexit.obj
 0003:00001600       __acrt_at_quick_exit_table 0000000180054600     libucrt:onexit.obj
 0003:00001618       __acrt_locale_changed_data 0000000180054618     libucrt:wsetlocale.obj
 0003:00001620       __acrt_current_locale_data 0000000180054620     libucrt:nlsdata.obj
 0003:00001868       _mbctype                   0000000180054868     libucrt:mbctype.obj
 0003:00001870       _mbcasemap                 0000000180054870     libucrt:mbctype.obj
 0003:00001878       __acrt_current_multibyte_data 0000000180054878     libucrt:mbctype.obj
 0003:00001888       _pgmptr                    0000000180054888     libucrt:argv_data.obj
 0003:00001890       __argc                     0000000180054890     libucrt:argv_data.obj
 0003:00001898       __argv                     0000000180054898     libucrt:argv_data.obj
 0003:000018a0       __wargv                    00000001800548a0     libucrt:argv_data.obj
 0003:000018a8       _acmdln                    00000001800548a8     libucrt:argv_data.obj
 0003:000018b0       _wcmdln                    00000001800548b0     libucrt:argv_data.obj
 0003:00001a70       __acrt_heap                0000000180054a70     libucrt:heap_handle.obj
 0003:00001a80       __pioinfo                  0000000180054a80     libucrt:ioinit.obj
 0003:00001e80       _nhandle                   0000000180054e80     libucrt:ioinit.obj
 0003:00001eb0       _nstream                   0000000180054eb0     libucrt:_file.obj
 0003:00001eb8       __piob                     0000000180054eb8     libucrt:_file.obj
 0003:00001ec0       __acrt_stdout_buffer       0000000180054ec0     libucrt:_sftbuf.obj
 0003:00001ec8       __acrt_stderr_buffer       0000000180054ec8     libucrt:_sftbuf.obj
 0003:00001ed8       __acrt_lconv_static_null   0000000180054ed8     libucrt:localeconv.obj
 0003:00001edc       __acrt_lconv_static_W_null 0000000180054edc     libucrt:localeconv.obj
 0003:00001ef0       __fma3_is_available        0000000180054ef0     libucrt:fma3_available.obj
 0003:00001ef4       __use_fma3_lib             0000000180054ef4     libucrt:fma3_available.obj
 0003:00001ef8       ?_Storage@?1???$_Immortalize@V_Iostream_error_category@std@@@std@@YAAEAV_Iostream_error_category@1@XZ@4T?$_Align_type@N$0BA@@1@A 0000000180054ef8     VError.obj
 0003:00001f08       ?_Flag@?1???$_Immortalize@V_Iostream_error_category@std@@@std@@YAAEAV_Iostream_error_category@1@XZ@4PEAXEA 0000000180054f08     VError.obj
 0003:00001f10       __scrt_ucrt_dll_is_in_use  0000000180054f10     <common>
 0003:00001f18       __dyn_tls_init_callback    0000000180054f18     <common>

 entry point at        0001:0002462c

 Static symbols

 0000:fffa5000       .debug$S                   0000000180000000     kernel32:KERNEL32.dll
 0000:fffa5000       .debug$S                   0000000180000000     kernel32:KERNEL32.dll
 0000:fffa5000       .debug$S                   0000000180000000     kernel32:KERNEL32.dll
 0000:fffa5000       .debug$S                   0000000180000000     kernel32:KERNEL32.dll
 0000:fffa5000       .debug$S                   0000000180000000     kernel32:KERNEL32.dll
 0000:fffa5000       .debug$S                   0000000180000000     kernel32:KERNEL32.dll
 0000:fffa5000       .debug$S                   0000000180000000     kernel32:KERNEL32.dll
 0000:fffa5000       .debug$S                   0000000180000000     kernel32:KERNEL32.dll
 0000:fffa5000       .debug$S                   0000000180000000     kernel32:KERNEL32.dll
 0000:fffa5000       .debug$S                   0000000180000000     kernel32:KERNEL32.dll
 0000:fffa5000       .debug$S                   0000000180000000     kernel32:KERNEL32.dll
 0000:fffa5000       .debug$S                   0000000180000000     kernel32:KERNEL32.dll
 0000:fffa5000       .debug$S                   0000000180000000     kernel32:KERNEL32.dll
 0000:fffa5000       .debug$S                   0000000180000000     kernel32:KERNEL32.dll
 0000:fffa5000       .debug$S                   0000000180000000     kernel32:KERNEL32.dll
 0000:fffa5000       .debug$S                   0000000180000000     kernel32:KERNEL32.dll
 0000:fffa5000       .debug$S                   0000000180000000     kernel32:KERNEL32.dll
 0000:fffa5000       .debug$S                   0000000180000000     kernel32:KERNEL32.dll
 0000:fffa5000       .debug$S                   0000000180000000     kernel32:KERNEL32.dll
 0000:fffa5000       .debug$S                   0000000180000000     kernel32:KERNEL32.dll
 0000:fffa5000       .debug$S                   0000000180000000     kernel32:KERNEL32.dll
 0000:fffa5000       .debug$S                   0000000180000000     kernel32:KERNEL32.dll
 0000:fffa5000       .debug$S                   0000000180000000     kernel32:KERNEL32.dll
 0000:fffa5000       .debug$S                   0000000180000000     kernel32:KERNEL32.dll
 0000:fffa5000       .debug$S                   0000000180000000     kernel32:KERNEL32.dll
 0000:fffa5000       .debug$S                   0000000180000000     kernel32:KERNEL32.dll
 0000:fffa5000       .debug$S                   0000000180000000     kernel32:KERNEL32.dll
 0000:fffa5000       .debug$S                   0000000180000000     kernel32:KERNEL32.dll
 0000:fffa5000       .debug$S                   0000000180000000     kernel32:KERNEL32.dll
 0000:fffa5000       .debug$S                   0000000180000000     kernel32:KERNEL32.dll
 0000:fffa5000       .debug$S                   0000000180000000     kernel32:KERNEL32.dll
 0000:fffa5000       .debug$S                   0000000180000000     kernel32:KERNEL32.dll
 0000:fffa5000       .debug$S                   0000000180000000     kernel32:KERNEL32.dll
 0000:fffa5000       .debug$S                   0000000180000000     kernel32:KERNEL32.dll
 0000:fffa5000       .debug$S                   0000000180000000     kernel32:KERNEL32.dll
 0000:fffa5000       .debug$S                   0000000180000000     libvips-cpp.exp
 0000:fffa5000       .debug$S                   0000000180000000     kernel32:KERNEL32.dll
 0000:fffa5000       .debug$S                   0000000180000000     kernel32:KERNEL32.dll
 0000:fffa5000       .debug$S                   0000000180000000     kernel32:KERNEL32.dll
 0000:fffa5000       .debug$S                   0000000180000000     kernel32:KERNEL32.dll
 0000:fffa5000       .debug$S                   0000000180000000     kernel32:KERNEL32.dll
 0000:fffa5000       .debug$S                   0000000180000000     kernel32:KERNEL32.dll
 0000:fffa5000       .debug$S                   0000000180000000     kernel32:KERNEL32.dll
 0000:fffa5000       .debug$S                   0000000180000000     kernel32:KERNEL32.dll
 0000:fffa5000       .debug$S                   0000000180000000     kernel32:KERNEL32.dll
 0000:fffa5000       .debug$S                   0000000180000000     kernel32:KERNEL32.dll
 0000:fffa5000       .debug$S                   0000000180000000     kernel32:KERNEL32.dll
 0000:fffa5000       .debug$S                   0000000180000000     kernel32:KERNEL32.dll
 0000:fffa5000       .debug$S                   0000000180000000     kernel32:KERNEL32.dll
 0000:fffa5000       .debug$S                   0000000180000000     kernel32:KERNEL32.dll
 0000:fffa5000       .debug$S                   0000000180000000     kernel32:KERNEL32.dll
 0000:fffa5000       .debug$S                   0000000180000000     kernel32:KERNEL32.dll
 0000:fffa5000       .debug$S                   0000000180000000     kernel32:KERNEL32.dll
 0000:fffa5000       .debug$S                   0000000180000000     kernel32:KERNEL32.dll
 0000:fffa5000       .debug$S                   0000000180000000     kernel32:KERNEL32.dll
 0000:fffa5000       .debug$S                   0000000180000000     kernel32:KERNEL32.dll
 0000:fffa5000       .debug$S                   0000000180000000     kernel32:KERNEL32.dll
 0000:fffa5000       .debug$S                   0000000180000000     kernel32:KERNEL32.dll
 0000:fffa5000       .debug$S                   0000000180000000     kernel32:KERNEL32.dll
 0000:fffa5000       .debug$S                   0000000180000000     kernel32:KERNEL32.dll
 0000:fffa5000       .debug$S                   0000000180000000     kernel32:KERNEL32.dll
 0000:fffa5000       .debug$S                   0000000180000000     kernel32:KERNEL32.dll
 0000:fffa5000       .debug$S                   0000000180000000     kernel32:KERNEL32.dll
 0000:fffa5000       .debug$S                   0000000180000000     kernel32:KERNEL32.dll
 0000:fffa5000       .debug$S                   0000000180000000     kernel32:KERNEL32.dll
 0000:fffa5000       .debug$S                   0000000180000000     kernel32:KERNEL32.dll
 0000:fffa5000       .debug$S                   0000000180000000     kernel32:KERNEL32.dll
 0000:fffa5000       .debug$S                   0000000180000000     kernel32:KERNEL32.dll
 0000:fffa5000       .debug$S                   0000000180000000     kernel32:KERNEL32.dll
 0000:fffa5000       .debug$S                   0000000180000000     kernel32:KERNEL32.dll
 0000:fffa5000       .debug$S                   0000000180000000     kernel32:KERNEL32.dll
 0000:fffa5000       .debug$S                   0000000180000000     kernel32:KERNEL32.dll
 0000:fffa5000       .debug$S                   0000000180000000     kernel32:KERNEL32.dll
 0000:fffa5000       .debug$S                   0000000180000000     kernel32:KERNEL32.dll
 0000:fffa5000       .debug$S                   0000000180000000     kernel32:KERNEL32.dll
 0000:fffa5000       .debug$S                   0000000180000000     kernel32:KERNEL32.dll
 0000:fffa5000       .debug$S                   0000000180000000     kernel32:KERNEL32.dll
 0000:fffa5000       .debug$S                   0000000180000000     kernel32:KERNEL32.dll
 0000:fffa5000       .debug$S                   0000000180000000     kernel32:KERNEL32.dll
 0000:fffa5000       .debug$S                   0000000180000000     kernel32:KERNEL32.dll
 0000:fffa5000       .debug$S                   0000000180000000     kernel32:KERNEL32.dll
 0000:fffa5000       .debug$S                   0000000180000000     kernel32:KERNEL32.dll
 0000:fffa5000       .debug$S                   0000000180000000     kernel32:KERNEL32.dll
 0000:fffa5000       .debug$S                   0000000180000000     kernel32:KERNEL32.dll
 0000:fffa5000       .debug$S                   0000000180000000     kernel32:KERNEL32.dll
 0000:fffa5000       .debug$S                   0000000180000000     kernel32:KERNEL32.dll
 0000:fffa5000       .debug$S                   0000000180000000     kernel32:KERNEL32.dll
 0000:fffa5000       .debug$S                   0000000180000000     kernel32:KERNEL32.dll
 0000:fffa5000       .debug$S                   0000000180000000     kernel32:KERNEL32.dll
 0000:fffa5000       .debug$S                   0000000180000000     kernel32:KERNEL32.dll
 0001:00000000       .text                      0000000180001000     libvips:dffjs01561.o
 0001:00000008       .text                      0000000180001008     libvips:dffjs01553.o
 0001:00000010       .text                      0000000180001010     libvips:dffjs01536.o
 0001:00000018       .text                      0000000180001018     libvips:dffjs01564.o
 0001:00000020       .text                      0000000180001020     libvips:dffjs01556.o
 0001:00000028       .text                      0000000180001028     libvips:dffjs01731.o
 0001:00000030       .text                      0000000180001030     libvips:dffjs01507.o
 0001:00000038       .text                      0000000180001038     libvips:dffjs01506.o
 0001:00000040       .text                      0000000180001040     libvips:dffjs01510.o
 0001:00000048       .text                      0000000180001048     libvips:dffjs01493.o
 0001:00000050       .text                      0000000180001050     libvips:dffjs01541.o
 0001:00000058       .text                      0000000180001058     libvips:dffjs01491.o
 0001:00000060       .text                      0000000180001060     libvips:dffjs01503.o
 0001:00000068       .text                      0000000180001068     libvips:dffjs01488.o
 0001:00000070       .text                      0000000180001070     libvips:dffjs01512.o
 0001:00000078       .text                      0000000180001078     libvips:dffjs01492.o
 0001:00000080       .text                      0000000180001080     libvips:dffjs01508.o
 0001:00000088       .text                      0000000180001088     libvips:dffjs01534.o
 0001:00000090       .text                      0000000180001090     libvips:dffjs01476.o
 0001:00000098       .text                      0000000180001098     libvips:dffjs01497.o
 0001:000000a0       .text                      00000001800010a0     libvips:dffjs01573.o
 0001:000000a8       .text                      00000001800010a8     libvips:dffjs01485.o
 0001:000000b0       .text                      00000001800010b0     libvips:dffjs01505.o
 0001:000000b8       .text                      00000001800010b8     libvips:dffjs01539.o
 0001:000000c0       .text                      00000001800010c0     libvips:dffjs01487.o
 0001:000000c8       .text                      00000001800010c8     libvips:dffjs01245.o
 0001:000000d0       .text                      00000001800010d0     libvips:dffjs01543.o
 0001:000000d8       .text                      00000001800010d8     libvips:dffjs01486.o
 0001:000000e0       .text                      00000001800010e0     libvips:dffjs01489.o
 0001:000000e8       .text                      00000001800010e8     libvips:dffjs01559.o
 0001:000000f0       .text                      00000001800010f0     libvips:dffjs01513.o
 0001:000000f8       .text                      00000001800010f8     libvips:dffjs01496.o
 0001:00000100       .text                      0000000180001100     libvips:dffjs01509.o
 0001:00000108       .text                      0000000180001108     libvips:dffjs01595.o
 0001:00000110       .text                      0000000180001110     libvips:dffjs01588.o
 0001:00000118       .text                      0000000180001118     libvips:dffjs02059.o
 0001:00000120       .text                      0000000180001120     libvips:dffjs02058.o
 0001:00000128       .text                      0000000180001128     libvips:dffjs01294.o
 0001:00000130       .text                      0000000180001130     libvips:dffjs02050.o
 0001:00000138       .text                      0000000180001138     libvips:dffjs01770.o
 0001:00000140       .text                      0000000180001140     libvips:dffjs00921.o
 0001:00000148       .text                      0000000180001148     libvips:dffjs00710.o
 0001:00000150       .text                      0000000180001150     libvips:dffjs00973.o
 0001:00000158       .text                      0000000180001158     libvips:dffjs01025.o
 0001:00000160       .text                      0000000180001160     libvips:dffjs02060.o
 0001:00000168       .text                      0000000180001168     libvips:dffjs00972.o
 0001:00000170       .text                      0000000180001170     libvips:dffjs01235.o
 0001:00000178       .text                      0000000180001178     libvips:dffjs00915.o
 0001:00000180       .text                      0000000180001180     libvips:dffjs01380.o
 0001:00000188       .text                      0000000180001188     libvips:dffjs02048.o
 0001:00000190       .text                      0000000180001190     libvips:dffjs01538.o
 0001:00000198       .text                      0000000180001198     libvips:dffjs01504.o
 0001:000001a0       .text                      00000001800011a0     libvips:dffjs01755.o
 0001:000001a8       .text                      00000001800011a8     libvips:dffjs01295.o
 0001:000001b0       .text                      00000001800011b0     libvips:dffjs01246.o
 0001:000001b8       .text                      00000001800011b8     libvips:dffjs01748.o
 0001:000001c0       .text                      00000001800011c0     libvips:dffjs02049.o
 0001:000001c8       .text                      00000001800011c8     libvips:dffjs01568.o
 0001:000001d0       .text                      00000001800011d0     libvips:dffjs00901.o
 0001:000001d8       .text                      00000001800011d8     libvips:dffjs01296.o
 0001:000001e0       .text                      00000001800011e0     libvips:dffjs00926.o
 0001:000001e8       .text                      00000001800011e8     libvips:dffjs01725.o
 0001:000001f0       .text                      00000001800011f0     libvips:dffjs01293.o
 0001:00000200       .text                      0000000180001200     libglib-2.0:dobjs00043.o
 0001:00000208       .text                      0000000180001208     libglib-2.0:dobjs00651.o
 0001:00000210       .text                      0000000180001210     libgobject-2.0:dybjs00143.o
 0001:00000218       .text                      0000000180001218     libgobject-2.0:dybjs00161.o
 0001:00000220       .text                      0000000180001220     libgobject-2.0:dybjs00278.o
 0001:00000228       .text                      0000000180001228     libgobject-2.0:dybjs00390.o
 0001:00000230       .text                      0000000180001230     libgobject-2.0:dybjs00408.o
 0001:00000238       .text                      0000000180001238     libgobject-2.0:dybjs00395.o
 0001:00000240       .text                      0000000180001240     libgobject-2.0:dybjs00383.o
 0001:00000248       .text                      0000000180001248     libgobject-2.0:dybjs00399.o
 0001:00000250       .text                      0000000180001250     libgobject-2.0:dybjs00416.o
 0001:00000258       .text                      0000000180001258     libgobject-2.0:dybjs00277.o
 0001:00000260       .text                      0000000180001260     libgobject-2.0:dybjs00368.o
 0001:00000268       .text                      0000000180001268     libgobject-2.0:dybjs00396.o
 0001:00000270       .text                      0000000180001270     libgobject-2.0:dybjs00379.o
 0001:00000278       .text                      0000000180001278     libgobject-2.0:dybjs00405.o
 0001:00000280       .text                      0000000180001280     libgobject-2.0:dybjs00362.o
 0001:00000288       .text                      0000000180001288     libgobject-2.0:dybjs00376.o
 0001:00000290       .text                      0000000180001290     libgobject-2.0:dybjs00400.o
 0001:00000298       .text                      0000000180001298     libgobject-2.0:dybjs00371.o
 0001:000002a0       .text                      00000001800012a0     libgobject-2.0:dybjs00128.o
 0001:000002a8       .text                      00000001800012a8     libgobject-2.0:dybjs00431.o
 0001:000002b0       .text                      00000001800012b0     libgobject-2.0:dybjs00153.o
 0001:00023d04       ?initialize_pointers@@YAHXZ 0000000180024d04 f   libcpmt:winapisupp.obj
 0001:00024190       $$000000                   0000000180025190     LIBCMT:amdsecgs.obj
 0001:0002430c       ?dllmain_crt_dispatch@@YAHQEAUHINSTANCE__@@KQEAX@Z 000000018002530c f   LIBCMT:dll_dllmain.obj
 0001:0002435c       ?dllmain_crt_process_attach@@YAHQEAUHINSTANCE__@@QEAX@Z 000000018002535c f   LIBCMT:dll_dllmain.obj
 0001:00024474       ?dllmain_crt_process_detach@@YAH_N@Z 0000000180025474 f   LIBCMT:dll_dllmain.obj
 0001:000244f8       ?dllmain_dispatch@@YAHQEAUHINSTANCE__@@KQEAX@Z 00000001800254f8 f   LIBCMT:dll_dllmain.obj
 0001:00024920       capture_current_context    0000000180025920 f   LIBCMT:gs_report.obj
 0001:00024990       capture_previous_context   0000000180025990 f   LIBCMT:gs_report.obj
 0001:00025ab0       $$000000                   0000000180026ab0     libvcruntime:memcpy.obj
 0001:00025ec0       $$000000                   0000000180026ec0     libvcruntime:memset.obj
 0001:00026620       ??$BuildCatchObjectHelperInternal@V__FrameHandler3@@@@YAHPEAUEHExceptionRecord@@PEAXPEBU_s_HandlerType@@PEBU_s_CatchableType@@@Z 0000000180027620 f   libvcruntime:frame.obj
 0001:00026820       ??$BuildCatchObjectInternal@V__FrameHandler3@@@@YAXPEAUEHExceptionRecord@@PEAXPEBU_s_HandlerType@@PEBU_s_CatchableType@@@Z 0000000180027820 f   libvcruntime:frame.obj
 0001:000268e0       ??$CatchIt@V__FrameHandler3@@@@YAXPEAUEHExceptionRecord@@PEA_KPEAU_CONTEXT@@PEAU_xDISPATCHER_CONTEXT@@PEBU_s_FuncInfo@@PEBU_s_HandlerType@@PEBU_s_CatchableType@@PEBU_s_TryBlockMapEntry@@H1EE@Z 00000001800278e0 f   libvcruntime:frame.obj
 0001:000269b4       ??$FindHandler@V__FrameHandler3@@@@YAXPEAUEHExceptionRecord@@PEA_KPEAU_CONTEXT@@PEAU_xDISPATCHER_CONTEXT@@PEBU_s_FuncInfo@@EH1@Z 00000001800279b4 f   libvcruntime:frame.obj
 0001:00026e90       ??$FindHandlerForForeignException@V__FrameHandler3@@@@YAXPEAUEHExceptionRecord@@PEA_KPEAU_CONTEXT@@PEAU_xDISPATCHER_CONTEXT@@PEBU_s_FuncInfo@@HH1@Z 0000000180027e90 f   libvcruntime:frame.obj
 0001:00027678       ?ExFilterRethrow@@YAHPEAU_EXCEPTION_POINTERS@@PEAUEHExceptionRecord@@PEAH@Z 0000000180028678 f   libvcruntime:frame.obj
 0001:00027924       ?IsInExceptionSpec@@YAEPEAUEHExceptionRecord@@PEBU_s_ESTypeList@@@Z 0000000180028924 f   libvcruntime:frame.obj
 0001:00027a14       ?Is_bad_exception_allowed@@YAEPEBU_s_ESTypeList@@@Z 0000000180028a14 f   libvcruntime:frame.obj
 0001:00027ac0       $$000000                   0000000180028ac0     libvcruntime:notify.obj
 0001:00027ba8       ?try_get_function@@YAPEAXW4function_id@?A0x656504f9@@QEBDQEBW4module_id@2@2@Z 0000000180028ba8 f   libvcruntime:winapi_downlevel.obj
 0001:00027ea0       $$000000                   0000000180028ea0     libvcruntime:handlers.obj
 0001:000285d4       ??$?RV<lambda_d80eeec6fff315bfe5c115232f3240e3>@@AEAV<lambda_6e4b09c48022b2350581041d5f6b0c4c>@@V<lambda_2358e3775559c9db80273638284d5e45>@@@?$__crt_seh_guarded_call@X@@QEAAX$$QEAV<lambda_d80eeec6fff315bfe5c115232f3240e3>@@AEAV<lambda_6e4b09c48022b2350581041d5f6b0c4c>@@$$QEAV<lambda_2358e3775559c9db80273638284d5e45>@@@Z 00000001800295d4 f   libucrt:exit.obj
 0001:0002860c       ??R<lambda_6e4b09c48022b2350581041d5f6b0c4c>@@QEBA@XZ 000000018002960c f   libucrt:exit.obj
 0001:000286d0       ?atexit_exception_filter@@YAHK@Z 00000001800296d0 f   libucrt:exit.obj
 0001:000286dc       ?common_exit@@YAXHW4_crt_exit_cleanup_mode@@W4_crt_exit_return_mode@@@Z 00000001800296dc f   libucrt:exit.obj
 0001:00028798       ?exit_or_terminate_process@@YAXI@Z 0000000180029798 f   libucrt:exit.obj
 0001:000287e4       ?try_cor_exit_process@@YAXI@Z 00000001800297e4 f   libucrt:exit.obj
 0001:0002886c       ??$parse_command_line@D@@YAXPEADPEAPEAD0PEA_K2@Z 000000018002986c f   libucrt:argv_parsing.obj
 0001:00028c18       ??$common_initialize_environment_nolock@D@@YAHXZ 0000000180029c18 f   libucrt:environment_initialization.obj
 0001:00028c84       ??$create_environment@D@@YAQEAPEADQEAD@Z 0000000180029c84 f   libucrt:environment_initialization.obj
 0001:00028d8c       ??$free_environment@_W@@YAXQEAPEA_W@Z 0000000180029d8c f   libucrt:environment_initialization.obj
 0001:00028d8c       ??$free_environment@D@@YAXQEAPEAD@Z 0000000180029d8c f   libucrt:environment_initialization.obj
 0001:00028dd0       ??$uninitialize_environment_internal@D@@YAXAEAPEAPEAD@Z 0000000180029dd0 f   libucrt:environment_initialization.obj
 0001:00028dec       ??$uninitialize_environment_internal@_W@@YAXAEAPEAPEA_W@Z 0000000180029dec f   libucrt:environment_initialization.obj
 0001:00028e48       ??$?RV<lambda_7777bce6b2f8c936911f934f8298dc43>@@AEAV<lambda_f03950bc5685219e0bcd2087efbe011e>@@V<lambda_3883c3dff614d5e0c5f61bb1ac94921c>@@@?$__crt_seh_guarded_call@H@@QEAAH$$QEAV<lambda_7777bce6b2f8c936911f934f8298dc43>@@AEAV<lambda_f03950bc5685219e0bcd2087efbe011e>@@$$QEAV<lambda_3883c3dff614d5e0c5f61bb1ac94921c>@@@Z 0000000180029e48 f   libucrt:onexit.obj
 0001:00028e84       ??R<lambda_f03950bc5685219e0bcd2087efbe011e>@@QEBAHXZ 0000000180029e84 f   libucrt:onexit.obj
 0001:00029000       initialize_global_variables 000000018002a000 f   libucrt:initialization.obj
 0001:00029014       initialize_c               000000018002a014 f   libucrt:initialization.obj
 0001:00029038       report_memory_leaks        000000018002a038 f   libucrt:initialization.obj
 0001:00029038       uninitialize_c             000000018002a038 f   libucrt:initialization.obj
 0001:00029038       initialize_environment     000000018002a038 f   libucrt:initialization.obj
 0001:00029038       initialize_global_state_isolation 000000018002a038 f   libucrt:initialization.obj
 0001:00029038       uninitialize_global_state_isolation 000000018002a038 f   libucrt:initialization.obj
 0001:0002903c       uninitialize_environment   000000018002a03c f   libucrt:initialization.obj
 0001:0002904c       initialize_pointers        000000018002a04c f   libucrt:initialization.obj
 0001:0002908c       uninitialize_vcruntime     000000018002a08c f   libucrt:initialization.obj
 0001:00029094       uninitialize_allocated_memory 000000018002a094 f   libucrt:initialization.obj
 0001:000290d4       uninitialize_allocated_io_buffers 000000018002a0d4 f   libucrt:initialization.obj
 0001:00029270       $$000000                   000000018002a270     libucrt:strncmp.obj
 0001:0002932c       ??$?RV<lambda_0ae27a3a962d80f24befdcbee591983d>@@AEAV<lambda_8d0ee55de4b1038c4002e0adecdf1839>@@V<lambda_dc504788e8f1664fe9b84e20bfb512f2>@@@?$__crt_seh_guarded_call@X@@QEAAX$$QEAV<lambda_0ae27a3a962d80f24befdcbee591983d>@@AEAV<lambda_8d0ee55de4b1038c4002e0adecdf1839>@@$$QEAV<lambda_dc504788e8f1664fe9b84e20bfb512f2>@@@Z 000000018002a32c f   libucrt:per_thread_data.obj
 0001:0002936c       ??$?RV<lambda_2d41944a1d46af3157314b8a01080d33>@@AEAV<lambda_8f455de75cd7d7f24b4096f044d8b9e6>@@V<lambda_aa500f224e6afead328df44964fe2772>@@@?$__crt_seh_guarded_call@X@@QEAAX$$QEAV<lambda_2d41944a1d46af3157314b8a01080d33>@@AEAV<lambda_8f455de75cd7d7f24b4096f044d8b9e6>@@$$QEAV<lambda_aa500f224e6afead328df44964fe2772>@@@Z 000000018002a36c f   libucrt:per_thread_data.obj
 0001:000293ac       ??$?RV<lambda_aa87e3671a710a21b5dc78c0bdf72e11>@@AEAV<lambda_92619d2358a28f41a33ba319515a20b9>@@V<lambda_6992ecaafeb10aed2b74cb1fae11a551>@@@?$__crt_seh_guarded_call@X@@QEAAX$$QEAV<lambda_aa87e3671a710a21b5dc78c0bdf72e11>@@AEAV<lambda_92619d2358a28f41a33ba319515a20b9>@@$$QEAV<lambda_6992ecaafeb10aed2b74cb1fae11a551>@@@Z 000000018002a3ac f   libucrt:per_thread_data.obj
 0001:000293f4       ??$?RV<lambda_f2e299630e499de9f9a165e60fcd3db5>@@AEAV<lambda_2ae9d31cdba2644fcbeaf08da7c24588>@@V<lambda_40d01ff24d0e7b3814fdbdcee8eab3c7>@@@?$__crt_seh_guarded_call@X@@QEAAX$$QEAV<lambda_f2e299630e499de9f9a165e60fcd3db5>@@AEAV<lambda_2ae9d31cdba2644fcbeaf08da7c24588>@@$$QEAV<lambda_40d01ff24d0e7b3814fdbdcee8eab3c7>@@@Z 000000018002a3f4 f   libucrt:per_thread_data.obj
 0001:00029454       ?construct_ptd_array@@YAXQEAU__acrt_ptd@@@Z 000000018002a454 f   libucrt:per_thread_data.obj
 0001:00029524       ?destroy_fls@@YAXPEAX@Z    000000018002a524 f   libucrt:per_thread_data.obj
 0001:00029544       ?destroy_ptd_array@@YAXQEAU__acrt_ptd@@@Z 000000018002a544 f   libucrt:per_thread_data.obj
 0001:0002963c       ?replace_current_thread_locale_nolock@@YAXQEAU__acrt_ptd@@QEAU__crt_locale_data@@@Z 000000018002a63c f   libucrt:per_thread_data.obj
 0001:00029ad0       ??$?RV<lambda_410d79af7f07d98d83a3f525b3859a53>@@AEAV<lambda_3e16ef9562a7dcce91392c22ab16ea36>@@V<lambda_38119f0e861e05405d8a144b9b982f0a>@@@?$__crt_seh_guarded_call@X@@QEAAX$$QEAV<lambda_410d79af7f07d98d83a3f525b3859a53>@@AEAV<lambda_3e16ef9562a7dcce91392c22ab16ea36>@@$$QEAV<lambda_38119f0e861e05405d8a144b9b982f0a>@@@Z 000000018002aad0 f   libucrt:wsetlocale.obj
 0001:00029d88       ?<lambda_invoker_cdecl>@<lambda_a1ce4c8ae42411fd470c77163914f50e>@@CAHPEBX0@Z 000000018002ad88 f   libucrt:argv_wildcards.obj
 0001:0002a0a0       ??$common_expand_argv_wildcards@D@@YAHQEAPEADQEAPEAPEAD@Z 000000018002b0a0 f   libucrt:argv_wildcards.obj
 0001:0002a2ac       ??$copy_and_add_argument_to_buffer@D@@YAHQEBD0_KAEAV?$argument_list@D@?A0x5f5c8891@@@Z 000000018002b2ac f   libucrt:argv_wildcards.obj
 0001:0002a434       ??$expand_argument_wildcards@D@@YAHQEAD0AEAV?$argument_list@D@?A0x5f5c8891@@@Z 000000018002b434 f   libucrt:argv_wildcards.obj
 0001:0002a980       ??$?RV<lambda_efdfa57d1f175319df784efa44bb7b81>@@AEAV<lambda_5f0a4c1567f8adc6734073e5d1e1b35c>@@V<lambda_2e8a7d3640ea6ccb4c2413664c2db6fd>@@@?$__crt_seh_guarded_call@X@@QEAAX$$QEAV<lambda_efdfa57d1f175319df784efa44bb7b81>@@AEAV<lambda_5f0a4c1567f8adc6734073e5d1e1b35c>@@$$QEAV<lambda_2e8a7d3640ea6ccb4c2413664c2db6fd>@@@Z 000000018002b980 f   libucrt:mbctype.obj
 0001:0002ab3c       ?getSystemCP@@YAHH@Z       000000018002bb3c f   libucrt:mbctype.obj
 0001:0002abbc       ?setSBCS@@YAXPEAU__crt_multibyte_data@@@Z 000000018002bbbc f   libucrt:mbctype.obj
 0001:0002ac4c       ?setSBUpLow@@YAXPEAU__crt_multibyte_data@@@Z 000000018002bc4c f   libucrt:mbctype.obj
 0001:0002ae30       ?setmbcp_internal@@YAHH_NQEAU__acrt_ptd@@QEAPEAU__crt_multibyte_data@@@Z 000000018002be30 f   libucrt:mbctype.obj
 0001:0002aff4       ?update_thread_multibyte_data_internal@@YAPEAU__crt_multibyte_data@@QEAU__acrt_ptd@@QEAPEAU1@@Z 000000018002bff4 f   libucrt:mbctype.obj
 0001:0002b3e4       ?x_ismbbtype_l@@YAHPEAU__crt_locale_pointers@@IHH@Z 000000018002c3e4 f   libucrt:ismbbyte.obj
 0001:0002b728       ?try_get_function@@YAPEAXW4function_id@?A0x391cf84c@@QEBDQEBW4module_id@2@2@Z 000000018002c728 f   libucrt:winapi_thunks.obj
 0001:0002bce8       ?initialize_inherited_file_handles_nolock@@YAXXZ 000000018002cce8 f   libucrt:ioinit.obj
 0001:0002bdd8       ?initialize_stdio_handles_nolock@@YAXXZ 000000018002cdd8 f   libucrt:ioinit.obj
 0001:0002c01c       ??$?RV<lambda_450d765d439847d4c735a33c368b5fc0>@@AEAV<lambda_44731a7d0e6d81c3e6aa82d741081786>@@V<lambda_601a2a7da3b7a96e9554ac7215c4b07c>@@@?$__crt_seh_guarded_call@P6AXH@Z@@QEAAP6AXH@Z$$QEAV<lambda_450d765d439847d4c735a33c368b5fc0>@@AEAV<lambda_44731a7d0e6d81c3e6aa82d741081786>@@$$QEAV<lambda_601a2a7da3b7a96e9554ac7215c4b07c>@@@Z 000000018002d01c f   libucrt:signal.obj
 0001:0002c378       ??$?RV<lambda_842d9ff0dc9ef11c61343bbaebe7f885>@@AEAV<lambda_c5860995281e5c4ce005b3de8f5874ee>@@V<lambda_d90129c13df834fdcbf8d2b88dafcf2d>@@@?$__crt_seh_guarded_call@X@@QEAAX$$QEAV<lambda_842d9ff0dc9ef11c61343bbaebe7f885>@@AEAV<lambda_c5860995281e5c4ce005b3de8f5874ee>@@$$QEAV<lambda_d90129c13df834fdcbf8d2b88dafcf2d>@@@Z 000000018002d378 f   libucrt:fflush.obj
 0001:0002c414       ??$?RV<lambda_886d6c58226a84441f68b9f2b8217b83>@@AEAV<lambda_ab61a845afdef5b7c387490eaf3616ee>@@V<lambda_f7f22ab5edc0698d5f6905b0d3f44752>@@@?$__crt_seh_guarded_call@X@@QEAAX$$QEAV<lambda_886d6c58226a84441f68b9f2b8217b83>@@AEAV<lambda_ab61a845afdef5b7c387490eaf3616ee>@@$$QEAV<lambda_f7f22ab5edc0698d5f6905b0d3f44752>@@@Z 000000018002d414 f   libucrt:fflush.obj
 0001:0002c4f4       ?common_flush_all@@YAH_N@Z 000000018002d4f4 f   libucrt:fflush.obj
 0001:0002cf18       ?free_crt_array_internal@@YAXQEAPEBX_K@Z 000000018002df18 f   libucrt:inittime.obj
 0001:0002d694       fallbackMethod             000000018002e694 f   libucrt:strpbrk.obj
 0001:0002da64       $LN78                      000000018002ea64     libucrt:strpbrk.obj
 0001:0002daa0       $LN77                      000000018002eaa0     libucrt:strpbrk.obj
 0001:0002dae0       $LN76                      000000018002eae0     libucrt:strpbrk.obj
 0001:0002dbbc       ?__acrt_LCMapStringA_stat@@YAHPEAU__crt_locale_pointers@@PEB_WKPEBDHPEADHHH@Z 000000018002ebbc f   libucrt:lcmapstringa.obj
 0001:0002df6c       ?initialize_multibyte@@YAHXZ 000000018002ef6c f   libucrt:multibyte_initializer.obj
 0001:0002e410       ??$?RV<lambda_a37b2b86f63e897a80ea819b0eb08c01>@@AEAV<lambda_38ce7e780aa69e748d6df282ebc68efe>@@V<lambda_99fb1378e971ab6e7edea83e3a7a83a2>@@@?$__crt_seh_guarded_call@H@@QEAAH$$QEAV<lambda_a37b2b86f63e897a80ea819b0eb08c01>@@AEAV<lambda_38ce7e780aa69e748d6df282ebc68efe>@@$$QEAV<lambda_99fb1378e971ab6e7edea83e3a7a83a2>@@@Z 000000018002f410 f   libucrt:commit.obj
 0001:0002e530       ?write_double_translated_ansi_nolock@@YA?AUwrite_result@?A0x17268360@@HQEBDI@Z 000000018002f530 f   libucrt:write.obj
 0001:0002ea00       ?write_text_ansi_nolock@@YA?AUwrite_result@?A0x17268360@@HQEBDI@Z 000000018002fa00 f   libucrt:write.obj
 0001:0002eb04       ?write_text_utf16le_nolock@@YA?AUwrite_result@?A0x17268360@@HQEBDI@Z 000000018002fb04 f   libucrt:write.obj
 0001:0002ec20       ?write_text_utf8_nolock@@YA?AUwrite_result@?A0x17268360@@HQEBDI@Z 000000018002fc20 f   libucrt:write.obj
 0001:0002f518       ??$common_lseek_nolock@_J@@YA_JH_JH@Z 0000000180030518 f   libucrt:lseek.obj
 0001:0002f8c0       $$000000                   00000001800308c0     libucrt:log10.obj
 0001:0002ff9c       ??$?RV<lambda_751a882b2c74d4b022dec766aa51a29a>@@AEAV<lambda_628dfdc04ba53c8bfc02c9951375f3f5>@@V<lambda_f6c7be5f7998530c34de24c7437d6b54>@@@?$__crt_seh_guarded_call@H@@QEAAH$$QEAV<lambda_751a882b2c74d4b022dec766aa51a29a>@@AEAV<lambda_628dfdc04ba53c8bfc02c9951375f3f5>@@$$QEAV<lambda_f6c7be5f7998530c34de24c7437d6b54>@@@Z 0000000180030f9c f   libucrt:close.obj
 0001:00030190       _call_matherr              0000000180031190 f   libucrt:libm_error.obj
 0001:000301f8       _exception_enabled         00000001800311f8 f   libucrt:libm_error.obj
 0001:00030470       _log_special_common        0000000180031470 f   libucrt:log_special.obj
 0001:00030510       $$000000                   0000000180031510     libucrt:fpsr.obj
 0001:00030a80       $$000000                   0000000180031a80     LIBCMT:chkstk.obj
 0001:00030af0       $$000000                   0000000180031af0     libvcruntime:memcmp.obj
 0001:00030bd0       $$000000                   0000000180031bd0     LIBCMT:guard_dispatch.obj
 0001:00030bf0       ?dtor$0@?0???0system_error@std@@QEAA@Verror_code@1@PEBD@Z@4HA 0000000180031bf0 f   VError.obj
 0001:00030bfc       ?dtor$5@?0???0system_error@std@@QEAA@Verror_code@1@PEBD@Z@4HA 0000000180031bfc f   VError.obj
 0001:00030c08       ?dtor$6@?0???0system_error@std@@QEAA@Verror_code@1@PEBD@Z@4HA 0000000180031c08 f   VError.obj
 0001:00030c20       ?dtor$0@?0???0VError@vips@@QEAA@AEBV?$basic_string@DU?$char_traits@D@std@@V?$allocator@D@2@@std@@@Z@4HA 0000000180031c20 f   VError.obj
 0001:00030c20       ?dtor$0@?0???0VError@vips@@QEAA@AEBV01@@Z@4HA 0000000180031c20 f   VError.obj
 0001:00030c20       ?dtor$0@?0???0VError@vips@@QEAA@XZ@4HA 0000000180031c20 f   VError.obj
 0001:00030c30       ?dtor$1@?0???0VOption@vips@@QEAA@AEBV01@@Z@4HA 0000000180031c30 f   VError.obj
 0001:00030c3c       ?dtor$2@?0???0VOption@vips@@QEAA@AEBV01@@Z@4HA 0000000180031c3c f   VError.obj
 0001:00030c48       ?dtor$3@?0???0VOption@vips@@QEAA@AEBV01@@Z@4HA 0000000180031c48 f   VError.obj
 0001:00030c60       ?dtor$1@?0??write_to_file@VImage@vips@@QEBAXPEBDPEAVVOption@2@@Z@4HA 0000000180031c60 f   VImage.obj
 0001:00030c60       ?dtor$0@?0??option@VImage@vips@@SAPEAVVOption@2@XZ@4HA 0000000180031c60 f   VError.obj
 0001:00030c60       ?dtor$1@?0??find_trim@VImage@vips@@QEBAHPEAH00PEAVVOption@2@@Z@4HA 0000000180031c60 f   VImage.obj
 0001:00030c80       ?dtor$0@?0??new_from_image@VImage@vips@@QEBA?AV12@V?$vector@NV?$allocator@N@std@@@std@@@Z@4HA 0000000180031c80 f   VError.obj
 0001:00030c90       ?dtor$0@?0???Xvips@@YAAEAVVImage@0@AEAV10@V?$vector@NV?$allocator@N@std@@@std@@@Z@4HA 0000000180031c90 f   VImage.obj
 0001:00030c90       ?dtor$0@?0???_2vips@@YAAEAVVImage@0@AEAV10@V?$vector@NV?$allocator@N@std@@@std@@@Z@4HA 0000000180031c90 f   VImage.obj
 0001:00030c90       ?dtor$0@?0???_1vips@@YAAEAVVImage@0@AEAV10@V?$vector@NV?$allocator@N@std@@@std@@@Z@4HA 0000000180031c90 f   VImage.obj
 0001:00030c90       ?dtor$0@?0???Zvips@@YAAEAVVImage@0@AEAV10@V?$vector@NV?$allocator@N@std@@@std@@@Z@4HA 0000000180031c90 f   VImage.obj
 0001:00030c90       ?dtor$0@?0??ifthenelse@VImage@vips@@QEBA?AV12@NNPEAVVOption@2@@Z@4HA 0000000180031c90 f   VError.obj
 0001:00030c90       ?dtor$0@?0???_6vips@@YAAEAVVImage@0@AEAV10@V?$vector@NV?$allocator@N@std@@@std@@@Z@4HA 0000000180031c90 f   VImage.obj
 0001:00030c90       ?dtor$0@?0???_5vips@@YAAEAVVImage@0@AEAV10@V?$vector@NV?$allocator@N@std@@@std@@@Z@4HA 0000000180031c90 f   VImage.obj
 0001:00030c90       ?dtor$0@?0???_4vips@@YAAEAVVImage@0@AEAV10@V?$vector@NV?$allocator@N@std@@@std@@@Z@4HA 0000000180031c90 f   VImage.obj
 0001:00030c90       ?dtor$0@?0???_3vips@@YAAEAVVImage@0@AEAV10@V?$vector@NV?$allocator@N@std@@@std@@@Z@4HA 0000000180031c90 f   VImage.obj
 0001:00030c90       ?dtor$0@?0??linear@VImage@vips@@QEBA?AV12@NNPEAVVOption@2@@Z@4HA 0000000180031c90 f   VError.obj
 0001:00030c90       ?dtor$0@?0???_0vips@@YAAEAVVImage@0@AEAV10@V?$vector@NV?$allocator@N@std@@@std@@@Z@4HA 0000000180031c90 f   VImage.obj
 0001:00030c90       ?dtor$0@?0???Yvips@@YAAEAVVImage@0@AEAV10@V?$vector@NV?$allocator@N@std@@@std@@@Z@4HA 0000000180031c90 f   VImage.obj
 0001:00030ca0       ?dtor$0@?0??linear@VImage@vips@@QEBA?AV12@V?$vector@NV?$allocator@N@std@@@std@@NPEAVVOption@2@@Z@4HA 0000000180031ca0 f   VError.obj
 0001:00030cac       ?dtor$1@?0??linear@VImage@vips@@QEBA?AV12@V?$vector@NV?$allocator@N@std@@@std@@NPEAVVOption@2@@Z@4HA 0000000180031cac f   VError.obj
 0001:00030cc0       ?dtor$0@?0??linear@VImage@vips@@QEBA?AV12@NV?$vector@NV?$allocator@N@std@@@std@@PEAVVOption@2@@Z@4HA 0000000180031cc0 f   VError.obj
 0001:00030ccc       ?dtor$1@?0??linear@VImage@vips@@QEBA?AV12@NV?$vector@NV?$allocator@N@std@@@std@@PEAVVOption@2@@Z@4HA 0000000180031ccc f   VError.obj
 0001:00030ce0       ?dtor$0@?0??bandjoin@VImage@vips@@QEBA?AV12@V?$vector@NV?$allocator@N@std@@@std@@PEAVVOption@2@@Z@4HA 0000000180031ce0 f   VError.obj
 0001:00030cf0       ?dtor$0@?0??wop@VImage@vips@@QEBA?AV12@V12@PEAVVOption@2@@Z@4HA 0000000180031cf0 f   VError.obj
 0001:00030cf0       ?dtor$0@?0???Ovips@@YA?AVVImage@0@NV10@@Z@4HA 0000000180031cf0 f   VImage.obj
 0001:00030cf0       ?dtor$0@?0???Pvips@@YA?AVVImage@0@NV10@@Z@4HA 0000000180031cf0 f   VImage.obj
 0001:00030cf0       ?dtor$0@?0???8vips@@YA?AVVImage@0@NV10@@Z@4HA 0000000180031cf0 f   VImage.obj
 0001:00030cf0       ?dtor$0@?0??pow@VImage@vips@@QEBA?AV12@V12@PEAVVOption@2@@Z@4HA 0000000180031cf0 f   VError.obj
 0001:00030cf0       ?dtor$0@?0???9vips@@YA?AVVImage@0@NV10@@Z@4HA 0000000180031cf0 f   VImage.obj
 0001:00030cf0       ?dtor$0@?0???Mvips@@YA?AVVImage@0@NV10@@Z@4HA 0000000180031cf0 f   VImage.obj
 0001:00030cf0       ?dtor$0@?0??ifthenelse@VImage@vips@@QEBA?AV12@V12@NPEAVVOption@2@@Z@4HA 0000000180031cf0 f   VError.obj
 0001:00030cf0       ?dtor$0@?0???Tvips@@YA?AVVImage@0@NV10@@Z@4HA 0000000180031cf0 f   VImage.obj
 0001:00030cf0       ?dtor$0@?0???Ivips@@YA?AVVImage@0@NV10@@Z@4HA 0000000180031cf0 f   VImage.obj
 0001:00030cf0       ?dtor$2@?0???_0vips@@YAAEAVVImage@0@AEAV10@N@Z@4HA 0000000180031cf0 f   VImage.obj
 0001:00030cf0       ?dtor$2@?0???Zvips@@YAAEAVVImage@0@AEAV10@N@Z@4HA 0000000180031cf0 f   VImage.obj
 0001:00030cf0       ?dtor$0@?0??dilate@VImage@vips@@QEBA?AV12@V12@PEAVVOption@2@@Z@4HA 0000000180031cf0 f   VError.obj
 0001:00030cf0       ?dtor$0@?0???Uvips@@YA?AVVImage@0@NV10@@Z@4HA 0000000180031cf0 f   VImage.obj
 0001:00030cf0       ?dtor$0@?0???Nvips@@YA?AVVImage@0@NV10@@Z@4HA 0000000180031cf0 f   VImage.obj
 0001:00030cf0       ?dtor$0@?0??erode@VImage@vips@@QEBA?AV12@V12@PEAVVOption@2@@Z@4HA 0000000180031cf0 f   VError.obj
 0001:00030d00       ?dtor$0@?0??pow@VImage@vips@@QEBA?AV12@V?$vector@NV?$allocator@N@std@@@std@@PEAVVOption@2@@Z@4HA 0000000180031d00 f   VError.obj
 0001:00030d00       ?dtor$0@?0??wop@VImage@vips@@QEBA?AV12@V?$vector@NV?$allocator@N@std@@@std@@PEAVVOption@2@@Z@4HA 0000000180031d00 f   VError.obj
 0001:00030d10       ?dtor$0@?0??ifthenelse@VImage@vips@@QEBA?AV12@V?$vector@NV?$allocator@N@std@@@std@@V12@PEAVVOption@2@@Z@4HA 0000000180031d10 f   VError.obj
 0001:00030d1c       ?dtor$1@?0??ifthenelse@VImage@vips@@QEBA?AV12@V?$vector@NV?$allocator@N@std@@@std@@V12@PEAVVOption@2@@Z@4HA 0000000180031d1c f   VError.obj
 0001:00030d28       ?dtor$2@?0??ifthenelse@VImage@vips@@QEBA?AV12@V?$vector@NV?$allocator@N@std@@@std@@V12@PEAVVOption@2@@Z@4HA 0000000180031d28 f   VError.obj
 0001:00030d40       ?dtor$0@?0??ifthenelse@VImage@vips@@QEBA?AV12@V12@V?$vector@NV?$allocator@N@std@@@std@@PEAVVOption@2@@Z@4HA 0000000180031d40 f   VError.obj
 0001:00030d4c       ?dtor$1@?0??ifthenelse@VImage@vips@@QEBA?AV12@V12@V?$vector@NV?$allocator@N@std@@@std@@PEAVVOption@2@@Z@4HA 0000000180031d4c f   VError.obj
 0001:00030d60       ?dtor$0@?0??ifthenelse@VImage@vips@@QEBA?AV12@V?$vector@NV?$allocator@N@std@@@std@@0PEAVVOption@2@@Z@4HA 0000000180031d60 f   VError.obj
 0001:00030d6c       ?dtor$1@?0??ifthenelse@VImage@vips@@QEBA?AV12@V?$vector@NV?$allocator@N@std@@@std@@0PEAVVOption@2@@Z@4HA 0000000180031d6c f   VError.obj
 0001:00030d78       ?dtor$3@?0??ifthenelse@VImage@vips@@QEBA?AV12@V?$vector@NV?$allocator@N@std@@@std@@0PEAVVOption@2@@Z@4HA 0000000180031d78 f   VError.obj
 0001:00030d90       ?dtor$0@?0??ifthenelse@VImage@vips@@QEBA?AV12@NV12@PEAVVOption@2@@Z@4HA 0000000180031d90 f   VError.obj
 0001:00030d9c       ?dtor$1@?0??ifthenelse@VImage@vips@@QEBA?AV12@NV12@PEAVVOption@2@@Z@4HA 0000000180031d9c f   VError.obj
 0001:00030db0       ?dtor$0@?0???$_Insert_string@DU?$char_traits@D@std@@_K@std@@YAAEAV?$basic_ostream@DU?$char_traits@D@std@@@0@AEAV10@QEBD_K@Z@4HA 0000000180031db0 f   VError.obj
 0001:00030dbc       ?dtor$1@?0???$_Insert_string@DU?$char_traits@D@std@@_K@std@@YAAEAV?$basic_ostream@DU?$char_traits@D@std@@@0@AEAV10@QEBD_K@Z@4HA 0000000180031dbc f   VError.obj
 0001:00030dd0       ?dtor$0@?0???$_Assign_cast@AEAPEAUPair@VOption@vips@@V?$_List_unchecked_const_iterator@V?$_List_val@U?$_List_simple_types@PEAUPair@VOption@vips@@@std@@@std@@U_Iterator_base0@2@@std@@@?$list@PEAUPair@VOption@vips@@V?$allocator@PEAUPair@VOption@vips@@@std@@@std@@AEAAXV?$_List_unchecked_const_iterator@V?$_List_val@U?$_List_simple_types@PEAUPair@VOption@vips@@@std@@@std@@U_Iterator_base0@2@@1@V21@@Z@4HA 0000000180031dd0 f   VError.obj
 0001:00030ddc       ?dtor$1@?0???$_Assign_cast@AEAPEAUPair@VOption@vips@@V?$_List_unchecked_const_iterator@V?$_List_val@U?$_List_simple_types@PEAUPair@VOption@vips@@@std@@@std@@U_Iterator_base0@2@@std@@@?$list@PEAUPair@VOption@vips@@V?$allocator@PEAUPair@VOption@vips@@@std@@@std@@AEAAXV?$_List_unchecked_const_iterator@V?$_List_val@U?$_List_simple_types@PEAUPair@VOption@vips@@@std@@@std@@U_Iterator_base0@2@@1@V21@@Z@4HA 0000000180031ddc f   VError.obj
 0001:00030df0       ?dtor$0@?0???0sentry@?$basic_ostream@DU?$char_traits@D@std@@@std@@QEAA@AEAV12@@Z@4HA 0000000180031df0 f   VError.obj
 0001:00030dfc       ?dtor$1@?0???0sentry@?$basic_ostream@DU?$char_traits@D@std@@@std@@QEAA@AEAV12@@Z@4HA 0000000180031dfc f   VError.obj
 0001:00030e08       ?dtor$2@?0???0sentry@?$basic_ostream@DU?$char_traits@D@std@@@std@@QEAA@AEAV12@@Z@4HA 0000000180031e08 f   VError.obj
 0001:00030e20       ?dtor$0@?0??set@VOption@vips@@QEAAPEAV12@PEBDVVInterpolate@2@@Z@4HA 0000000180031e20 f   VInterpolate.obj
 0001:00030e20       ?dtor$0@?0??set@VOption@vips@@QEAAPEAV12@PEBDVVImage@2@@Z@4HA 0000000180031e20 f   VImage.obj
 0001:00030e2c       ?dtor$2@?0??set@VOption@vips@@QEAAPEAV12@PEBDVVInterpolate@2@@Z@4HA 0000000180031e2c f   VInterpolate.obj
 0001:00030e2c       ?dtor$2@?0??set@VOption@vips@@QEAAPEAV12@PEBDVVImage@2@@Z@4HA 0000000180031e2c f   VImage.obj
 0001:00030e38       ?dtor$3@?0??set@VOption@vips@@QEAAPEAV12@PEBDVVInterpolate@2@@Z@4HA 0000000180031e38 f   VInterpolate.obj
 0001:00030e38       ?dtor$3@?0??set@VOption@vips@@QEAAPEAV12@PEBDVVImage@2@@Z@4HA 0000000180031e38 f   VImage.obj
 0001:00030e50       ?dtor$0@?0??invert@vips@@YA?AV?$vector@NV?$allocator@N@std@@@std@@V23@@Z@4HA 0000000180031e50 f   VImage.obj
 0001:00030e50       ?dtor$0@?0??negate@vips@@YA?AV?$vector@NV?$allocator@N@std@@@std@@V23@@Z@4HA 0000000180031e50 f   VImage.obj
 0001:00030e60       ?dtor$1@?0??set@VOption@vips@@QEAAPEAV12@PEBDPEA_N@Z@4HA 0000000180031e60 f   VImage.obj
 0001:00030e60       ?dtor$1@?0??set@VOption@vips@@QEAAPEAV12@PEBD_N@Z@4HA 0000000180031e60 f   VImage.obj
 0001:00030e60       ?dtor$1@?0??set@VOption@vips@@QEAAPEAV12@PEBDPEAVVImage@2@@Z@4HA 0000000180031e60 f   VImage.obj
 0001:00030e60       ?dtor$1@?0??set@VOption@vips@@QEAAPEAV12@PEBDPEAV?$vector@NV?$allocator@N@std@@@std@@@Z@4HA 0000000180031e60 f   VImage.obj
 0001:00030e60       ?dtor$1@?0??set@VOption@vips@@QEAAPEAV12@PEBDPEAU_VipsBlob@@@Z@4HA 0000000180031e60 f   VImage.obj
 0001:00030e60       ?dtor$1@?0??set@VOption@vips@@QEAAPEAV12@PEBDPEAPEAU_VipsBlob@@@Z@4HA 0000000180031e60 f   VImage.obj
 0001:00030e60       ?dtor$1@?0??set@VOption@vips@@QEAAPEAV12@PEBD0@Z@4HA 0000000180031e60 f   VImage.obj
 0001:00030e60       ?dtor$1@?0??set@VOption@vips@@QEAAPEAV12@PEBDPEAN@Z@4HA 0000000180031e60 f   VImage.obj
 0001:00030e60       ?dtor$1@?0??set@VOption@vips@@QEAAPEAV12@PEBDH@Z@4HA 0000000180031e60 f   VImage.obj
 0001:00030e60       ?dtor$1@?0??set@VOption@vips@@QEAAPEAV12@PEBDN@Z@4HA 0000000180031e60 f   VImage.obj
 0001:00030e60       ?dtor$1@?0??set@VOption@vips@@QEAAPEAV12@PEBDPEAH@Z@4HA 0000000180031e60 f   VImage.obj
 0001:00030e6c       ?dtor$2@?0??set@VOption@vips@@QEAAPEAV12@PEBD_N@Z@4HA 0000000180031e6c f   VImage.obj
 0001:00030e6c       ?dtor$2@?0??set@VOption@vips@@QEAAPEAV12@PEBD0@Z@4HA 0000000180031e6c f   VImage.obj
 0001:00030e6c       ?dtor$2@?0??set@VOption@vips@@QEAAPEAV12@PEBDH@Z@4HA 0000000180031e6c f   VImage.obj
 0001:00030e6c       ?dtor$2@?0??set@VOption@vips@@QEAAPEAV12@PEBDN@Z@4HA 0000000180031e6c f   VImage.obj
 0001:00030e6c       ?dtor$2@?0??set@VOption@vips@@QEAAPEAV12@PEBDPEAH@Z@4HA 0000000180031e6c f   VImage.obj
 0001:00030e6c       ?dtor$2@?0??set@VOption@vips@@QEAAPEAV12@PEBDPEAN@Z@4HA 0000000180031e6c f   VImage.obj
 0001:00030e6c       ?dtor$2@?0??set@VOption@vips@@QEAAPEAV12@PEBDPEAPEAU_VipsBlob@@@Z@4HA 0000000180031e6c f   VImage.obj
 0001:00030e6c       ?dtor$2@?0??set@VOption@vips@@QEAAPEAV12@PEBDPEAU_VipsBlob@@@Z@4HA 0000000180031e6c f   VImage.obj
 0001:00030e6c       ?dtor$2@?0??set@VOption@vips@@QEAAPEAV12@PEBDPEAV?$vector@NV?$allocator@N@std@@@std@@@Z@4HA 0000000180031e6c f   VImage.obj
 0001:00030e6c       ?dtor$2@?0??set@VOption@vips@@QEAAPEAV12@PEBDPEAVVImage@2@@Z@4HA 0000000180031e6c f   VImage.obj
 0001:00030e6c       ?dtor$2@?0??set@VOption@vips@@QEAAPEAV12@PEBDPEA_N@Z@4HA 0000000180031e6c f   VImage.obj
 0001:00030e80       ?dtor$0@?0??set@VOption@vips@@QEAAPEAV12@PEBDV?$vector@NV?$allocator@N@std@@@std@@@Z@4HA 0000000180031e80 f   VImage.obj
 0001:00030e8c       ?dtor$2@?0??set@VOption@vips@@QEAAPEAV12@PEBDV?$vector@NV?$allocator@N@std@@@std@@@Z@4HA 0000000180031e8c f   VImage.obj
 0001:00030e98       ?dtor$3@?0??set@VOption@vips@@QEAAPEAV12@PEBDV?$vector@NV?$allocator@N@std@@@std@@@Z@4HA 0000000180031e98 f   VImage.obj
 0001:00030eb0       ?dtor$0@?0??set@VOption@vips@@QEAAPEAV12@PEBDV?$vector@HV?$allocator@H@std@@@std@@@Z@4HA 0000000180031eb0 f   VImage.obj
 0001:00030ebc       ?dtor$2@?0??set@VOption@vips@@QEAAPEAV12@PEBDV?$vector@HV?$allocator@H@std@@@std@@@Z@4HA 0000000180031ebc f   VImage.obj
 0001:00030ec8       ?dtor$3@?0??set@VOption@vips@@QEAAPEAV12@PEBDV?$vector@HV?$allocator@H@std@@@std@@@Z@4HA 0000000180031ec8 f   VImage.obj
 0001:00030ee0       ?dtor$0@?0??set@VOption@vips@@QEAAPEAV12@PEBDV?$vector@VVImage@vips@@V?$allocator@VVImage@vips@@@std@@@std@@@Z@4HA 0000000180031ee0 f   VImage.obj
 0001:00030eec       ?dtor$2@?0??set@VOption@vips@@QEAAPEAV12@PEBDV?$vector@VVImage@vips@@V?$allocator@VVImage@vips@@@std@@@std@@@Z@4HA 0000000180031eec f   VImage.obj
 0001:00030ef8       ?dtor$3@?0??set@VOption@vips@@QEAAPEAV12@PEBDV?$vector@VVImage@vips@@V?$allocator@VVImage@vips@@@std@@@std@@@Z@4HA 0000000180031ef8 f   VImage.obj
 0001:00030f10       ?dtor$0@?0??new_from_file@VImage@vips@@SA?AV12@PEBDPEAVVOption@2@@Z@4HA 0000000180031f10 f   VImage.obj
 0001:00030f10       ?dtor$0@?0??new_from_buffer@VImage@vips@@SA?AV12@PEBX_KPEBDPEAVVOption@2@@Z@4HA 0000000180031f10 f   VImage.obj
 0001:00030f36       ?dtor$1@?0??new_from_file@VImage@vips@@SA?AV12@PEBDPEAVVOption@2@@Z@4HA 0000000180031f36 f   VImage.obj
 0001:00030f36       ?dtor$1@?0??new_from_buffer@VImage@vips@@SA?AV12@PEBX_KPEBDPEAVVOption@2@@Z@4HA 0000000180031f36 f   VImage.obj
 0001:00030f60       ?dtor$0@?0??write@VImage@vips@@QEBA?AV12@V12@@Z@4HA 0000000180031f60 f   VImage.obj
 0001:00030f70       ?dtor$0@?0??system@VImage@vips@@SAXPEBDPEAVVOption@2@@Z@4HA 0000000180031f70 f   VImage.obj
 0001:00030f70       ?dtor$1@?0??write_to_buffer@VImage@vips@@QEBAXPEBDPEAPEAXPEA_KPEAVVOption@2@@Z@4HA 0000000180031f70 f   VImage.obj
 0001:00030f90       ?dtor$0@?0??rad2float@VImage@vips@@QEBA?AV12@PEAVVOption@2@@Z@4HA 0000000180031f90 f   VImage.obj
 0001:00030f90       ?dtor$0@?0??hough_circle@VImage@vips@@QEBA?AV12@PEAVVOption@2@@Z@4HA 0000000180031f90 f   VImage.obj
 0001:00030f90       ?dtor$0@?0??hist_plot@VImage@vips@@QEBA?AV12@PEAVVOption@2@@Z@4HA 0000000180031f90 f   VImage.obj
 0001:00030f90       ?dtor$0@?0??sobel@VImage@vips@@QEBA?AV12@PEAVVOption@2@@Z@4HA 0000000180031f90 f   VImage.obj
 0001:00030f90       ?dtor$0@?0??spectrum@VImage@vips@@QEBA?AV12@PEAVVOption@2@@Z@4HA 0000000180031f90 f   VImage.obj
 0001:00030f90       ?dtor$0@?0??globalbalance@VImage@vips@@QEBA?AV12@PEAVVOption@2@@Z@4HA 0000000180031f90 f   VImage.obj
 0001:00030f90       ?dtor$0@?0??hough_line@VImage@vips@@QEBA?AV12@PEAVVOption@2@@Z@4HA 0000000180031f90 f   VImage.obj
 0001:00030f90       ?dtor$0@?0??icc_export@VImage@vips@@QEBA?AV12@PEAVVOption@2@@Z@4HA 0000000180031f90 f   VImage.obj
 0001:00030f90       ?dtor$0@?0??stats@VImage@vips@@QEBA?AV12@PEAVVOption@2@@Z@4HA 0000000180031f90 f   VImage.obj
 0001:00030f90       ?dtor$0@?0??similarity@VImage@vips@@QEBA?AV12@PEAVVOption@2@@Z@4HA 0000000180031f90 f   VImage.obj
 0001:00030f90       ?dtor$0@?0??sign@VImage@vips@@QEBA?AV12@PEAVVOption@2@@Z@4HA 0000000180031f90 f   VImage.obj
 0001:00030f90       ?dtor$0@?0??tilecache@VImage@vips@@QEBA?AV12@PEAVVOption@2@@Z@4HA 0000000180031f90 f   VImage.obj
 0001:00030f90       ?dtor$0@?0??transpose3d@VImage@vips@@QEBA?AV12@PEAVVOption@2@@Z@4HA 0000000180031f90 f   VImage.obj
 0001:00030f90       ?dtor$0@?0??unpremultiply@VImage@vips@@QEBA?AV12@PEAVVOption@2@@Z@4HA 0000000180031f90 f   VImage.obj
 0001:00030f90       ?dtor$0@?0??labelregions@VImage@vips@@QEBA?AV12@PEAVVOption@2@@Z@4HA 0000000180031f90 f   VImage.obj
 0001:00030f90       ?dtor$0@?0??icc_import@VImage@vips@@QEBA?AV12@PEAVVOption@2@@Z@4HA 0000000180031f90 f   VImage.obj
 0001:00030f90       ?dtor$0@?0??linecache@VImage@vips@@QEBA?AV12@PEAVVOption@2@@Z@4HA 0000000180031f90 f   VImage.obj
 0001:00030f90       ?dtor$0@?0??sharpen@VImage@vips@@QEBA?AV12@PEAVVOption@2@@Z@4HA 0000000180031f90 f   VImage.obj
 0001:00030f90       ?dtor$0@?0??scale@VImage@vips@@QEBA?AV12@PEAVVOption@2@@Z@4HA 0000000180031f90 f   VImage.obj
 0001:00030f90       ?dtor$0@?0??copy@VImage@vips@@QEBA?AV12@PEAVVOption@2@@Z@4HA 0000000180031f90 f   VImage.obj
 0001:00030f90       ?dtor$0@?0??rot45@VImage@vips@@QEBA?AV12@PEAVVOption@2@@Z@4HA 0000000180031f90 f   VImage.obj
 0001:00030f90       ?dtor$0@?0??CMC2LCh@VImage@vips@@QEBA?AV12@PEAVVOption@2@@Z@4HA 0000000180031f90 f   VImage.obj
 0001:00030f90       ?dtor$0@?0??CMYK2XYZ@VImage@vips@@QEBA?AV12@PEAVVOption@2@@Z@4HA 0000000180031f90 f   VImage.obj
 0001:00030f90       ?dtor$0@?0??HSV2sRGB@VImage@vips@@QEBA?AV12@PEAVVOption@2@@Z@4HA 0000000180031f90 f   VImage.obj
 0001:00030f90       ?dtor$0@?0??LCh2CMC@VImage@vips@@QEBA?AV12@PEAVVOption@2@@Z@4HA 0000000180031f90 f   VImage.obj
 0001:00030f90       ?dtor$0@?0??Lab2LCh@VImage@vips@@QEBA?AV12@PEAVVOption@2@@Z@4HA 0000000180031f90 f   VImage.obj
 0001:00030f90       ?dtor$0@?0??Lab2LabQ@VImage@vips@@QEBA?AV12@PEAVVOption@2@@Z@4HA 0000000180031f90 f   VImage.obj
 0001:00030f90       ?dtor$0@?0??gamma@VImage@vips@@QEBA?AV12@PEAVVOption@2@@Z@4HA 0000000180031f90 f   VImage.obj
 0001:00030f90       ?dtor$0@?0??sRGB2HSV@VImage@vips@@QEBA?AV12@PEAVVOption@2@@Z@4HA 0000000180031f90 f   VImage.obj
 0001:00030f90       ?dtor$0@?0??Lab2LabS@VImage@vips@@QEBA?AV12@PEAVVOption@2@@Z@4HA 0000000180031f90 f   VImage.obj
 0001:00030f90       ?dtor$0@?0??fwfft@VImage@vips@@QEBA?AV12@PEAVVOption@2@@Z@4HA 0000000180031f90 f   VImage.obj
 0001:00030f90       ?dtor$0@?0??LCh2Lab@VImage@vips@@QEBA?AV12@PEAVVOption@2@@Z@4HA 0000000180031f90 f   VImage.obj
 0001:00030f90       ?dtor$0@?0??sRGB2scRGB@VImage@vips@@QEBA?AV12@PEAVVOption@2@@Z@4HA 0000000180031f90 f   VImage.obj
 0001:00030f90       ?dtor$0@?0??Lab2XYZ@VImage@vips@@QEBA?AV12@PEAVVOption@2@@Z@4HA 0000000180031f90 f   VImage.obj
 0001:00030f90       ?dtor$0@?0??scRGB2BW@VImage@vips@@QEBA?AV12@PEAVVOption@2@@Z@4HA 0000000180031f90 f   VImage.obj
 0001:00030f90       ?dtor$0@?0??LabQ2Lab@VImage@vips@@QEBA?AV12@PEAVVOption@2@@Z@4HA 0000000180031f90 f   VImage.obj
 0001:00030f90       ?dtor$0@?0??LabQ2LabS@VImage@vips@@QEBA?AV12@PEAVVOption@2@@Z@4HA 0000000180031f90 f   VImage.obj
 0001:00030f90       ?dtor$0@?0??msb@VImage@vips@@QEBA?AV12@PEAVVOption@2@@Z@4HA 0000000180031f90 f   VImage.obj
 0001:00030f90       ?dtor$0@?0??float2rad@VImage@vips@@QEBA?AV12@PEAVVOption@2@@Z@4HA 0000000180031f90 f   VImage.obj
 0001:00030f90       ?dtor$0@?0??flatten@VImage@vips@@QEBA?AV12@PEAVVOption@2@@Z@4HA 0000000180031f90 f   VImage.obj
 0001:00030f90       ?dtor$0@?0??LabQ2sRGB@VImage@vips@@QEBA?AV12@PEAVVOption@2@@Z@4HA 0000000180031f90 f   VImage.obj
 0001:00030f90       ?dtor$0@?0??LabS2Lab@VImage@vips@@QEBA?AV12@PEAVVOption@2@@Z@4HA 0000000180031f90 f   VImage.obj
 0001:00030f90       ?dtor$0@?0??LabS2LabQ@VImage@vips@@QEBA?AV12@PEAVVOption@2@@Z@4HA 0000000180031f90 f   VImage.obj
 0001:00030f90       ?dtor$0@?0??XYZ2CMYK@VImage@vips@@QEBA?AV12@PEAVVOption@2@@Z@4HA 0000000180031f90 f   VImage.obj
 0001:00030f90       ?dtor$0@?0??scRGB2XYZ@VImage@vips@@QEBA?AV12@PEAVVOption@2@@Z@4HA 0000000180031f90 f   VImage.obj
 0001:00030f90       ?dtor$0@?0??XYZ2Lab@VImage@vips@@QEBA?AV12@PEAVVOption@2@@Z@4HA 0000000180031f90 f   VImage.obj
 0001:00030f90       ?dtor$0@?0??XYZ2Yxy@VImage@vips@@QEBA?AV12@PEAVVOption@2@@Z@4HA 0000000180031f90 f   VImage.obj
 0001:00030f90       ?dtor$0@?0??invert@VImage@vips@@QEBA?AV12@PEAVVOption@2@@Z@4HA 0000000180031f90 f   VImage.obj
 0001:00030f90       ?dtor$0@?0??scRGB2sRGB@VImage@vips@@QEBA?AV12@PEAVVOption@2@@Z@4HA 0000000180031f90 f   VImage.obj
 0001:00030f90       ?dtor$0@?0??XYZ2scRGB@VImage@vips@@QEBA?AV12@PEAVVOption@2@@Z@4HA 0000000180031f90 f   VImage.obj
 0001:00030f90       ?dtor$0@?0??Yxy2XYZ@VImage@vips@@QEBA?AV12@PEAVVOption@2@@Z@4HA 0000000180031f90 f   VImage.obj
 0001:00030f90       ?dtor$0@?0??abs@VImage@vips@@QEBA?AV12@PEAVVOption@2@@Z@4HA 0000000180031f90 f   VImage.obj
 0001:00030f90       ?dtor$0@?0??sequential@VImage@vips@@QEBA?AV12@PEAVVOption@2@@Z@4HA 0000000180031f90 f   VImage.obj
 0001:00030f90       ?dtor$0@?0??autorot@VImage@vips@@QEBA?AV12@PEAVVOption@2@@Z@4HA 0000000180031f90 f   VImage.obj
 0001:00030f90       ?dtor$0@?0??bandfold@VImage@vips@@QEBA?AV12@PEAVVOption@2@@Z@4HA 0000000180031f90 f   VImage.obj
 0001:00030f90       ?dtor$0@?0??invertlut@VImage@vips@@QEBA?AV12@PEAVVOption@2@@Z@4HA 0000000180031f90 f   VImage.obj
 0001:00030f90       ?dtor$0@?0??fill_nearest@VImage@vips@@QEBA?AV12@PEAVVOption@2@@Z@4HA 0000000180031f90 f   VImage.obj
 0001:00030f90       ?dtor$0@?0??wrap@VImage@vips@@QEBA?AV12@PEAVVOption@2@@Z@4HA 0000000180031f90 f   VImage.obj
 0001:00030f90       ?dtor$0@?0??bandmean@VImage@vips@@QEBA?AV12@PEAVVOption@2@@Z@4HA 0000000180031f90 f   VImage.obj
 0001:00030f90       ?dtor$0@?0??bandunfold@VImage@vips@@QEBA?AV12@PEAVVOption@2@@Z@4HA 0000000180031f90 f   VImage.obj
 0001:00030f90       ?dtor$0@?0??invfft@VImage@vips@@QEBA?AV12@PEAVVOption@2@@Z@4HA 0000000180031f90 f   VImage.obj
 0001:00030f90       ?dtor$0@?0??hist_find@VImage@vips@@QEBA?AV12@PEAVVOption@2@@Z@4HA 0000000180031f90 f   VImage.obj
 0001:00030f90       ?dtor$0@?0??hist_cum@VImage@vips@@QEBA?AV12@PEAVVOption@2@@Z@4HA 0000000180031f90 f   VImage.obj
 0001:00030f90       ?dtor$0@?0??buildlut@VImage@vips@@QEBA?AV12@PEAVVOption@2@@Z@4HA 0000000180031f90 f   VImage.obj
 0001:00030f90       ?dtor$0@?0??hist_find_ndim@VImage@vips@@QEBA?AV12@PEAVVOption@2@@Z@4HA 0000000180031f90 f   VImage.obj
 0001:00030f90       ?dtor$0@?0??byteswap@VImage@vips@@QEBA?AV12@PEAVVOption@2@@Z@4HA 0000000180031f90 f   VImage.obj
 0001:00030f90       ?dtor$0@?0??cache@VImage@vips@@QEBA?AV12@PEAVVOption@2@@Z@4HA 0000000180031f90 f   VImage.obj
 0001:00030f90       ?dtor$0@?0??falsecolour@VImage@vips@@QEBA?AV12@PEAVVOption@2@@Z@4HA 0000000180031f90 f   VImage.obj
 0001:00030f90       ?dtor$0@?0??canny@VImage@vips@@QEBA?AV12@PEAVVOption@2@@Z@4HA 0000000180031f90 f   VImage.obj
 0001:00030f90       ?dtor$0@?0??premultiply@VImage@vips@@QEBA?AV12@PEAVVOption@2@@Z@4HA 0000000180031f90 f   VImage.obj
 0001:00030f90       ?dtor$0@?0??hist_equal@VImage@vips@@QEBA?AV12@PEAVVOption@2@@Z@4HA 0000000180031f90 f   VImage.obj
 0001:00030f90       ?dtor$0@?0??hist_norm@VImage@vips@@QEBA?AV12@PEAVVOption@2@@Z@4HA 0000000180031f90 f   VImage.obj
 0001:00030fb6       ?dtor$2@?0??canny@VImage@vips@@QEBA?AV12@PEAVVOption@2@@Z@4HA 0000000180031fb6 f   VImage.obj
 0001:00030fb6       ?dtor$2@?0??byteswap@VImage@vips@@QEBA?AV12@PEAVVOption@2@@Z@4HA 0000000180031fb6 f   VImage.obj
 0001:00030fb6       ?dtor$2@?0??gamma@VImage@vips@@QEBA?AV12@PEAVVOption@2@@Z@4HA 0000000180031fb6 f   VImage.obj
 0001:00030fb6       ?dtor$2@?0??globalbalance@VImage@vips@@QEBA?AV12@PEAVVOption@2@@Z@4HA 0000000180031fb6 f   VImage.obj
 0001:00030fb6       ?dtor$2@?0??hist_cum@VImage@vips@@QEBA?AV12@PEAVVOption@2@@Z@4HA 0000000180031fb6 f   VImage.obj
 0001:00030fb6       ?dtor$2@?0??hist_equal@VImage@vips@@QEBA?AV12@PEAVVOption@2@@Z@4HA 0000000180031fb6 f   VImage.obj
 0001:00030fb6       ?dtor$2@?0??hist_find@VImage@vips@@QEBA?AV12@PEAVVOption@2@@Z@4HA 0000000180031fb6 f   VImage.obj
 0001:00030fb6       ?dtor$2@?0??bandunfold@VImage@vips@@QEBA?AV12@PEAVVOption@2@@Z@4HA 0000000180031fb6 f   VImage.obj
 0001:00030fb6       ?dtor$2@?0??hist_find_ndim@VImage@vips@@QEBA?AV12@PEAVVOption@2@@Z@4HA 0000000180031fb6 f   VImage.obj
 0001:00030fb6       ?dtor$2@?0??fill_nearest@VImage@vips@@QEBA?AV12@PEAVVOption@2@@Z@4HA 0000000180031fb6 f   VImage.obj
 0001:00030fb6       ?dtor$2@?0??hist_norm@VImage@vips@@QEBA?AV12@PEAVVOption@2@@Z@4HA 0000000180031fb6 f   VImage.obj
 0001:00030fb6       ?dtor$2@?0??hist_plot@VImage@vips@@QEBA?AV12@PEAVVOption@2@@Z@4HA 0000000180031fb6 f   VImage.obj
 0001:00030fb6       ?dtor$2@?0??bandmean@VImage@vips@@QEBA?AV12@PEAVVOption@2@@Z@4HA 0000000180031fb6 f   VImage.obj
 0001:00030fb6       ?dtor$2@?0??hough_circle@VImage@vips@@QEBA?AV12@PEAVVOption@2@@Z@4HA 0000000180031fb6 f   VImage.obj
 0001:00030fb6       ?dtor$2@?0??hough_line@VImage@vips@@QEBA?AV12@PEAVVOption@2@@Z@4HA 0000000180031fb6 f   VImage.obj
 0001:00030fb6       ?dtor$2@?0??icc_export@VImage@vips@@QEBA?AV12@PEAVVOption@2@@Z@4HA 0000000180031fb6 f   VImage.obj
 0001:00030fb6       ?dtor$2@?0??bandfold@VImage@vips@@QEBA?AV12@PEAVVOption@2@@Z@4HA 0000000180031fb6 f   VImage.obj
 0001:00030fb6       ?dtor$2@?0??icc_import@VImage@vips@@QEBA?AV12@PEAVVOption@2@@Z@4HA 0000000180031fb6 f   VImage.obj
 0001:00030fb6       ?dtor$2@?0??invert@VImage@vips@@QEBA?AV12@PEAVVOption@2@@Z@4HA 0000000180031fb6 f   VImage.obj
 0001:00030fb6       ?dtor$2@?0??invfft@VImage@vips@@QEBA?AV12@PEAVVOption@2@@Z@4HA 0000000180031fb6 f   VImage.obj
 0001:00030fb6       ?dtor$2@?0??autorot@VImage@vips@@QEBA?AV12@PEAVVOption@2@@Z@4HA 0000000180031fb6 f   VImage.obj
 0001:00030fb6       ?dtor$2@?0??labelregions@VImage@vips@@QEBA?AV12@PEAVVOption@2@@Z@4HA 0000000180031fb6 f   VImage.obj
 0001:00030fb6       ?dtor$2@?0??flatten@VImage@vips@@QEBA?AV12@PEAVVOption@2@@Z@4HA 0000000180031fb6 f   VImage.obj
 0001:00030fb6       ?dtor$2@?0??wrap@VImage@vips@@QEBA?AV12@PEAVVOption@2@@Z@4HA 0000000180031fb6 f   VImage.obj
 0001:00030fb6       ?dtor$2@?0??abs@VImage@vips@@QEBA?AV12@PEAVVOption@2@@Z@4HA 0000000180031fb6 f   VImage.obj
 0001:00030fb6       ?dtor$2@?0??float2rad@VImage@vips@@QEBA?AV12@PEAVVOption@2@@Z@4HA 0000000180031fb6 f   VImage.obj
 0001:00030fb6       ?dtor$2@?0??Yxy2XYZ@VImage@vips@@QEBA?AV12@PEAVVOption@2@@Z@4HA 0000000180031fb6 f   VImage.obj
 0001:00030fb6       ?dtor$2@?0??transpose3d@VImage@vips@@QEBA?AV12@PEAVVOption@2@@Z@4HA 0000000180031fb6 f   VImage.obj
 0001:00030fb6       ?dtor$2@?0??XYZ2scRGB@VImage@vips@@QEBA?AV12@PEAVVOption@2@@Z@4HA 0000000180031fb6 f   VImage.obj
 0001:00030fb6       ?dtor$2@?0??XYZ2Yxy@VImage@vips@@QEBA?AV12@PEAVVOption@2@@Z@4HA 0000000180031fb6 f   VImage.obj
 0001:00030fb6       ?dtor$2@?0??XYZ2Lab@VImage@vips@@QEBA?AV12@PEAVVOption@2@@Z@4HA 0000000180031fb6 f   VImage.obj
 0001:00030fb6       ?dtor$2@?0??XYZ2CMYK@VImage@vips@@QEBA?AV12@PEAVVOption@2@@Z@4HA 0000000180031fb6 f   VImage.obj
 0001:00030fb6       ?dtor$2@?0??invertlut@VImage@vips@@QEBA?AV12@PEAVVOption@2@@Z@4HA 0000000180031fb6 f   VImage.obj
 0001:00030fb6       ?dtor$2@?0??LabS2LabQ@VImage@vips@@QEBA?AV12@PEAVVOption@2@@Z@4HA 0000000180031fb6 f   VImage.obj
 0001:00030fb6       ?dtor$2@?0??LabS2Lab@VImage@vips@@QEBA?AV12@PEAVVOption@2@@Z@4HA 0000000180031fb6 f   VImage.obj
 0001:00030fb6       ?dtor$2@?0??LabQ2sRGB@VImage@vips@@QEBA?AV12@PEAVVOption@2@@Z@4HA 0000000180031fb6 f   VImage.obj
 0001:00030fb6       ?dtor$2@?0??LabQ2LabS@VImage@vips@@QEBA?AV12@PEAVVOption@2@@Z@4HA 0000000180031fb6 f   VImage.obj
 0001:00030fb6       ?dtor$2@?0??LabQ2Lab@VImage@vips@@QEBA?AV12@PEAVVOption@2@@Z@4HA 0000000180031fb6 f   VImage.obj
 0001:00030fb6       ?dtor$2@?0??Lab2XYZ@VImage@vips@@QEBA?AV12@PEAVVOption@2@@Z@4HA 0000000180031fb6 f   VImage.obj
 0001:00030fb6       ?dtor$2@?0??msb@VImage@vips@@QEBA?AV12@PEAVVOption@2@@Z@4HA 0000000180031fb6 f   VImage.obj
 0001:00030fb6       ?dtor$2@?0??Lab2LabS@VImage@vips@@QEBA?AV12@PEAVVOption@2@@Z@4HA 0000000180031fb6 f   VImage.obj
 0001:00030fb6       ?dtor$2@?0??tilecache@VImage@vips@@QEBA?AV12@PEAVVOption@2@@Z@4HA 0000000180031fb6 f   VImage.obj
 0001:00030fb6       ?dtor$2@?0??Lab2LabQ@VImage@vips@@QEBA?AV12@PEAVVOption@2@@Z@4HA 0000000180031fb6 f   VImage.obj
 0001:00030fb6       ?dtor$2@?0??Lab2LCh@VImage@vips@@QEBA?AV12@PEAVVOption@2@@Z@4HA 0000000180031fb6 f   VImage.obj
 0001:00030fb6       ?dtor$2@?0??LCh2Lab@VImage@vips@@QEBA?AV12@PEAVVOption@2@@Z@4HA 0000000180031fb6 f   VImage.obj
 0001:00030fb6       ?dtor$2@?0??LCh2CMC@VImage@vips@@QEBA?AV12@PEAVVOption@2@@Z@4HA 0000000180031fb6 f   VImage.obj
 0001:00030fb6       ?dtor$2@?0??HSV2sRGB@VImage@vips@@QEBA?AV12@PEAVVOption@2@@Z@4HA 0000000180031fb6 f   VImage.obj
 0001:00030fb6       ?dtor$2@?0??CMYK2XYZ@VImage@vips@@QEBA?AV12@PEAVVOption@2@@Z@4HA 0000000180031fb6 f   VImage.obj
 0001:00030fb6       ?dtor$2@?0??CMC2LCh@VImage@vips@@QEBA?AV12@PEAVVOption@2@@Z@4HA 0000000180031fb6 f   VImage.obj
 0001:00030fb6       ?dtor$2@?0??linecache@VImage@vips@@QEBA?AV12@PEAVVOption@2@@Z@4HA 0000000180031fb6 f   VImage.obj
 0001:00030fb6       ?dtor$2@?0??premultiply@VImage@vips@@QEBA?AV12@PEAVVOption@2@@Z@4HA 0000000180031fb6 f   VImage.obj
 0001:00030fb6       ?dtor$2@?0??rad2float@VImage@vips@@QEBA?AV12@PEAVVOption@2@@Z@4HA 0000000180031fb6 f   VImage.obj
 0001:00030fb6       ?dtor$2@?0??rot45@VImage@vips@@QEBA?AV12@PEAVVOption@2@@Z@4HA 0000000180031fb6 f   VImage.obj
 0001:00030fb6       ?dtor$2@?0??sRGB2HSV@VImage@vips@@QEBA?AV12@PEAVVOption@2@@Z@4HA 0000000180031fb6 f   VImage.obj
 0001:00030fb6       ?dtor$2@?0??sRGB2scRGB@VImage@vips@@QEBA?AV12@PEAVVOption@2@@Z@4HA 0000000180031fb6 f   VImage.obj
 0001:00030fb6       ?dtor$2@?0??cache@VImage@vips@@QEBA?AV12@PEAVVOption@2@@Z@4HA 0000000180031fb6 f   VImage.obj
 0001:00030fb6       ?dtor$2@?0??scRGB2BW@VImage@vips@@QEBA?AV12@PEAVVOption@2@@Z@4HA 0000000180031fb6 f   VImage.obj
 0001:00030fb6       ?dtor$2@?0??scRGB2XYZ@VImage@vips@@QEBA?AV12@PEAVVOption@2@@Z@4HA 0000000180031fb6 f   VImage.obj
 0001:00030fb6       ?dtor$2@?0??scRGB2sRGB@VImage@vips@@QEBA?AV12@PEAVVOption@2@@Z@4HA 0000000180031fb6 f   VImage.obj
 0001:00030fb6       ?dtor$2@?0??scale@VImage@vips@@QEBA?AV12@PEAVVOption@2@@Z@4HA 0000000180031fb6 f   VImage.obj
 0001:00030fb6       ?dtor$2@?0??sequential@VImage@vips@@QEBA?AV12@PEAVVOption@2@@Z@4HA 0000000180031fb6 f   VImage.obj
 0001:00030fb6       ?dtor$2@?0??sharpen@VImage@vips@@QEBA?AV12@PEAVVOption@2@@Z@4HA 0000000180031fb6 f   VImage.obj
 0001:00030fb6       ?dtor$2@?0??buildlut@VImage@vips@@QEBA?AV12@PEAVVOption@2@@Z@4HA 0000000180031fb6 f   VImage.obj
 0001:00030fb6       ?dtor$2@?0??stats@VImage@vips@@QEBA?AV12@PEAVVOption@2@@Z@4HA 0000000180031fb6 f   VImage.obj
 0001:00030fb6       ?dtor$2@?0??copy@VImage@vips@@QEBA?AV12@PEAVVOption@2@@Z@4HA 0000000180031fb6 f   VImage.obj
 0001:00030fb6       ?dtor$2@?0??spectrum@VImage@vips@@QEBA?AV12@PEAVVOption@2@@Z@4HA 0000000180031fb6 f   VImage.obj
 0001:00030fb6       ?dtor$2@?0??sign@VImage@vips@@QEBA?AV12@PEAVVOption@2@@Z@4HA 0000000180031fb6 f   VImage.obj
 0001:00030fb6       ?dtor$2@?0??fwfft@VImage@vips@@QEBA?AV12@PEAVVOption@2@@Z@4HA 0000000180031fb6 f   VImage.obj
 0001:00030fb6       ?dtor$2@?0??sobel@VImage@vips@@QEBA?AV12@PEAVVOption@2@@Z@4HA 0000000180031fb6 f   VImage.obj
 0001:00030fb6       ?dtor$2@?0??similarity@VImage@vips@@QEBA?AV12@PEAVVOption@2@@Z@4HA 0000000180031fb6 f   VImage.obj
 0001:00030fb6       ?dtor$2@?0??unpremultiply@VImage@vips@@QEBA?AV12@PEAVVOption@2@@Z@4HA 0000000180031fb6 f   VImage.obj
 0001:00030fb6       ?dtor$2@?0??falsecolour@VImage@vips@@QEBA?AV12@PEAVVOption@2@@Z@4HA 0000000180031fb6 f   VImage.obj
 0001:00030fe0       ?dtor$0@?0??convasep@VImage@vips@@QEBA?AV12@V12@PEAVVOption@2@@Z@4HA 0000000180031fe0 f   VImage.obj
 0001:00030fe0       ?dtor$0@?0??spcor@VImage@vips@@QEBA?AV12@V12@PEAVVOption@2@@Z@4HA 0000000180031fe0 f   VImage.obj
 0001:00030fe0       ?dtor$0@?0??dE76@VImage@vips@@QEBA?AV12@V12@PEAVVOption@2@@Z@4HA 0000000180031fe0 f   VImage.obj
 0001:00030fe0       ?dtor$0@?0??freqmult@VImage@vips@@QEBA?AV12@V12@PEAVVOption@2@@Z@4HA 0000000180031fe0 f   VImage.obj
 0001:00030fe0       ?dtor$0@?0??dE00@VImage@vips@@QEBA?AV12@V12@PEAVVOption@2@@Z@4HA 0000000180031fe0 f   VImage.obj
 0001:00030fe0       ?dtor$0@?0??quadratic@VImage@vips@@QEBA?AV12@V12@PEAVVOption@2@@Z@4HA 0000000180031fe0 f   VImage.obj
 0001:00030fe0       ?dtor$0@?0??compass@VImage@vips@@QEBA?AV12@V12@PEAVVOption@2@@Z@4HA 0000000180031fe0 f   VImage.obj
 0001:00030fe0       ?dtor$0@?0??hist_match@VImage@vips@@QEBA?AV12@V12@PEAVVOption@2@@Z@4HA 0000000180031fe0 f   VImage.obj
 0001:00030fe0       ?dtor$0@?0??conva@VImage@vips@@QEBA?AV12@V12@PEAVVOption@2@@Z@4HA 0000000180031fe0 f   VImage.obj
 0001:00030fe0       ?dtor$0@?0??complexform@VImage@vips@@QEBA?AV12@V12@PEAVVOption@2@@Z@4HA 0000000180031fe0 f   VImage.obj
 0001:00030fe0       ?dtor$0@?0??convf@VImage@vips@@QEBA?AV12@V12@PEAVVOption@2@@Z@4HA 0000000180031fe0 f   VImage.obj
 0001:00030fe0       ?dtor$0@?0??add@VImage@vips@@QEBA?AV12@V12@PEAVVOption@2@@Z@4HA 0000000180031fe0 f   VImage.obj
 0001:00030fe0       ?dtor$0@?0??hist_find_indexed@VImage@vips@@QEBA?AV12@V12@PEAVVOption@2@@Z@4HA 0000000180031fe0 f   VImage.obj
 0001:00030fe0       ?dtor$0@?0??convi@VImage@vips@@QEBA?AV12@V12@PEAVVOption@2@@Z@4HA 0000000180031fe0 f   VImage.obj
 0001:00030fe0       ?dtor$0@?0??phasecor@VImage@vips@@QEBA?AV12@V12@PEAVVOption@2@@Z@4HA 0000000180031fe0 f   VImage.obj
 0001:00030fe0       ?dtor$0@?0??conv@VImage@vips@@QEBA?AV12@V12@PEAVVOption@2@@Z@4HA 0000000180031fe0 f   VImage.obj
 0001:00030fe0       ?dtor$0@?0??convsep@VImage@vips@@QEBA?AV12@V12@PEAVVOption@2@@Z@4HA 0000000180031fe0 f   VImage.obj
 0001:00030fe0       ?dtor$0@?0??fastcor@VImage@vips@@QEBA?AV12@V12@PEAVVOption@2@@Z@4HA 0000000180031fe0 f   VImage.obj
 0001:00030fe0       ?dtor$0@?0??remainder@VImage@vips@@QEBA?AV12@V12@PEAVVOption@2@@Z@4HA 0000000180031fe0 f   VImage.obj
 0001:00030fe0       ?dtor$0@?0??subtract@VImage@vips@@QEBA?AV12@V12@PEAVVOption@2@@Z@4HA 0000000180031fe0 f   VImage.obj
 0001:00030fe0       ?dtor$0@?0??divide@VImage@vips@@QEBA?AV12@V12@PEAVVOption@2@@Z@4HA 0000000180031fe0 f   VImage.obj
 0001:00030fe0       ?dtor$0@?0??recomb@VImage@vips@@QEBA?AV12@V12@PEAVVOption@2@@Z@4HA 0000000180031fe0 f   VImage.obj
 0001:00030fe0       ?dtor$0@?0??dECMC@VImage@vips@@QEBA?AV12@V12@PEAVVOption@2@@Z@4HA 0000000180031fe0 f   VImage.obj
 0001:00030fe0       ?dtor$0@?0??maplut@VImage@vips@@QEBA?AV12@V12@PEAVVOption@2@@Z@4HA 0000000180031fe0 f   VImage.obj
 0001:00030fe0       ?dtor$0@?0??mapim@VImage@vips@@QEBA?AV12@V12@PEAVVOption@2@@Z@4HA 0000000180031fe0 f   VImage.obj
 0001:00030fe0       ?dtor$0@?0??multiply@VImage@vips@@QEBA?AV12@V12@PEAVVOption@2@@Z@4HA 0000000180031fe0 f   VImage.obj
 0001:00030fec       ?dtor$1@?0??conv@VImage@vips@@QEBA?AV12@V12@PEAVVOption@2@@Z@4HA 0000000180031fec f   VImage.obj
 0001:00030fec       ?dtor$1@?0??conva@VImage@vips@@QEBA?AV12@V12@PEAVVOption@2@@Z@4HA 0000000180031fec f   VImage.obj
 0001:00030fec       ?dtor$1@?0??convasep@VImage@vips@@QEBA?AV12@V12@PEAVVOption@2@@Z@4HA 0000000180031fec f   VImage.obj
 0001:00030fec       ?dtor$1@?0??multiply@VImage@vips@@QEBA?AV12@V12@PEAVVOption@2@@Z@4HA 0000000180031fec f   VImage.obj
 0001:00030fec       ?dtor$1@?0??remainder@VImage@vips@@QEBA?AV12@V12@PEAVVOption@2@@Z@4HA 0000000180031fec f   VImage.obj
 0001:00030fec       ?dtor$1@?0??dE76@VImage@vips@@QEBA?AV12@V12@PEAVVOption@2@@Z@4HA 0000000180031fec f   VImage.obj
 0001:00030fec       ?dtor$1@?0??dE00@VImage@vips@@QEBA?AV12@V12@PEAVVOption@2@@Z@4HA 0000000180031fec f   VImage.obj
 0001:00030fec       ?dtor$1@?0??freqmult@VImage@vips@@QEBA?AV12@V12@PEAVVOption@2@@Z@4HA 0000000180031fec f   VImage.obj
 0001:00030fec       ?dtor$1@?0??subtract@VImage@vips@@QEBA?AV12@V12@PEAVVOption@2@@Z@4HA 0000000180031fec f   VImage.obj
 0001:00030fec       ?dtor$1@?0??convsep@VImage@vips@@QEBA?AV12@V12@PEAVVOption@2@@Z@4HA 0000000180031fec f   VImage.obj
 0001:00030fec       ?dtor$1@?0??convi@VImage@vips@@QEBA?AV12@V12@PEAVVOption@2@@Z@4HA 0000000180031fec f   VImage.obj
 0001:00030fec       ?dtor$1@?0??hist_find_indexed@VImage@vips@@QEBA?AV12@V12@PEAVVOption@2@@Z@4HA 0000000180031fec f   VImage.obj
 0001:00030fec       ?dtor$1@?0??fastcor@VImage@vips@@QEBA?AV12@V12@PEAVVOption@2@@Z@4HA 0000000180031fec f   VImage.obj
 0001:00030fec       ?dtor$1@?0??quadratic@VImage@vips@@QEBA?AV12@V12@PEAVVOption@2@@Z@4HA 0000000180031fec f   VImage.obj
 0001:00030fec       ?dtor$1@?0??divide@VImage@vips@@QEBA?AV12@V12@PEAVVOption@2@@Z@4HA 0000000180031fec f   VImage.obj
 0001:00030fec       ?dtor$1@?0??add@VImage@vips@@QEBA?AV12@V12@PEAVVOption@2@@Z@4HA 0000000180031fec f   VImage.obj
 0001:00030fec       ?dtor$1@?0??recomb@VImage@vips@@QEBA?AV12@V12@PEAVVOption@2@@Z@4HA 0000000180031fec f   VImage.obj
 0001:00030fec       ?dtor$1@?0??dECMC@VImage@vips@@QEBA?AV12@V12@PEAVVOption@2@@Z@4HA 0000000180031fec f   VImage.obj
 0001:00030fec       ?dtor$1@?0??hist_match@VImage@vips@@QEBA?AV12@V12@PEAVVOption@2@@Z@4HA 0000000180031fec f   VImage.obj
 0001:00030fec       ?dtor$1@?0??spcor@VImage@vips@@QEBA?AV12@V12@PEAVVOption@2@@Z@4HA 0000000180031fec f   VImage.obj
 0001:00030fec       ?dtor$1@?0??phasecor@VImage@vips@@QEBA?AV12@V12@PEAVVOption@2@@Z@4HA 0000000180031fec f   VImage.obj
 0001:00030fec       ?dtor$1@?0??compass@VImage@vips@@QEBA?AV12@V12@PEAVVOption@2@@Z@4HA 0000000180031fec f   VImage.obj
 0001:00030fec       ?dtor$1@?0??maplut@VImage@vips@@QEBA?AV12@V12@PEAVVOption@2@@Z@4HA 0000000180031fec f   VImage.obj
 0001:00030fec       ?dtor$1@?0??mapim@VImage@vips@@QEBA?AV12@V12@PEAVVOption@2@@Z@4HA 0000000180031fec f   VImage.obj
 0001:00030fec       ?dtor$1@?0??complexform@VImage@vips@@QEBA?AV12@V12@PEAVVOption@2@@Z@4HA 0000000180031fec f   VImage.obj
 0001:00030fec       ?dtor$1@?0??convf@VImage@vips@@QEBA?AV12@V12@PEAVVOption@2@@Z@4HA 0000000180031fec f   VImage.obj
 0001:00031015       ?dtor$4@?0??recomb@VImage@vips@@QEBA?AV12@V12@PEAVVOption@2@@Z@4HA 0000000180032015 f   VImage.obj
 0001:00031015       ?dtor$4@?0??convf@VImage@vips@@QEBA?AV12@V12@PEAVVOption@2@@Z@4HA 0000000180032015 f   VImage.obj
 0001:00031015       ?dtor$4@?0??dE00@VImage@vips@@QEBA?AV12@V12@PEAVVOption@2@@Z@4HA 0000000180032015 f   VImage.obj
 0001:00031015       ?dtor$4@?0??dECMC@VImage@vips@@QEBA?AV12@V12@PEAVVOption@2@@Z@4HA 0000000180032015 f   VImage.obj
 0001:00031015       ?dtor$4@?0??convasep@VImage@vips@@QEBA?AV12@V12@PEAVVOption@2@@Z@4HA 0000000180032015 f   VImage.obj
 0001:00031015       ?dtor$4@?0??conv@VImage@vips@@QEBA?AV12@V12@PEAVVOption@2@@Z@4HA 0000000180032015 f   VImage.obj
 0001:00031015       ?dtor$4@?0??quadratic@VImage@vips@@QEBA?AV12@V12@PEAVVOption@2@@Z@4HA 0000000180032015 f   VImage.obj
 0001:00031015       ?dtor$4@?0??maplut@VImage@vips@@QEBA?AV12@V12@PEAVVOption@2@@Z@4HA 0000000180032015 f   VImage.obj
 0001:00031015       ?dtor$4@?0??freqmult@VImage@vips@@QEBA?AV12@V12@PEAVVOption@2@@Z@4HA 0000000180032015 f   VImage.obj
 0001:00031015       ?dtor$4@?0??mapim@VImage@vips@@QEBA?AV12@V12@PEAVVOption@2@@Z@4HA 0000000180032015 f   VImage.obj
 0001:00031015       ?dtor$4@?0??spcor@VImage@vips@@QEBA?AV12@V12@PEAVVOption@2@@Z@4HA 0000000180032015 f   VImage.obj
 0001:00031015       ?dtor$4@?0??conva@VImage@vips@@QEBA?AV12@V12@PEAVVOption@2@@Z@4HA 0000000180032015 f   VImage.obj
 0001:00031015       ?dtor$4@?0??divide@VImage@vips@@QEBA?AV12@V12@PEAVVOption@2@@Z@4HA 0000000180032015 f   VImage.obj
 0001:00031015       ?dtor$4@?0??convsep@VImage@vips@@QEBA?AV12@V12@PEAVVOption@2@@Z@4HA 0000000180032015 f   VImage.obj
 0001:00031015       ?dtor$4@?0??complexform@VImage@vips@@QEBA?AV12@V12@PEAVVOption@2@@Z@4HA 0000000180032015 f   VImage.obj
 0001:00031015       ?dtor$4@?0??subtract@VImage@vips@@QEBA?AV12@V12@PEAVVOption@2@@Z@4HA 0000000180032015 f   VImage.obj
 0001:00031015       ?dtor$4@?0??dE76@VImage@vips@@QEBA?AV12@V12@PEAVVOption@2@@Z@4HA 0000000180032015 f   VImage.obj
 0001:00031015       ?dtor$4@?0??multiply@VImage@vips@@QEBA?AV12@V12@PEAVVOption@2@@Z@4HA 0000000180032015 f   VImage.obj
 0001:00031015       ?dtor$4@?0??phasecor@VImage@vips@@QEBA?AV12@V12@PEAVVOption@2@@Z@4HA 0000000180032015 f   VImage.obj
 0001:00031015       ?dtor$4@?0??add@VImage@vips@@QEBA?AV12@V12@PEAVVOption@2@@Z@4HA 0000000180032015 f   VImage.obj
 0001:00031015       ?dtor$4@?0??fastcor@VImage@vips@@QEBA?AV12@V12@PEAVVOption@2@@Z@4HA 0000000180032015 f   VImage.obj
 0001:00031015       ?dtor$4@?0??convi@VImage@vips@@QEBA?AV12@V12@PEAVVOption@2@@Z@4HA 0000000180032015 f   VImage.obj
 0001:00031015       ?dtor$4@?0??compass@VImage@vips@@QEBA?AV12@V12@PEAVVOption@2@@Z@4HA 0000000180032015 f   VImage.obj
 0001:00031015       ?dtor$4@?0??hist_match@VImage@vips@@QEBA?AV12@V12@PEAVVOption@2@@Z@4HA 0000000180032015 f   VImage.obj
 0001:00031015       ?dtor$4@?0??remainder@VImage@vips@@QEBA?AV12@V12@PEAVVOption@2@@Z@4HA 0000000180032015 f   VImage.obj
 0001:00031015       ?dtor$4@?0??hist_find_indexed@VImage@vips@@QEBA?AV12@V12@PEAVVOption@2@@Z@4HA 0000000180032015 f   VImage.obj
 0001:00031032       ?dtor$2@?0??fastcor@VImage@vips@@QEBA?AV12@V12@PEAVVOption@2@@Z@4HA 0000000180032032 f   VImage.obj
 0001:00031032       ?dtor$2@?0??divide@VImage@vips@@QEBA?AV12@V12@PEAVVOption@2@@Z@4HA 0000000180032032 f   VImage.obj
 0001:00031032       ?dtor$2@?0??dECMC@VImage@vips@@QEBA?AV12@V12@PEAVVOption@2@@Z@4HA 0000000180032032 f   VImage.obj
 0001:00031032       ?dtor$2@?0??dE76@VImage@vips@@QEBA?AV12@V12@PEAVVOption@2@@Z@4HA 0000000180032032 f   VImage.obj
 0001:00031032       ?dtor$2@?0??dE00@VImage@vips@@QEBA?AV12@V12@PEAVVOption@2@@Z@4HA 0000000180032032 f   VImage.obj
 0001:00031032       ?dtor$2@?0??convsep@VImage@vips@@QEBA?AV12@V12@PEAVVOption@2@@Z@4HA 0000000180032032 f   VImage.obj
 0001:00031032       ?dtor$2@?0??convi@VImage@vips@@QEBA?AV12@V12@PEAVVOption@2@@Z@4HA 0000000180032032 f   VImage.obj
 0001:00031032       ?dtor$2@?0??convf@VImage@vips@@QEBA?AV12@V12@PEAVVOption@2@@Z@4HA 0000000180032032 f   VImage.obj
 0001:00031032       ?dtor$2@?0??convasep@VImage@vips@@QEBA?AV12@V12@PEAVVOption@2@@Z@4HA 0000000180032032 f   VImage.obj
 0001:00031032       ?dtor$2@?0??conva@VImage@vips@@QEBA?AV12@V12@PEAVVOption@2@@Z@4HA 0000000180032032 f   VImage.obj
 0001:00031032       ?dtor$2@?0??conv@VImage@vips@@QEBA?AV12@V12@PEAVVOption@2@@Z@4HA 0000000180032032 f   VImage.obj
 0001:00031032       ?dtor$2@?0??complexform@VImage@vips@@QEBA?AV12@V12@PEAVVOption@2@@Z@4HA 0000000180032032 f   VImage.obj
 0001:00031032       ?dtor$2@?0??compass@VImage@vips@@QEBA?AV12@V12@PEAVVOption@2@@Z@4HA 0000000180032032 f   VImage.obj
 0001:00031032       ?dtor$2@?0??add@VImage@vips@@QEBA?AV12@V12@PEAVVOption@2@@Z@4HA 0000000180032032 f   VImage.obj
 0001:00031032       ?dtor$2@?0??remainder@VImage@vips@@QEBA?AV12@V12@PEAVVOption@2@@Z@4HA 0000000180032032 f   VImage.obj
 0001:00031032       ?dtor$2@?0??subtract@VImage@vips@@QEBA?AV12@V12@PEAVVOption@2@@Z@4HA 0000000180032032 f   VImage.obj
 0001:00031032       ?dtor$2@?0??spcor@VImage@vips@@QEBA?AV12@V12@PEAVVOption@2@@Z@4HA 0000000180032032 f   VImage.obj
 0001:00031032       ?dtor$2@?0??recomb@VImage@vips@@QEBA?AV12@V12@PEAVVOption@2@@Z@4HA 0000000180032032 f   VImage.obj
 0001:00031032       ?dtor$2@?0??quadratic@VImage@vips@@QEBA?AV12@V12@PEAVVOption@2@@Z@4HA 0000000180032032 f   VImage.obj
 0001:00031032       ?dtor$2@?0??phasecor@VImage@vips@@QEBA?AV12@V12@PEAVVOption@2@@Z@4HA 0000000180032032 f   VImage.obj
 0001:00031032       ?dtor$2@?0??multiply@VImage@vips@@QEBA?AV12@V12@PEAVVOption@2@@Z@4HA 0000000180032032 f   VImage.obj
 0001:00031032       ?dtor$2@?0??maplut@VImage@vips@@QEBA?AV12@V12@PEAVVOption@2@@Z@4HA 0000000180032032 f   VImage.obj
 0001:00031032       ?dtor$2@?0??mapim@VImage@vips@@QEBA?AV12@V12@PEAVVOption@2@@Z@4HA 0000000180032032 f   VImage.obj
 0001:00031032       ?dtor$2@?0??hist_match@VImage@vips@@QEBA?AV12@V12@PEAVVOption@2@@Z@4HA 0000000180032032 f   VImage.obj
 0001:00031032       ?dtor$2@?0??hist_find_indexed@VImage@vips@@QEBA?AV12@V12@PEAVVOption@2@@Z@4HA 0000000180032032 f   VImage.obj
 0001:00031032       ?dtor$2@?0??freqmult@VImage@vips@@QEBA?AV12@V12@PEAVVOption@2@@Z@4HA 0000000180032032 f   VImage.obj
 0001:00031040       ?dtor$0@?0??affine@VImage@vips@@QEBA?AV12@V?$vector@NV?$allocator@N@std@@@std@@PEAVVOption@2@@Z@4HA 0000000180032040 f   VImage.obj
 0001:00031040       ?dtor$0@?0??remainder_const@VImage@vips@@QEBA?AV12@V?$vector@NV?$allocator@N@std@@@std@@PEAVVOption@2@@Z@4HA 0000000180032040 f   VImage.obj
 0001:00031040       ?dtor$0@?0??bandjoin_const@VImage@vips@@QEBA?AV12@V?$vector@NV?$allocator@N@std@@@std@@PEAVVOption@2@@Z@4HA 0000000180032040 f   VImage.obj
 0001:0003104c       ?dtor$1@?0??bandjoin_const@VImage@vips@@QEBA?AV12@V?$vector@NV?$allocator@N@std@@@std@@PEAVVOption@2@@Z@4HA 000000018003204c f   VImage.obj
 0001:0003104c       ?dtor$1@?0??remainder_const@VImage@vips@@QEBA?AV12@V?$vector@NV?$allocator@N@std@@@std@@PEAVVOption@2@@Z@4HA 000000018003204c f   VImage.obj
 0001:0003104c       ?dtor$1@?0??affine@VImage@vips@@QEBA?AV12@V?$vector@NV?$allocator@N@std@@@std@@PEAVVOption@2@@Z@4HA 000000018003204c f   VImage.obj
 0001:00031075       ?dtor$4@?0??bandjoin_const@VImage@vips@@QEBA?AV12@V?$vector@NV?$allocator@N@std@@@std@@PEAVVOption@2@@Z@4HA 0000000180032075 f   VImage.obj
 0001:00031075       ?dtor$4@?0??affine@VImage@vips@@QEBA?AV12@V?$vector@NV?$allocator@N@std@@@std@@PEAVVOption@2@@Z@4HA 0000000180032075 f   VImage.obj
 0001:00031075       ?dtor$4@?0??remainder_const@VImage@vips@@QEBA?AV12@V?$vector@NV?$allocator@N@std@@@std@@PEAVVOption@2@@Z@4HA 0000000180032075 f   VImage.obj
 0001:00031092       ?dtor$2@?0??affine@VImage@vips@@QEBA?AV12@V?$vector@NV?$allocator@N@std@@@std@@PEAVVOption@2@@Z@4HA 0000000180032092 f   VImage.obj
 0001:00031092       ?dtor$2@?0??bandjoin_const@VImage@vips@@QEBA?AV12@V?$vector@NV?$allocator@N@std@@@std@@PEAVVOption@2@@Z@4HA 0000000180032092 f   VImage.obj
 0001:00031092       ?dtor$2@?0??remainder_const@VImage@vips@@QEBA?AV12@V?$vector@NV?$allocator@N@std@@@std@@PEAVVOption@2@@Z@4HA 0000000180032092 f   VImage.obj
 0001:000310a0       ?dtor$0@?0??jpegload_buffer@VImage@vips@@SA?AV12@PEAU_VipsBlob@@PEAVVOption@2@@Z@4HA 00000001800320a0 f   VImage.obj
 0001:000310a0       ?dtor$0@?0??jpegload@VImage@vips@@SA?AV12@PEBDPEAVVOption@2@@Z@4HA 00000001800320a0 f   VImage.obj
 0001:000310a0       ?dtor$0@?0??pngload@VImage@vips@@SA?AV12@PEBDPEAVVOption@2@@Z@4HA 00000001800320a0 f   VImage.obj
 0001:000310a0       ?dtor$0@?0??text@VImage@vips@@SA?AV12@PEBDPEAVVOption@2@@Z@4HA 00000001800320a0 f   VImage.obj
 0001:000310a0       ?dtor$0@?0??tiffload@VImage@vips@@SA?AV12@PEBDPEAVVOption@2@@Z@4HA 00000001800320a0 f   VImage.obj
 0001:000310a0       ?dtor$0@?0??niftiload@VImage@vips@@SA?AV12@PEBDPEAVVOption@2@@Z@4HA 00000001800320a0 f   VImage.obj
 0001:000310a0       ?dtor$0@?0??fitsload@VImage@vips@@SA?AV12@PEBDPEAVVOption@2@@Z@4HA 00000001800320a0 f   VImage.obj
 0001:000310a0       ?dtor$0@?0??analyzeload@VImage@vips@@SA?AV12@PEBDPEAVVOption@2@@Z@4HA 00000001800320a0 f   VImage.obj
 0001:000310a0       ?dtor$0@?0??svgload@VImage@vips@@SA?AV12@PEBDPEAVVOption@2@@Z@4HA 00000001800320a0 f   VImage.obj
 0001:000310a0       ?dtor$0@?0??svgload_buffer@VImage@vips@@SA?AV12@PEAU_VipsBlob@@PEAVVOption@2@@Z@4HA 00000001800320a0 f   VImage.obj
 0001:000310a0       ?dtor$0@?0??openexrload@VImage@vips@@SA?AV12@PEBDPEAVVOption@2@@Z@4HA 00000001800320a0 f   VImage.obj
 0001:000310a0       ?dtor$0@?0??matload@VImage@vips@@SA?AV12@PEBDPEAVVOption@2@@Z@4HA 00000001800320a0 f   VImage.obj
 0001:000310a0       ?dtor$0@?0??pdfload_buffer@VImage@vips@@SA?AV12@PEAU_VipsBlob@@PEAVVOption@2@@Z@4HA 00000001800320a0 f   VImage.obj
 0001:000310a0       ?dtor$0@?0??pngload_buffer@VImage@vips@@SA?AV12@PEAU_VipsBlob@@PEAVVOption@2@@Z@4HA 00000001800320a0 f   VImage.obj
 0001:000310a0       ?dtor$0@?0??tiffload_buffer@VImage@vips@@SA?AV12@PEAU_VipsBlob@@PEAVVOption@2@@Z@4HA 00000001800320a0 f   VImage.obj
 0001:000310a0       ?dtor$0@?0??ppmload@VImage@vips@@SA?AV12@PEBDPEAVVOption@2@@Z@4HA 00000001800320a0 f   VImage.obj
 0001:000310a0       ?dtor$0@?0??magickload@VImage@vips@@SA?AV12@PEBDPEAVVOption@2@@Z@4HA 00000001800320a0 f   VImage.obj
 0001:000310a0       ?dtor$0@?0??vipsload@VImage@vips@@SA?AV12@PEBDPEAVVOption@2@@Z@4HA 00000001800320a0 f   VImage.obj
 0001:000310a0       ?dtor$0@?0??heifload@VImage@vips@@SA?AV12@PEBDPEAVVOption@2@@Z@4HA 00000001800320a0 f   VImage.obj
 0001:000310a0       ?dtor$0@?0??heifload_buffer@VImage@vips@@SA?AV12@PEAU_VipsBlob@@PEAVVOption@2@@Z@4HA 00000001800320a0 f   VImage.obj
 0001:000310a0       ?dtor$0@?0??webpload@VImage@vips@@SA?AV12@PEBDPEAVVOption@2@@Z@4HA 00000001800320a0 f   VImage.obj
 0001:000310a0       ?dtor$0@?0??webpload_buffer@VImage@vips@@SA?AV12@PEAU_VipsBlob@@PEAVVOption@2@@Z@4HA 00000001800320a0 f   VImage.obj
 0001:000310a0       ?dtor$0@?0??pdfload@VImage@vips@@SA?AV12@PEBDPEAVVOption@2@@Z@4HA 00000001800320a0 f   VImage.obj
 0001:000310a0       ?dtor$0@?0??csvload@VImage@vips@@SA?AV12@PEBDPEAVVOption@2@@Z@4HA 00000001800320a0 f   VImage.obj
 0001:000310a0       ?dtor$0@?0??openslideload@VImage@vips@@SA?AV12@PEBDPEAVVOption@2@@Z@4HA 00000001800320a0 f   VImage.obj
 0001:000310a0       ?dtor$0@?0??matrixload@VImage@vips@@SA?AV12@PEBDPEAVVOption@2@@Z@4HA 00000001800320a0 f   VImage.obj
 0001:000310a0       ?dtor$0@?0??gifload@VImage@vips@@SA?AV12@PEBDPEAVVOption@2@@Z@4HA 00000001800320a0 f   VImage.obj
 0001:000310a0       ?dtor$0@?0??gifload_buffer@VImage@vips@@SA?AV12@PEAU_VipsBlob@@PEAVVOption@2@@Z@4HA 00000001800320a0 f   VImage.obj
 0001:000310a0       ?dtor$0@?0??radload@VImage@vips@@SA?AV12@PEBDPEAVVOption@2@@Z@4HA 00000001800320a0 f   VImage.obj
 0001:000310a0       ?dtor$0@?0??magickload_buffer@VImage@vips@@SA?AV12@PEAU_VipsBlob@@PEAVVOption@2@@Z@4HA 00000001800320a0 f   VImage.obj
 0001:000310c6       ?dtor$1@?0??heifload@VImage@vips@@SA?AV12@PEBDPEAVVOption@2@@Z@4HA 00000001800320c6 f   VImage.obj
 0001:000310c6       ?dtor$1@?0??vipsload@VImage@vips@@SA?AV12@PEBDPEAVVOption@2@@Z@4HA 00000001800320c6 f   VImage.obj
 0001:000310c6       ?dtor$1@?0??gifload@VImage@vips@@SA?AV12@PEBDPEAVVOption@2@@Z@4HA 00000001800320c6 f   VImage.obj
 0001:000310c6       ?dtor$1@?0??svgload@VImage@vips@@SA?AV12@PEBDPEAVVOption@2@@Z@4HA 00000001800320c6 f   VImage.obj
 0001:000310c6       ?dtor$1@?0??gifload_buffer@VImage@vips@@SA?AV12@PEAU_VipsBlob@@PEAVVOption@2@@Z@4HA 00000001800320c6 f   VImage.obj
 0001:000310c6       ?dtor$1@?0??svgload_buffer@VImage@vips@@SA?AV12@PEAU_VipsBlob@@PEAVVOption@2@@Z@4HA 00000001800320c6 f   VImage.obj
 0001:000310c6       ?dtor$1@?0??text@VImage@vips@@SA?AV12@PEBDPEAVVOption@2@@Z@4HA 00000001800320c6 f   VImage.obj
 0001:000310c6       ?dtor$1@?0??matload@VImage@vips@@SA?AV12@PEBDPEAVVOption@2@@Z@4HA 00000001800320c6 f   VImage.obj
 0001:000310c6       ?dtor$1@?0??tiffload_buffer@VImage@vips@@SA?AV12@PEAU_VipsBlob@@PEAVVOption@2@@Z@4HA 00000001800320c6 f   VImage.obj
 0001:000310c6       ?dtor$1@?0??magickload@VImage@vips@@SA?AV12@PEBDPEAVVOption@2@@Z@4HA 00000001800320c6 f   VImage.obj
 0001:000310c6       ?dtor$1@?0??magickload_buffer@VImage@vips@@SA?AV12@PEAU_VipsBlob@@PEAVVOption@2@@Z@4HA 00000001800320c6 f   VImage.obj
 0001:000310c6       ?dtor$1@?0??heifload_buffer@VImage@vips@@SA?AV12@PEAU_VipsBlob@@PEAVVOption@2@@Z@4HA 00000001800320c6 f   VImage.obj
 0001:000310c6       ?dtor$1@?0??matrixload@VImage@vips@@SA?AV12@PEBDPEAVVOption@2@@Z@4HA 00000001800320c6 f   VImage.obj
 0001:000310c6       ?dtor$1@?0??analyzeload@VImage@vips@@SA?AV12@PEBDPEAVVOption@2@@Z@4HA 00000001800320c6 f   VImage.obj
 0001:000310c6       ?dtor$1@?0??tiffload@VImage@vips@@SA?AV12@PEBDPEAVVOption@2@@Z@4HA 00000001800320c6 f   VImage.obj
 0001:000310c6       ?dtor$1@?0??niftiload@VImage@vips@@SA?AV12@PEBDPEAVVOption@2@@Z@4HA 00000001800320c6 f   VImage.obj
 0001:000310c6       ?dtor$1@?0??webpload_buffer@VImage@vips@@SA?AV12@PEAU_VipsBlob@@PEAVVOption@2@@Z@4HA 00000001800320c6 f   VImage.obj
 0001:000310c6       ?dtor$1@?0??openexrload@VImage@vips@@SA?AV12@PEBDPEAVVOption@2@@Z@4HA 00000001800320c6 f   VImage.obj
 0001:000310c6       ?dtor$1@?0??openslideload@VImage@vips@@SA?AV12@PEBDPEAVVOption@2@@Z@4HA 00000001800320c6 f   VImage.obj
 0001:000310c6       ?dtor$1@?0??pdfload@VImage@vips@@SA?AV12@PEBDPEAVVOption@2@@Z@4HA 00000001800320c6 f   VImage.obj
 0001:000310c6       ?dtor$1@?0??pdfload_buffer@VImage@vips@@SA?AV12@PEAU_VipsBlob@@PEAVVOption@2@@Z@4HA 00000001800320c6 f   VImage.obj
 0001:000310c6       ?dtor$1@?0??pngload@VImage@vips@@SA?AV12@PEBDPEAVVOption@2@@Z@4HA 00000001800320c6 f   VImage.obj
 0001:000310c6       ?dtor$1@?0??fitsload@VImage@vips@@SA?AV12@PEBDPEAVVOption@2@@Z@4HA 00000001800320c6 f   VImage.obj
 0001:000310c6       ?dtor$1@?0??pngload_buffer@VImage@vips@@SA?AV12@PEAU_VipsBlob@@PEAVVOption@2@@Z@4HA 00000001800320c6 f   VImage.obj
 0001:000310c6       ?dtor$1@?0??ppmload@VImage@vips@@SA?AV12@PEBDPEAVVOption@2@@Z@4HA 00000001800320c6 f   VImage.obj
 0001:000310c6       ?dtor$1@?0??radload@VImage@vips@@SA?AV12@PEBDPEAVVOption@2@@Z@4HA 00000001800320c6 f   VImage.obj
 0001:000310c6       ?dtor$1@?0??csvload@VImage@vips@@SA?AV12@PEBDPEAVVOption@2@@Z@4HA 00000001800320c6 f   VImage.obj
 0001:000310c6       ?dtor$1@?0??jpegload@VImage@vips@@SA?AV12@PEBDPEAVVOption@2@@Z@4HA 00000001800320c6 f   VImage.obj
 0001:000310c6       ?dtor$1@?0??jpegload_buffer@VImage@vips@@SA?AV12@PEAU_VipsBlob@@PEAVVOption@2@@Z@4HA 00000001800320c6 f   VImage.obj
 0001:000310c6       ?dtor$1@?0??webpload@VImage@vips@@SA?AV12@PEBDPEAVVOption@2@@Z@4HA 00000001800320c6 f   VImage.obj
 0001:000310f0       ?dtor$0@?0??bandjoin@VImage@vips@@SA?AV12@V?$vector@VVImage@vips@@V?$allocator@VVImage@vips@@@std@@@std@@PEAVVOption@2@@Z@4HA 00000001800320f0 f   VImage.obj
 0001:000310f0       ?dtor$0@?0??arrayjoin@VImage@vips@@SA?AV12@V?$vector@VVImage@vips@@V?$allocator@VVImage@vips@@@std@@@std@@PEAVVOption@2@@Z@4HA 00000001800320f0 f   VImage.obj
 0001:000310f0       ?dtor$0@?0??bandrank@VImage@vips@@SA?AV12@V?$vector@VVImage@vips@@V?$allocator@VVImage@vips@@@std@@@std@@PEAVVOption@2@@Z@4HA 00000001800320f0 f   VImage.obj
 0001:000310f0       ?dtor$0@?0??sum@VImage@vips@@SA?AV12@V?$vector@VVImage@vips@@V?$allocator@VVImage@vips@@@std@@@std@@PEAVVOption@2@@Z@4HA 00000001800320f0 f   VImage.obj
 0001:000310fc       ?dtor$1@?0??arrayjoin@VImage@vips@@SA?AV12@V?$vector@VVImage@vips@@V?$allocator@VVImage@vips@@@std@@@std@@PEAVVOption@2@@Z@4HA 00000001800320fc f   VImage.obj
 0001:000310fc       ?dtor$1@?0??sum@VImage@vips@@SA?AV12@V?$vector@VVImage@vips@@V?$allocator@VVImage@vips@@@std@@@std@@PEAVVOption@2@@Z@4HA 00000001800320fc f   VImage.obj
 0001:000310fc       ?dtor$1@?0??bandrank@VImage@vips@@SA?AV12@V?$vector@VVImage@vips@@V?$allocator@VVImage@vips@@@std@@@std@@PEAVVOption@2@@Z@4HA 00000001800320fc f   VImage.obj
 0001:000310fc       ?dtor$1@?0??bandjoin@VImage@vips@@SA?AV12@V?$vector@VVImage@vips@@V?$allocator@VVImage@vips@@@std@@@std@@PEAVVOption@2@@Z@4HA 00000001800320fc f   VImage.obj
 0001:00031125       ?dtor$3@?0??bandrank@VImage@vips@@SA?AV12@V?$vector@VVImage@vips@@V?$allocator@VVImage@vips@@@std@@@std@@PEAVVOption@2@@Z@4HA 0000000180032125 f   VImage.obj
 0001:00031125       ?dtor$3@?0??sum@VImage@vips@@SA?AV12@V?$vector@VVImage@vips@@V?$allocator@VVImage@vips@@@std@@@std@@PEAVVOption@2@@Z@4HA 0000000180032125 f   VImage.obj
 0001:00031125       ?dtor$3@?0??arrayjoin@VImage@vips@@SA?AV12@V?$vector@VVImage@vips@@V?$allocator@VVImage@vips@@@std@@@std@@PEAVVOption@2@@Z@4HA 0000000180032125 f   VImage.obj
 0001:00031125       ?dtor$3@?0??bandjoin@VImage@vips@@SA?AV12@V?$vector@VVImage@vips@@V?$allocator@VVImage@vips@@@std@@@std@@PEAVVOption@2@@Z@4HA 0000000180032125 f   VImage.obj
 0001:00031145       ?dtor$2@?0??sum@VImage@vips@@SA?AV12@V?$vector@VVImage@vips@@V?$allocator@VVImage@vips@@@std@@@std@@PEAVVOption@2@@Z@4HA 0000000180032145 f   VImage.obj
 0001:00031145       ?dtor$2@?0??bandrank@VImage@vips@@SA?AV12@V?$vector@VVImage@vips@@V?$allocator@VVImage@vips@@@std@@@std@@PEAVVOption@2@@Z@4HA 0000000180032145 f   VImage.obj
 0001:00031145       ?dtor$2@?0??arrayjoin@VImage@vips@@SA?AV12@V?$vector@VVImage@vips@@V?$allocator@VVImage@vips@@@std@@@std@@PEAVVOption@2@@Z@4HA 0000000180032145 f   VImage.obj
 0001:00031145       ?dtor$2@?0??bandjoin@VImage@vips@@SA?AV12@V?$vector@VVImage@vips@@V?$allocator@VVImage@vips@@@std@@@std@@PEAVVOption@2@@Z@4HA 0000000180032145 f   VImage.obj
 0001:00031160       ?dtor$1@?0??matrixsave@VImage@vips@@QEBAXPEBDPEAVVOption@2@@Z@4HA 0000000180032160 f   VImage.obj
 0001:00031160       ?dtor$1@?0??csvsave@VImage@vips@@QEBAXPEBDPEAVVOption@2@@Z@4HA 0000000180032160 f   VImage.obj
 0001:00031160       ?dtor$1@?0??radsave@VImage@vips@@QEBAXPEBDPEAVVOption@2@@Z@4HA 0000000180032160 f   VImage.obj
 0001:00031160       ?dtor$1@?0??min@VImage@vips@@QEBANPEAVVOption@2@@Z@4HA 0000000180032160 f   VImage.obj
 0001:00031160       ?dtor$1@?0??tiffsave_buffer@VImage@vips@@QEBAPEAU_VipsBlob@@PEAVVOption@2@@Z@4HA 0000000180032160 f   VImage.obj
 0001:00031160       ?dtor$1@?0??avg@VImage@vips@@QEBANPEAVVOption@2@@Z@4HA 0000000180032160 f   VImage.obj
 0001:00031160       ?dtor$1@?0??niftisave@VImage@vips@@QEBAXPEBDPEAVVOption@2@@Z@4HA 0000000180032160 f   VImage.obj
 0001:00031160       ?dtor$1@?0??vipssave@VImage@vips@@QEBAXPEBDPEAVVOption@2@@Z@4HA 0000000180032160 f   VImage.obj
 0001:00031160       ?dtor$1@?0??deviate@VImage@vips@@QEBANPEAVVOption@2@@Z@4HA 0000000180032160 f   VImage.obj
 0001:00031160       ?dtor$1@?0??ppmsave@VImage@vips@@QEBAXPEBDPEAVVOption@2@@Z@4HA 0000000180032160 f   VImage.obj
 0001:00031160       ?dtor$1@?0??heifsave_buffer@VImage@vips@@QEBAPEAU_VipsBlob@@PEAVVOption@2@@Z@4HA 0000000180032160 f   VImage.obj
 0001:00031160       ?dtor$1@?0??jpegsave_buffer@VImage@vips@@QEBAPEAU_VipsBlob@@PEAVVOption@2@@Z@4HA 0000000180032160 f   VImage.obj
 0001:00031160       ?dtor$1@?0??pngsave_buffer@VImage@vips@@QEBAPEAU_VipsBlob@@PEAVVOption@2@@Z@4HA 0000000180032160 f   VImage.obj
 0001:00031160       ?dtor$1@?0??hist_entropy@VImage@vips@@QEBANPEAVVOption@2@@Z@4HA 0000000180032160 f   VImage.obj
 0001:00031160       ?dtor$1@?0??jpegsave@VImage@vips@@QEBAXPEBDPEAVVOption@2@@Z@4HA 0000000180032160 f   VImage.obj
 0001:00031160       ?dtor$1@?0??tiffsave@VImage@vips@@QEBAXPEBDPEAVVOption@2@@Z@4HA 0000000180032160 f   VImage.obj
 0001:00031160       ?dtor$1@?0??webpsave@VImage@vips@@QEBAXPEBDPEAVVOption@2@@Z@4HA 0000000180032160 f   VImage.obj
 0001:00031160       ?dtor$1@?0??webpsave_buffer@VImage@vips@@QEBAPEAU_VipsBlob@@PEAVVOption@2@@Z@4HA 0000000180032160 f   VImage.obj
 0001:00031160       ?dtor$1@?0??magicksave@VImage@vips@@QEBAXPEBDPEAVVOption@2@@Z@4HA 0000000180032160 f   VImage.obj
 0001:00031160       ?dtor$1@?0??magicksave_buffer@VImage@vips@@QEBAPEAU_VipsBlob@@PEAVVOption@2@@Z@4HA 0000000180032160 f   VImage.obj
 0001:00031160       ?dtor$1@?0??max@VImage@vips@@QEBANPEAVVOption@2@@Z@4HA 0000000180032160 f   VImage.obj
 0001:00031160       ?dtor$1@?0??heifsave@VImage@vips@@QEBAXPEBDPEAVVOption@2@@Z@4HA 0000000180032160 f   VImage.obj
 0001:00031160       ?dtor$1@?0??dzsave@VImage@vips@@QEBAXPEBDPEAVVOption@2@@Z@4HA 0000000180032160 f   VImage.obj
 0001:00031160       ?dtor$1@?0??dzsave_buffer@VImage@vips@@QEBAPEAU_VipsBlob@@PEAVVOption@2@@Z@4HA 0000000180032160 f   VImage.obj
 0001:00031160       ?dtor$1@?0??rawsave_fd@VImage@vips@@QEBAXHPEAVVOption@2@@Z@4HA 0000000180032160 f   VImage.obj
 0001:00031160       ?dtor$1@?0??rawsave@VImage@vips@@QEBAXPEBDPEAVVOption@2@@Z@4HA 0000000180032160 f   VImage.obj
 0001:00031160       ?dtor$1@?0??pngsave@VImage@vips@@QEBAXPEBDPEAVVOption@2@@Z@4HA 0000000180032160 f   VImage.obj
 0001:00031160       ?dtor$1@?0??radsave_buffer@VImage@vips@@QEBAPEAU_VipsBlob@@PEAVVOption@2@@Z@4HA 0000000180032160 f   VImage.obj
 0001:00031160       ?dtor$1@?0??hist_ismonotonic@VImage@vips@@QEBA_NPEAVVOption@2@@Z@4HA 0000000180032160 f   VImage.obj
 0001:00031160       ?dtor$1@?0??fitssave@VImage@vips@@QEBAXPEBDPEAVVOption@2@@Z@4HA 0000000180032160 f   VImage.obj
 0001:00031180       ?dtor$0@?0??shrinkv@VImage@vips@@QEBA?AV12@HPEAVVOption@2@@Z@4HA 0000000180032180 f   VImage.obj
 0001:00031180       ?dtor$0@?0??cast@VImage@vips@@QEBA?AV12@W4VipsBandFormat@@PEAVVOption@2@@Z@4HA 0000000180032180 f   VImage.obj
 0001:00031180       ?dtor$0@?0??shrinkh@VImage@vips@@QEBA?AV12@HPEAVVOption@2@@Z@4HA 0000000180032180 f   VImage.obj
 0001:00031180       ?dtor$0@?0??thumbnail_image@VImage@vips@@QEBA?AV12@HPEAVVOption@2@@Z@4HA 0000000180032180 f   VImage.obj
 0001:00031180       ?dtor$0@?0??colourspace@VImage@vips@@QEBA?AV12@W4VipsInterpretation@@PEAVVOption@2@@Z@4HA 0000000180032180 f   VImage.obj
 0001:00031180       ?dtor$0@?0??complex@VImage@vips@@QEBA?AV12@W4VipsOperationComplex@@PEAVVOption@2@@Z@4HA 0000000180032180 f   VImage.obj
 0001:00031180       ?dtor$0@?0??flip@VImage@vips@@QEBA?AV12@W4VipsDirection@@PEAVVOption@2@@Z@4HA 0000000180032180 f   VImage.obj
 0001:00031180       ?dtor$0@?0??math@VImage@vips@@QEBA?AV12@W4VipsOperationMath@@PEAVVOption@2@@Z@4HA 0000000180032180 f   VImage.obj
 0001:00031180       ?dtor$0@?0??bandbool@VImage@vips@@QEBA?AV12@W4VipsOperationBoolean@@PEAVVOption@2@@Z@4HA 0000000180032180 f   VImage.obj
 0001:00031180       ?dtor$0@?0??profile@VImage@vips@@QEBA?AV12@PEAV12@PEAVVOption@2@@Z@4HA 0000000180032180 f   VImage.obj
 0001:00031180       ?dtor$0@?0??icc_transform@VImage@vips@@QEBA?AV12@PEBDPEAVVOption@2@@Z@4HA 0000000180032180 f   VImage.obj
 0001:00031180       ?dtor$0@?0??round@VImage@vips@@QEBA?AV12@W4VipsOperationRound@@PEAVVOption@2@@Z@4HA 0000000180032180 f   VImage.obj
 0001:00031180       ?dtor$0@?0??complexget@VImage@vips@@QEBA?AV12@W4VipsOperationComplexget@@PEAVVOption@2@@Z@4HA 0000000180032180 f   VImage.obj
 0001:00031180       ?dtor$0@?0??rot@VImage@vips@@QEBA?AV12@W4VipsAngle@@PEAVVOption@2@@Z@4HA 0000000180032180 f   VImage.obj
 0001:00031180       ?dtor$0@?0??project@VImage@vips@@QEBA?AV12@PEAV12@PEAVVOption@2@@Z@4HA 0000000180032180 f   VImage.obj
 0001:00031180       ?dtor$0@?0??extract_band@VImage@vips@@QEBA?AV12@HPEAVVOption@2@@Z@4HA 0000000180032180 f   VImage.obj
 0001:000311a6       ?dtor$2@?0??project@VImage@vips@@QEBA?AV12@PEAV12@PEAVVOption@2@@Z@4HA 00000001800321a6 f   VImage.obj
 0001:000311a6       ?dtor$2@?0??math@VImage@vips@@QEBA?AV12@W4VipsOperationMath@@PEAVVOption@2@@Z@4HA 00000001800321a6 f   VImage.obj
 0001:000311a6       ?dtor$2@?0??thumbnail_image@VImage@vips@@QEBA?AV12@HPEAVVOption@2@@Z@4HA 00000001800321a6 f   VImage.obj
 0001:000311a6       ?dtor$2@?0??colourspace@VImage@vips@@QEBA?AV12@W4VipsInterpretation@@PEAVVOption@2@@Z@4HA 00000001800321a6 f   VImage.obj
 0001:000311a6       ?dtor$2@?0??cast@VImage@vips@@QEBA?AV12@W4VipsBandFormat@@PEAVVOption@2@@Z@4HA 00000001800321a6 f   VImage.obj
 0001:000311a6       ?dtor$2@?0??bandbool@VImage@vips@@QEBA?AV12@W4VipsOperationBoolean@@PEAVVOption@2@@Z@4HA 00000001800321a6 f   VImage.obj
 0001:000311a6       ?dtor$2@?0??flip@VImage@vips@@QEBA?AV12@W4VipsDirection@@PEAVVOption@2@@Z@4HA 00000001800321a6 f   VImage.obj
 0001:000311a6       ?dtor$2@?0??icc_transform@VImage@vips@@QEBA?AV12@PEBDPEAVVOption@2@@Z@4HA 00000001800321a6 f   VImage.obj
 0001:000311a6       ?dtor$2@?0??shrinkv@VImage@vips@@QEBA?AV12@HPEAVVOption@2@@Z@4HA 00000001800321a6 f   VImage.obj
 0001:000311a6       ?dtor$2@?0??shrinkh@VImage@vips@@QEBA?AV12@HPEAVVOption@2@@Z@4HA 00000001800321a6 f   VImage.obj
 0001:000311a6       ?dtor$2@?0??round@VImage@vips@@QEBA?AV12@W4VipsOperationRound@@PEAVVOption@2@@Z@4HA 00000001800321a6 f   VImage.obj
 0001:000311a6       ?dtor$2@?0??complexget@VImage@vips@@QEBA?AV12@W4VipsOperationComplexget@@PEAVVOption@2@@Z@4HA 00000001800321a6 f   VImage.obj
 0001:000311a6       ?dtor$2@?0??rot@VImage@vips@@QEBA?AV12@W4VipsAngle@@PEAVVOption@2@@Z@4HA 00000001800321a6 f   VImage.obj
 0001:000311a6       ?dtor$2@?0??extract_band@VImage@vips@@QEBA?AV12@HPEAVVOption@2@@Z@4HA 00000001800321a6 f   VImage.obj
 0001:000311a6       ?dtor$2@?0??profile@VImage@vips@@QEBA?AV12@PEAV12@PEAVVOption@2@@Z@4HA 00000001800321a6 f   VImage.obj
 0001:000311a6       ?dtor$2@?0??complex@VImage@vips@@QEBA?AV12@W4VipsOperationComplex@@PEAVVOption@2@@Z@4HA 00000001800321a6 f   VImage.obj
 0001:000311d0       ?dtor$0@?0??thumbnail_buffer@VImage@vips@@SA?AV12@PEAU_VipsBlob@@HPEAVVOption@2@@Z@4HA 00000001800321d0 f   VImage.obj
 0001:000311d0       ?dtor$0@?0??xyz@VImage@vips@@SA?AV12@HHPEAVVOption@2@@Z@4HA 00000001800321d0 f   VImage.obj
 0001:000311d0       ?dtor$0@?0??eye@VImage@vips@@SA?AV12@HHPEAVVOption@2@@Z@4HA 00000001800321d0 f   VImage.obj
 0001:000311d0       ?dtor$0@?0??perlin@VImage@vips@@SA?AV12@HHPEAVVOption@2@@Z@4HA 00000001800321d0 f   VImage.obj
 0001:000311d0       ?dtor$0@?0??black@VImage@vips@@SA?AV12@HHPEAVVOption@2@@Z@4HA 00000001800321d0 f   VImage.obj
 0001:000311d0       ?dtor$0@?0??zone@VImage@vips@@SA?AV12@HHPEAVVOption@2@@Z@4HA 00000001800321d0 f   VImage.obj
 0001:000311d0       ?dtor$0@?0??gaussnoise@VImage@vips@@SA?AV12@HHPEAVVOption@2@@Z@4HA 00000001800321d0 f   VImage.obj
 0001:000311d0       ?dtor$0@?0??grey@VImage@vips@@SA?AV12@HHPEAVVOption@2@@Z@4HA 00000001800321d0 f   VImage.obj
 0001:000311d0       ?dtor$0@?0??sines@VImage@vips@@SA?AV12@HHPEAVVOption@2@@Z@4HA 00000001800321d0 f   VImage.obj
 0001:000311d0       ?dtor$0@?0??thumbnail@VImage@vips@@SA?AV12@PEBDHPEAVVOption@2@@Z@4HA 00000001800321d0 f   VImage.obj
 0001:000311d0       ?dtor$0@?0??worley@VImage@vips@@SA?AV12@HHPEAVVOption@2@@Z@4HA 00000001800321d0 f   VImage.obj
 0001:000311f6       ?dtor$1@?0??xyz@VImage@vips@@SA?AV12@HHPEAVVOption@2@@Z@4HA 00000001800321f6 f   VImage.obj
 0001:000311f6       ?dtor$1@?0??worley@VImage@vips@@SA?AV12@HHPEAVVOption@2@@Z@4HA 00000001800321f6 f   VImage.obj
 0001:000311f6       ?dtor$1@?0??sines@VImage@vips@@SA?AV12@HHPEAVVOption@2@@Z@4HA 00000001800321f6 f   VImage.obj
 0001:000311f6       ?dtor$1@?0??eye@VImage@vips@@SA?AV12@HHPEAVVOption@2@@Z@4HA 00000001800321f6 f   VImage.obj
 0001:000311f6       ?dtor$1@?0??gaussnoise@VImage@vips@@SA?AV12@HHPEAVVOption@2@@Z@4HA 00000001800321f6 f   VImage.obj
 0001:000311f6       ?dtor$1@?0??black@VImage@vips@@SA?AV12@HHPEAVVOption@2@@Z@4HA 00000001800321f6 f   VImage.obj
 0001:000311f6       ?dtor$1@?0??thumbnail@VImage@vips@@SA?AV12@PEBDHPEAVVOption@2@@Z@4HA 00000001800321f6 f   VImage.obj
 0001:000311f6       ?dtor$1@?0??thumbnail_buffer@VImage@vips@@SA?AV12@PEAU_VipsBlob@@HPEAVVOption@2@@Z@4HA 00000001800321f6 f   VImage.obj
 0001:000311f6       ?dtor$1@?0??grey@VImage@vips@@SA?AV12@HHPEAVVOption@2@@Z@4HA 00000001800321f6 f   VImage.obj
 0001:000311f6       ?dtor$1@?0??perlin@VImage@vips@@SA?AV12@HHPEAVVOption@2@@Z@4HA 00000001800321f6 f   VImage.obj
 0001:000311f6       ?dtor$1@?0??zone@VImage@vips@@SA?AV12@HHPEAVVOption@2@@Z@4HA 00000001800321f6 f   VImage.obj
 0001:00031220       ?dtor$0@?0??boolean@VImage@vips@@QEBA?AV12@V12@W4VipsOperationBoolean@@PEAVVOption@2@@Z@4HA 0000000180032220 f   VImage.obj
 0001:00031220       ?dtor$0@?0??relational@VImage@vips@@QEBA?AV12@V12@W4VipsOperationRelational@@PEAVVOption@2@@Z@4HA 0000000180032220 f   VImage.obj
 0001:00031220       ?dtor$0@?0??complex2@VImage@vips@@QEBA?AV12@V12@W4VipsOperationComplex2@@PEAVVOption@2@@Z@4HA 0000000180032220 f   VImage.obj
 0001:00031220       ?dtor$0@?0??join@VImage@vips@@QEBA?AV12@V12@W4VipsDirection@@PEAVVOption@2@@Z@4HA 0000000180032220 f   VImage.obj
 0001:00031220       ?dtor$0@?0??morph@VImage@vips@@QEBA?AV12@V12@W4VipsOperationMorphology@@PEAVVOption@2@@Z@4HA 0000000180032220 f   VImage.obj
 0001:00031220       ?dtor$0@?0??math2@VImage@vips@@QEBA?AV12@V12@W4VipsOperationMath2@@PEAVVOption@2@@Z@4HA 0000000180032220 f   VImage.obj
 0001:00031220       ?dtor$0@?0??composite2@VImage@vips@@QEBA?AV12@V12@W4VipsBlendMode@@PEAVVOption@2@@Z@4HA 0000000180032220 f   VImage.obj
 0001:0003122c       ?dtor$1@?0??relational@VImage@vips@@QEBA?AV12@V12@W4VipsOperationRelational@@PEAVVOption@2@@Z@4HA 000000018003222c f   VImage.obj
 0001:0003122c       ?dtor$1@?0??complex2@VImage@vips@@QEBA?AV12@V12@W4VipsOperationComplex2@@PEAVVOption@2@@Z@4HA 000000018003222c f   VImage.obj
 0001:0003122c       ?dtor$1@?0??morph@VImage@vips@@QEBA?AV12@V12@W4VipsOperationMorphology@@PEAVVOption@2@@Z@4HA 000000018003222c f   VImage.obj
 0001:0003122c       ?dtor$1@?0??join@VImage@vips@@QEBA?AV12@V12@W4VipsDirection@@PEAVVOption@2@@Z@4HA 000000018003222c f   VImage.obj
 0001:0003122c       ?dtor$1@?0??boolean@VImage@vips@@QEBA?AV12@V12@W4VipsOperationBoolean@@PEAVVOption@2@@Z@4HA 000000018003222c f   VImage.obj
 0001:0003122c       ?dtor$1@?0??composite2@VImage@vips@@QEBA?AV12@V12@W4VipsBlendMode@@PEAVVOption@2@@Z@4HA 000000018003222c f   VImage.obj
 0001:0003122c       ?dtor$1@?0??math2@VImage@vips@@QEBA?AV12@V12@W4VipsOperationMath2@@PEAVVOption@2@@Z@4HA 000000018003222c f   VImage.obj
 0001:00031255       ?dtor$4@?0??relational@VImage@vips@@QEBA?AV12@V12@W4VipsOperationRelational@@PEAVVOption@2@@Z@4HA 0000000180032255 f   VImage.obj
 0001:00031255       ?dtor$4@?0??boolean@VImage@vips@@QEBA?AV12@V12@W4VipsOperationBoolean@@PEAVVOption@2@@Z@4HA 0000000180032255 f   VImage.obj
 0001:00031255       ?dtor$4@?0??math2@VImage@vips@@QEBA?AV12@V12@W4VipsOperationMath2@@PEAVVOption@2@@Z@4HA 0000000180032255 f   VImage.obj
 0001:00031255       ?dtor$4@?0??morph@VImage@vips@@QEBA?AV12@V12@W4VipsOperationMorphology@@PEAVVOption@2@@Z@4HA 0000000180032255 f   VImage.obj
 0001:00031255       ?dtor$4@?0??join@VImage@vips@@QEBA?AV12@V12@W4VipsDirection@@PEAVVOption@2@@Z@4HA 0000000180032255 f   VImage.obj
 0001:00031255       ?dtor$4@?0??composite2@VImage@vips@@QEBA?AV12@V12@W4VipsBlendMode@@PEAVVOption@2@@Z@4HA 0000000180032255 f   VImage.obj
 0001:00031255       ?dtor$4@?0??complex2@VImage@vips@@QEBA?AV12@V12@W4VipsOperationComplex2@@PEAVVOption@2@@Z@4HA 0000000180032255 f   VImage.obj
 0001:00031275       ?dtor$2@?0??composite2@VImage@vips@@QEBA?AV12@V12@W4VipsBlendMode@@PEAVVOption@2@@Z@4HA 0000000180032275 f   VImage.obj
 0001:00031275       ?dtor$2@?0??math2@VImage@vips@@QEBA?AV12@V12@W4VipsOperationMath2@@PEAVVOption@2@@Z@4HA 0000000180032275 f   VImage.obj
 0001:00031275       ?dtor$2@?0??relational@VImage@vips@@QEBA?AV12@V12@W4VipsOperationRelational@@PEAVVOption@2@@Z@4HA 0000000180032275 f   VImage.obj
 0001:00031275       ?dtor$2@?0??join@VImage@vips@@QEBA?AV12@V12@W4VipsDirection@@PEAVVOption@2@@Z@4HA 0000000180032275 f   VImage.obj
 0001:00031275       ?dtor$2@?0??boolean@VImage@vips@@QEBA?AV12@V12@W4VipsOperationBoolean@@PEAVVOption@2@@Z@4HA 0000000180032275 f   VImage.obj
 0001:00031275       ?dtor$2@?0??morph@VImage@vips@@QEBA?AV12@V12@W4VipsOperationMorphology@@PEAVVOption@2@@Z@4HA 0000000180032275 f   VImage.obj
 0001:00031275       ?dtor$2@?0??complex2@VImage@vips@@QEBA?AV12@V12@W4VipsOperationComplex2@@PEAVVOption@2@@Z@4HA 0000000180032275 f   VImage.obj
 0001:00031290       ?dtor$0@?0??relational_const@VImage@vips@@QEBA?AV12@W4VipsOperationRelational@@V?$vector@NV?$allocator@N@std@@@std@@PEAVVOption@2@@Z@4HA 0000000180032290 f   VImage.obj
 0001:00031290       ?dtor$0@?0??math2_const@VImage@vips@@QEBA?AV12@W4VipsOperationMath2@@V?$vector@NV?$allocator@N@std@@@std@@PEAVVOption@2@@Z@4HA 0000000180032290 f   VImage.obj
 0001:00031290       ?dtor$0@?0??boolean_const@VImage@vips@@QEBA?AV12@W4VipsOperationBoolean@@V?$vector@NV?$allocator@N@std@@@std@@PEAVVOption@2@@Z@4HA 0000000180032290 f   VImage.obj
 0001:0003129c       ?dtor$1@?0??relational_const@VImage@vips@@QEBA?AV12@W4VipsOperationRelational@@V?$vector@NV?$allocator@N@std@@@std@@PEAVVOption@2@@Z@4HA 000000018003229c f   VImage.obj
 0001:0003129c       ?dtor$1@?0??math2_const@VImage@vips@@QEBA?AV12@W4VipsOperationMath2@@V?$vector@NV?$allocator@N@std@@@std@@PEAVVOption@2@@Z@4HA 000000018003229c f   VImage.obj
 0001:0003129c       ?dtor$1@?0??boolean_const@VImage@vips@@QEBA?AV12@W4VipsOperationBoolean@@V?$vector@NV?$allocator@N@std@@@std@@PEAVVOption@2@@Z@4HA 000000018003229c f   VImage.obj
 0001:000312c5       ?dtor$4@?0??math2_const@VImage@vips@@QEBA?AV12@W4VipsOperationMath2@@V?$vector@NV?$allocator@N@std@@@std@@PEAVVOption@2@@Z@4HA 00000001800322c5 f   VImage.obj
 0001:000312c5       ?dtor$4@?0??relational_const@VImage@vips@@QEBA?AV12@W4VipsOperationRelational@@V?$vector@NV?$allocator@N@std@@@std@@PEAVVOption@2@@Z@4HA 00000001800322c5 f   VImage.obj
 0001:000312c5       ?dtor$4@?0??boolean_const@VImage@vips@@QEBA?AV12@W4VipsOperationBoolean@@V?$vector@NV?$allocator@N@std@@@std@@PEAVVOption@2@@Z@4HA 00000001800322c5 f   VImage.obj
 0001:000312e5       ?dtor$2@?0??boolean_const@VImage@vips@@QEBA?AV12@W4VipsOperationBoolean@@V?$vector@NV?$allocator@N@std@@@std@@PEAVVOption@2@@Z@4HA 00000001800322e5 f   VImage.obj
 0001:000312e5       ?dtor$2@?0??math2_const@VImage@vips@@QEBA?AV12@W4VipsOperationMath2@@V?$vector@NV?$allocator@N@std@@@std@@PEAVVOption@2@@Z@4HA 00000001800322e5 f   VImage.obj
 0001:000312e5       ?dtor$2@?0??relational_const@VImage@vips@@QEBA?AV12@W4VipsOperationRelational@@V?$vector@NV?$allocator@N@std@@@std@@PEAVVOption@2@@Z@4HA 00000001800322e5 f   VImage.obj
 0001:00031300       ?dtor$0@?0??composite@VImage@vips@@SA?AV12@V?$vector@VVImage@vips@@V?$allocator@VVImage@vips@@@std@@@std@@V?$vector@HV?$allocator@H@std@@@4@PEAVVOption@2@@Z@4HA 0000000180032300 f   VImage.obj
 0001:0003130c       ?dtor$1@?0??composite@VImage@vips@@SA?AV12@V?$vector@VVImage@vips@@V?$allocator@VVImage@vips@@@std@@@std@@V?$vector@HV?$allocator@H@std@@@4@PEAVVOption@2@@Z@4HA 000000018003230c f   VImage.obj
 0001:00031318       ?dtor$2@?0??composite@VImage@vips@@SA?AV12@V?$vector@VVImage@vips@@V?$allocator@VVImage@vips@@@std@@@std@@V?$vector@HV?$allocator@H@std@@@4@PEAVVOption@2@@Z@4HA 0000000180032318 f   VImage.obj
 0001:00031341       ?dtor$5@?0??composite@VImage@vips@@SA?AV12@V?$vector@VVImage@vips@@V?$allocator@VVImage@vips@@@std@@@std@@V?$vector@HV?$allocator@H@std@@@4@PEAVVOption@2@@Z@4HA 0000000180032341 f   VImage.obj
 0001:0003135e       ?dtor$3@?0??composite@VImage@vips@@SA?AV12@V?$vector@VVImage@vips@@V?$allocator@VVImage@vips@@@std@@@std@@V?$vector@HV?$allocator@H@std@@@4@PEAVVOption@2@@Z@4HA 000000018003235e f   VImage.obj
 0001:0003136a       ?dtor$4@?0??composite@VImage@vips@@SA?AV12@V?$vector@VVImage@vips@@V?$allocator@VVImage@vips@@@std@@@std@@V?$vector@HV?$allocator@H@std@@@4@PEAVVOption@2@@Z@4HA 000000018003236a f   VImage.obj
 0001:00031380       ?dtor$1@?0??countlines@VImage@vips@@QEBANW4VipsDirection@@PEAVVOption@2@@Z@4HA 0000000180032380 f   VImage.obj
 0001:00031380       ?dtor$1@?0??percent@VImage@vips@@QEBAHNPEAVVOption@2@@Z@4HA 0000000180032380 f   VImage.obj
 0001:000313a0       ?dtor$0@?0??crop@VImage@vips@@QEBA?AV12@HHHHPEAVVOption@2@@Z@4HA 00000001800323a0 f   VImage.obj
 0001:000313a0       ?dtor$0@?0??embed@VImage@vips@@QEBA?AV12@HHHHPEAVVOption@2@@Z@4HA 00000001800323a0 f   VImage.obj
 0001:000313a0       ?dtor$0@?0??extract_area@VImage@vips@@QEBA?AV12@HHHHPEAVVOption@2@@Z@4HA 00000001800323a0 f   VImage.obj
 0001:000313c6       ?dtor$2@?0??embed@VImage@vips@@QEBA?AV12@HHHHPEAVVOption@2@@Z@4HA 00000001800323c6 f   VImage.obj
 0001:000313c6       ?dtor$2@?0??extract_area@VImage@vips@@QEBA?AV12@HHHHPEAVVOption@2@@Z@4HA 00000001800323c6 f   VImage.obj
 0001:000313c6       ?dtor$2@?0??crop@VImage@vips@@QEBA?AV12@HHHHPEAVVOption@2@@Z@4HA 00000001800323c6 f   VImage.obj
 0001:000313f0       ?dtor$0@?0??draw_circle@VImage@vips@@QEBAXV?$vector@NV?$allocator@N@std@@@std@@HHHPEAVVOption@2@@Z@4HA 00000001800323f0 f   VImage.obj
 0001:000313fc       ?dtor$3@?0??draw_circle@VImage@vips@@QEBAXV?$vector@NV?$allocator@N@std@@@std@@HHHPEAVVOption@2@@Z@4HA 00000001800323fc f   VImage.obj
 0001:0003141c       ?dtor$1@?0??draw_circle@VImage@vips@@QEBAXV?$vector@NV?$allocator@N@std@@@std@@HHHPEAVVOption@2@@Z@4HA 000000018003241c f   VImage.obj
 0001:00031430       ?dtor$0@?0??draw_flood@VImage@vips@@QEBAXV?$vector@NV?$allocator@N@std@@@std@@HHPEAVVOption@2@@Z@4HA 0000000180032430 f   VImage.obj
 0001:0003143c       ?dtor$3@?0??draw_flood@VImage@vips@@QEBAXV?$vector@NV?$allocator@N@std@@@std@@HHPEAVVOption@2@@Z@4HA 000000018003243c f   VImage.obj
 0001:0003145c       ?dtor$1@?0??draw_flood@VImage@vips@@QEBAXV?$vector@NV?$allocator@N@std@@@std@@HHPEAVVOption@2@@Z@4HA 000000018003245c f   VImage.obj
 0001:00031470       ?dtor$0@?0??draw_image@VImage@vips@@QEBAXV12@HHPEAVVOption@2@@Z@4HA 0000000180032470 f   VImage.obj
 0001:0003147c       ?dtor$3@?0??draw_image@VImage@vips@@QEBAXV12@HHPEAVVOption@2@@Z@4HA 000000018003247c f   VImage.obj
 0001:0003149c       ?dtor$1@?0??draw_image@VImage@vips@@QEBAXV12@HHPEAVVOption@2@@Z@4HA 000000018003249c f   VImage.obj
 0001:000314b0       ?dtor$0@?0??draw_rect@VImage@vips@@QEBAXV?$vector@NV?$allocator@N@std@@@std@@HHHHPEAVVOption@2@@Z@4HA 00000001800324b0 f   VImage.obj
 0001:000314b0       ?dtor$0@?0??draw_line@VImage@vips@@QEBAXV?$vector@NV?$allocator@N@std@@@std@@HHHHPEAVVOption@2@@Z@4HA 00000001800324b0 f   VImage.obj
 0001:000314bc       ?dtor$3@?0??draw_rect@VImage@vips@@QEBAXV?$vector@NV?$allocator@N@std@@@std@@HHHHPEAVVOption@2@@Z@4HA 00000001800324bc f   VImage.obj
 0001:000314bc       ?dtor$3@?0??draw_line@VImage@vips@@QEBAXV?$vector@NV?$allocator@N@std@@@std@@HHHHPEAVVOption@2@@Z@4HA 00000001800324bc f   VImage.obj
 0001:000314dc       ?dtor$1@?0??draw_rect@VImage@vips@@QEBAXV?$vector@NV?$allocator@N@std@@@std@@HHHHPEAVVOption@2@@Z@4HA 00000001800324dc f   VImage.obj
 0001:000314dc       ?dtor$1@?0??draw_line@VImage@vips@@QEBAXV?$vector@NV?$allocator@N@std@@@std@@HHHHPEAVVOption@2@@Z@4HA 00000001800324dc f   VImage.obj
 0001:000314f0       ?dtor$0@?0??draw_mask@VImage@vips@@QEBAXV?$vector@NV?$allocator@N@std@@@std@@V12@HHPEAVVOption@2@@Z@4HA 00000001800324f0 f   VImage.obj
 0001:000314fc       ?dtor$1@?0??draw_mask@VImage@vips@@QEBAXV?$vector@NV?$allocator@N@std@@@std@@V12@HHPEAVVOption@2@@Z@4HA 00000001800324fc f   VImage.obj
 0001:00031508       ?dtor$5@?0??draw_mask@VImage@vips@@QEBAXV?$vector@NV?$allocator@N@std@@@std@@V12@HHPEAVVOption@2@@Z@4HA 0000000180032508 f   VImage.obj
 0001:00031528       ?dtor$2@?0??draw_mask@VImage@vips@@QEBAXV?$vector@NV?$allocator@N@std@@@std@@V12@HHPEAVVOption@2@@Z@4HA 0000000180032528 f   VImage.obj
 0001:00031534       ?dtor$3@?0??draw_mask@VImage@vips@@QEBAXV?$vector@NV?$allocator@N@std@@@std@@V12@HHPEAVVOption@2@@Z@4HA 0000000180032534 f   VImage.obj
 0001:00031540       ?dtor$1@?0??draw_smudge@VImage@vips@@QEBAXHHHHPEAVVOption@2@@Z@4HA 0000000180032540 f   VImage.obj
 0001:00031560       ?dtor$0@?0??mask_fractal@VImage@vips@@SA?AV12@HHNPEAVVOption@2@@Z@4HA 0000000180032560 f   VImage.obj
 0001:00031560       ?dtor$0@?0??mask_ideal@VImage@vips@@SA?AV12@HHNPEAVVOption@2@@Z@4HA 0000000180032560 f   VImage.obj
 0001:00031560       ?dtor$0@?0??fractsurf@VImage@vips@@SA?AV12@HHNPEAVVOption@2@@Z@4HA 0000000180032560 f   VImage.obj
 0001:00031586       ?dtor$1@?0??mask_ideal@VImage@vips@@SA?AV12@HHNPEAVVOption@2@@Z@4HA 0000000180032586 f   VImage.obj
 0001:00031586       ?dtor$1@?0??fractsurf@VImage@vips@@SA?AV12@HHNPEAVVOption@2@@Z@4HA 0000000180032586 f   VImage.obj
 0001:00031586       ?dtor$1@?0??mask_fractal@VImage@vips@@SA?AV12@HHNPEAVVOption@2@@Z@4HA 0000000180032586 f   VImage.obj
 0001:000315b0       ?dtor$0@?0??rotate@VImage@vips@@QEBA?AV12@NPEAVVOption@2@@Z@4HA 00000001800325b0 f   VImage.obj
 0001:000315b0       ?dtor$0@?0??reducev@VImage@vips@@QEBA?AV12@NPEAVVOption@2@@Z@4HA 00000001800325b0 f   VImage.obj
 0001:000315b0       ?dtor$0@?0??resize@VImage@vips@@QEBA?AV12@NPEAVVOption@2@@Z@4HA 00000001800325b0 f   VImage.obj
 0001:000315b0       ?dtor$0@?0??gaussblur@VImage@vips@@QEBA?AV12@NPEAVVOption@2@@Z@4HA 00000001800325b0 f   VImage.obj
 0001:000315b0       ?dtor$0@?0??reduceh@VImage@vips@@QEBA?AV12@NPEAVVOption@2@@Z@4HA 00000001800325b0 f   VImage.obj
 0001:000315d9       ?dtor$2@?0??gaussblur@VImage@vips@@QEBA?AV12@NPEAVVOption@2@@Z@4HA 00000001800325d9 f   VImage.obj
 0001:000315d9       ?dtor$2@?0??resize@VImage@vips@@QEBA?AV12@NPEAVVOption@2@@Z@4HA 00000001800325d9 f   VImage.obj
 0001:000315d9       ?dtor$2@?0??reduceh@VImage@vips@@QEBA?AV12@NPEAVVOption@2@@Z@4HA 00000001800325d9 f   VImage.obj
 0001:000315d9       ?dtor$2@?0??rotate@VImage@vips@@QEBA?AV12@NPEAVVOption@2@@Z@4HA 00000001800325d9 f   VImage.obj
 0001:000315d9       ?dtor$2@?0??reducev@VImage@vips@@QEBA?AV12@NPEAVVOption@2@@Z@4HA 00000001800325d9 f   VImage.obj
 0001:00031600       ?dtor$0@?0??logmat@VImage@vips@@SA?AV12@NNPEAVVOption@2@@Z@4HA 0000000180032600 f   VImage.obj
 0001:00031600       ?dtor$0@?0??gaussmat@VImage@vips@@SA?AV12@NNPEAVVOption@2@@Z@4HA 0000000180032600 f   VImage.obj
 0001:00031626       ?dtor$1@?0??logmat@VImage@vips@@SA?AV12@NNPEAVVOption@2@@Z@4HA 0000000180032626 f   VImage.obj
 0001:00031626       ?dtor$1@?0??gaussmat@VImage@vips@@SA?AV12@NNPEAVVOption@2@@Z@4HA 0000000180032626 f   VImage.obj
 0001:00031650       ?dtor$0@?0??getpoint@VImage@vips@@QEBA?AV?$vector@NV?$allocator@N@std@@@std@@HHPEAVVOption@2@@Z@4HA 0000000180032650 f   VImage.obj
 0001:00031676       ?dtor$2@?0??getpoint@VImage@vips@@QEBA?AV?$vector@NV?$allocator@N@std@@@std@@HHPEAVVOption@2@@Z@4HA 0000000180032676 f   VImage.obj
 0001:000316a0       ?dtor$0@?0??rank@VImage@vips@@QEBA?AV12@HHHPEAVVOption@2@@Z@4HA 00000001800326a0 f   VImage.obj
 0001:000316a0       ?dtor$0@?0??gravity@VImage@vips@@QEBA?AV12@W4VipsCompassDirection@@HHPEAVVOption@2@@Z@4HA 00000001800326a0 f   VImage.obj
 0001:000316a0       ?dtor$0@?0??grid@VImage@vips@@QEBA?AV12@HHHPEAVVOption@2@@Z@4HA 00000001800326a0 f   VImage.obj
 0001:000316c6       ?dtor$2@?0??rank@VImage@vips@@QEBA?AV12@HHHPEAVVOption@2@@Z@4HA 00000001800326c6 f   VImage.obj
 0001:000316c6       ?dtor$2@?0??gravity@VImage@vips@@QEBA?AV12@W4VipsCompassDirection@@HHPEAVVOption@2@@Z@4HA 00000001800326c6 f   VImage.obj
 0001:000316c6       ?dtor$2@?0??grid@VImage@vips@@QEBA?AV12@HHHPEAVVOption@2@@Z@4HA 00000001800326c6 f   VImage.obj
 0001:000316f0       ?dtor$0@?0??smartcrop@VImage@vips@@QEBA?AV12@HHPEAVVOption@2@@Z@4HA 00000001800326f0 f   VImage.obj
 0001:000316f0       ?dtor$0@?0??zoom@VImage@vips@@QEBA?AV12@HHPEAVVOption@2@@Z@4HA 00000001800326f0 f   VImage.obj
 0001:000316f0       ?dtor$0@?0??stdif@VImage@vips@@QEBA?AV12@HHPEAVVOption@2@@Z@4HA 00000001800326f0 f   VImage.obj
 0001:000316f0       ?dtor$0@?0??hist_local@VImage@vips@@QEBA?AV12@HHPEAVVOption@2@@Z@4HA 00000001800326f0 f   VImage.obj
 0001:000316f0       ?dtor$0@?0??replicate@VImage@vips@@QEBA?AV12@HHPEAVVOption@2@@Z@4HA 00000001800326f0 f   VImage.obj
 0001:000316f0       ?dtor$0@?0??subsample@VImage@vips@@QEBA?AV12@HHPEAVVOption@2@@Z@4HA 00000001800326f0 f   VImage.obj
 0001:000316f0       ?dtor$0@?0??measure@VImage@vips@@QEBA?AV12@HHPEAVVOption@2@@Z@4HA 00000001800326f0 f   VImage.obj
 0001:00031716       ?dtor$2@?0??zoom@VImage@vips@@QEBA?AV12@HHPEAVVOption@2@@Z@4HA 0000000180032716 f   VImage.obj
 0001:00031716       ?dtor$2@?0??subsample@VImage@vips@@QEBA?AV12@HHPEAVVOption@2@@Z@4HA 0000000180032716 f   VImage.obj
 0001:00031716       ?dtor$2@?0??hist_local@VImage@vips@@QEBA?AV12@HHPEAVVOption@2@@Z@4HA 0000000180032716 f   VImage.obj
 0001:00031716       ?dtor$2@?0??replicate@VImage@vips@@QEBA?AV12@HHPEAVVOption@2@@Z@4HA 0000000180032716 f   VImage.obj
 0001:00031716       ?dtor$2@?0??smartcrop@VImage@vips@@QEBA?AV12@HHPEAVVOption@2@@Z@4HA 0000000180032716 f   VImage.obj
 0001:00031716       ?dtor$2@?0??stdif@VImage@vips@@QEBA?AV12@HHPEAVVOption@2@@Z@4HA 0000000180032716 f   VImage.obj
 0001:00031716       ?dtor$2@?0??measure@VImage@vips@@QEBA?AV12@HHPEAVVOption@2@@Z@4HA 0000000180032716 f   VImage.obj
 0001:00031740       ?dtor$0@?0??tonelut@VImage@vips@@SA?AV12@PEAVVOption@2@@Z@4HA 0000000180032740 f   VImage.obj
 0001:00031740       ?dtor$0@?0??identity@VImage@vips@@SA?AV12@PEAVVOption@2@@Z@4HA 0000000180032740 f   VImage.obj
 0001:00031766       ?dtor$1@?0??tonelut@VImage@vips@@SA?AV12@PEAVVOption@2@@Z@4HA 0000000180032766 f   VImage.obj
 0001:00031766       ?dtor$1@?0??identity@VImage@vips@@SA?AV12@PEAVVOption@2@@Z@4HA 0000000180032766 f   VImage.obj
 0001:00031790       ?dtor$0@?0??ifthenelse@VImage@vips@@QEBA?AV12@V12@0PEAVVOption@2@@Z@4HA 0000000180032790 f   VImage.obj
 0001:0003179c       ?dtor$1@?0??ifthenelse@VImage@vips@@QEBA?AV12@V12@0PEAVVOption@2@@Z@4HA 000000018003279c f   VImage.obj
 0001:000317a8       ?dtor$2@?0??ifthenelse@VImage@vips@@QEBA?AV12@V12@0PEAVVOption@2@@Z@4HA 00000001800327a8 f   VImage.obj
 0001:000317d1       ?dtor$6@?0??ifthenelse@VImage@vips@@QEBA?AV12@V12@0PEAVVOption@2@@Z@4HA 00000001800327d1 f   VImage.obj
 0001:000317f1       ?dtor$3@?0??ifthenelse@VImage@vips@@QEBA?AV12@V12@0PEAVVOption@2@@Z@4HA 00000001800327f1 f   VImage.obj
 0001:000317fd       ?dtor$4@?0??ifthenelse@VImage@vips@@QEBA?AV12@V12@0PEAVVOption@2@@Z@4HA 00000001800327fd f   VImage.obj
 0001:00031810       ?dtor$0@?0??insert@VImage@vips@@QEBA?AV12@V12@HHPEAVVOption@2@@Z@4HA 0000000180032810 f   VImage.obj
 0001:0003181c       ?dtor$1@?0??insert@VImage@vips@@QEBA?AV12@V12@HHPEAVVOption@2@@Z@4HA 000000018003281c f   VImage.obj
 0001:00031845       ?dtor$4@?0??insert@VImage@vips@@QEBA?AV12@V12@HHPEAVVOption@2@@Z@4HA 0000000180032845 f   VImage.obj
 0001:00031865       ?dtor$2@?0??insert@VImage@vips@@QEBA?AV12@V12@HHPEAVVOption@2@@Z@4HA 0000000180032865 f   VImage.obj
 0001:00031880       ?dtor$1@?0??matrixprint@VImage@vips@@QEBAXPEAVVOption@2@@Z@4HA 0000000180032880 f   VImage.obj
 0001:00031880       ?dtor$1@?0??jpegsave_mime@VImage@vips@@QEBAXPEAVVOption@2@@Z@4HA 0000000180032880 f   VImage.obj
 0001:000318a0       ?dtor$0@?0??linear@VImage@vips@@QEBA?AV12@V?$vector@NV?$allocator@N@std@@@std@@0PEAVVOption@2@@Z@4HA 00000001800328a0 f   VImage.obj
 0001:000318ac       ?dtor$1@?0??linear@VImage@vips@@QEBA?AV12@V?$vector@NV?$allocator@N@std@@@std@@0PEAVVOption@2@@Z@4HA 00000001800328ac f   VImage.obj
 0001:000318b8       ?dtor$2@?0??linear@VImage@vips@@QEBA?AV12@V?$vector@NV?$allocator@N@std@@@std@@0PEAVVOption@2@@Z@4HA 00000001800328b8 f   VImage.obj
 0001:000318e1       ?dtor$6@?0??linear@VImage@vips@@QEBA?AV12@V?$vector@NV?$allocator@N@std@@@std@@0PEAVVOption@2@@Z@4HA 00000001800328e1 f   VImage.obj
 0001:00031901       ?dtor$3@?0??linear@VImage@vips@@QEBA?AV12@V?$vector@NV?$allocator@N@std@@@std@@0PEAVVOption@2@@Z@4HA 0000000180032901 f   VImage.obj
 0001:0003190d       ?dtor$4@?0??linear@VImage@vips@@QEBA?AV12@V?$vector@NV?$allocator@N@std@@@std@@0PEAVVOption@2@@Z@4HA 000000018003290d f   VImage.obj
 0001:00031920       ?dtor$0@?0??mask_gaussian_ring@VImage@vips@@SA?AV12@HHNNNPEAVVOption@2@@Z@4HA 0000000180032920 f   VImage.obj
 0001:00031920       ?dtor$0@?0??mask_butterworth@VImage@vips@@SA?AV12@HHNNNPEAVVOption@2@@Z@4HA 0000000180032920 f   VImage.obj
 0001:00031920       ?dtor$0@?0??mask_ideal_band@VImage@vips@@SA?AV12@HHNNNPEAVVOption@2@@Z@4HA 0000000180032920 f   VImage.obj
 0001:00031946       ?dtor$1@?0??mask_ideal_band@VImage@vips@@SA?AV12@HHNNNPEAVVOption@2@@Z@4HA 0000000180032946 f   VImage.obj
 0001:00031946       ?dtor$1@?0??mask_butterworth@VImage@vips@@SA?AV12@HHNNNPEAVVOption@2@@Z@4HA 0000000180032946 f   VImage.obj
 0001:00031946       ?dtor$1@?0??mask_gaussian_ring@VImage@vips@@SA?AV12@HHNNNPEAVVOption@2@@Z@4HA 0000000180032946 f   VImage.obj
 0001:00031970       ?dtor$0@?0??mask_butterworth_band@VImage@vips@@SA?AV12@HHNNNNNPEAVVOption@2@@Z@4HA 0000000180032970 f   VImage.obj
 0001:00031996       ?dtor$1@?0??mask_butterworth_band@VImage@vips@@SA?AV12@HHNNNNNPEAVVOption@2@@Z@4HA 0000000180032996 f   VImage.obj
 0001:000319c0       ?dtor$0@?0??mask_gaussian_band@VImage@vips@@SA?AV12@HHNNNNPEAVVOption@2@@Z@4HA 00000001800329c0 f   VImage.obj
 0001:000319c0       ?dtor$0@?0??mask_butterworth_ring@VImage@vips@@SA?AV12@HHNNNNPEAVVOption@2@@Z@4HA 00000001800329c0 f   VImage.obj
 0001:000319e6       ?dtor$1@?0??mask_butterworth_ring@VImage@vips@@SA?AV12@HHNNNNPEAVVOption@2@@Z@4HA 00000001800329e6 f   VImage.obj
 0001:000319e6       ?dtor$1@?0??mask_gaussian_band@VImage@vips@@SA?AV12@HHNNNNPEAVVOption@2@@Z@4HA 00000001800329e6 f   VImage.obj
 0001:00031a10       ?dtor$0@?0??mask_gaussian@VImage@vips@@SA?AV12@HHNNPEAVVOption@2@@Z@4HA 0000000180032a10 f   VImage.obj
 0001:00031a10       ?dtor$0@?0??mask_ideal_ring@VImage@vips@@SA?AV12@HHNNPEAVVOption@2@@Z@4HA 0000000180032a10 f   VImage.obj
 0001:00031a36       ?dtor$1@?0??mask_ideal_ring@VImage@vips@@SA?AV12@HHNNPEAVVOption@2@@Z@4HA 0000000180032a36 f   VImage.obj
 0001:00031a36       ?dtor$1@?0??mask_gaussian@VImage@vips@@SA?AV12@HHNNPEAVVOption@2@@Z@4HA 0000000180032a36 f   VImage.obj
 0001:00031a60       ?dtor$0@?0??match@VImage@vips@@QEBA?AV12@V12@HHHHHHHHPEAVVOption@2@@Z@4HA 0000000180032a60 f   VImage.obj
 0001:00031a6c       ?dtor$1@?0??match@VImage@vips@@QEBA?AV12@V12@HHHHHHHHPEAVVOption@2@@Z@4HA 0000000180032a6c f   VImage.obj
 0001:00031a95       ?dtor$4@?0??match@VImage@vips@@QEBA?AV12@V12@HHHHHHHHPEAVVOption@2@@Z@4HA 0000000180032a95 f   VImage.obj
 0001:00031ab5       ?dtor$2@?0??match@VImage@vips@@QEBA?AV12@V12@HHHHHHHHPEAVVOption@2@@Z@4HA 0000000180032ab5 f   VImage.obj
 0001:00031ad0       ?dtor$0@?0??merge@VImage@vips@@QEBA?AV12@V12@W4VipsDirection@@HHPEAVVOption@2@@Z@4HA 0000000180032ad0 f   VImage.obj
 0001:00031adc       ?dtor$1@?0??merge@VImage@vips@@QEBA?AV12@V12@W4VipsDirection@@HHPEAVVOption@2@@Z@4HA 0000000180032adc f   VImage.obj
 0001:00031b05       ?dtor$4@?0??merge@VImage@vips@@QEBA?AV12@V12@W4VipsDirection@@HHPEAVVOption@2@@Z@4HA 0000000180032b05 f   VImage.obj
 0001:00031b25       ?dtor$2@?0??merge@VImage@vips@@QEBA?AV12@V12@W4VipsDirection@@HHPEAVVOption@2@@Z@4HA 0000000180032b25 f   VImage.obj
 0001:00031b40       ?dtor$0@?0??mosaic@VImage@vips@@QEBA?AV12@V12@W4VipsDirection@@HHHHPEAVVOption@2@@Z@4HA 0000000180032b40 f   VImage.obj
 0001:00031b4c       ?dtor$1@?0??mosaic@VImage@vips@@QEBA?AV12@V12@W4VipsDirection@@HHHHPEAVVOption@2@@Z@4HA 0000000180032b4c f   VImage.obj
 0001:00031b75       ?dtor$4@?0??mosaic@VImage@vips@@QEBA?AV12@V12@W4VipsDirection@@HHHHPEAVVOption@2@@Z@4HA 0000000180032b75 f   VImage.obj
 0001:00031b95       ?dtor$2@?0??mosaic@VImage@vips@@QEBA?AV12@V12@W4VipsDirection@@HHHHPEAVVOption@2@@Z@4HA 0000000180032b95 f   VImage.obj
 0001:00031bb0       ?dtor$0@?0??mosaic1@VImage@vips@@QEBA?AV12@V12@W4VipsDirection@@HHHHHHHHPEAVVOption@2@@Z@4HA 0000000180032bb0 f   VImage.obj
 0001:00031bbc       ?dtor$1@?0??mosaic1@VImage@vips@@QEBA?AV12@V12@W4VipsDirection@@HHHHHHHHPEAVVOption@2@@Z@4HA 0000000180032bbc f   VImage.obj
 0001:00031be5       ?dtor$4@?0??mosaic1@VImage@vips@@QEBA?AV12@V12@W4VipsDirection@@HHHHHHHHPEAVVOption@2@@Z@4HA 0000000180032be5 f   VImage.obj
 0001:00031c05       ?dtor$2@?0??mosaic1@VImage@vips@@QEBA?AV12@V12@W4VipsDirection@@HHHHHHHHPEAVVOption@2@@Z@4HA 0000000180032c05 f   VImage.obj
 0001:00031c20       ?dtor$0@?0??profile_load@VImage@vips@@SAPEAU_VipsBlob@@PEBDPEAVVOption@2@@Z@4HA 0000000180032c20 f   VImage.obj
 0001:00031c40       ?dtor$0@?0??rawload@VImage@vips@@SA?AV12@PEBDHHHPEAVVOption@2@@Z@4HA 0000000180032c40 f   VImage.obj
 0001:00031c66       ?dtor$1@?0??rawload@VImage@vips@@SA?AV12@PEBDHHHPEAVVOption@2@@Z@4HA 0000000180032c66 f   VImage.obj
 0001:00031c90       ?dtor$0@?0??shrink@VImage@vips@@QEBA?AV12@NNPEAVVOption@2@@Z@4HA 0000000180032c90 f   VImage.obj
 0001:00031c90       ?dtor$0@?0??reduce@VImage@vips@@QEBA?AV12@NNPEAVVOption@2@@Z@4HA 0000000180032c90 f   VImage.obj
 0001:00031cb9       ?dtor$2@?0??shrink@VImage@vips@@QEBA?AV12@NNPEAVVOption@2@@Z@4HA 0000000180032cb9 f   VImage.obj
 0001:00031cb9       ?dtor$2@?0??reduce@VImage@vips@@QEBA?AV12@NNPEAVVOption@2@@Z@4HA 0000000180032cb9 f   VImage.obj
 0001:00031ce0       ?dtor$0@?0??bandsplit@VImage@vips@@QEBA?AV?$vector@VVImage@vips@@V?$allocator@VVImage@vips@@@std@@@std@@PEAVVOption@2@@Z@4HA 0000000180032ce0 f   VImage.obj
 0001:00031d06       ?dtor$1@?0??bandsplit@VImage@vips@@QEBA?AV?$vector@VVImage@vips@@V?$allocator@VVImage@vips@@@std@@@std@@PEAVVOption@2@@Z@4HA 0000000180032d06 f   VImage.obj
 0001:00031d20       ?dtor$0@?0??bandjoin@VImage@vips@@QEBA?AV12@V12@PEAVVOption@2@@Z@4HA 0000000180032d20 f   VImage.obj
 0001:00031d2c       ?dtor$3@?0??bandjoin@VImage@vips@@QEBA?AV12@V12@PEAVVOption@2@@Z@4HA 0000000180032d2c f   VImage.obj
 0001:00031d56       ?dtor$4@?0??bandjoin@VImage@vips@@QEBA?AV12@V12@PEAVVOption@2@@Z@4HA 0000000180032d56 f   VImage.obj
 0001:00031d62       ?dtor$6@?0??bandjoin@VImage@vips@@QEBA?AV12@V12@PEAVVOption@2@@Z@4HA 0000000180032d62 f   VImage.obj
 0001:00031d90       ?dtor$0@?0??composite@VImage@vips@@QEBA?AV12@V12@W4VipsBlendMode@@PEAVVOption@2@@Z@4HA 0000000180032d90 f   VImage.obj
 0001:00031d9c       ?dtor$3@?0??composite@VImage@vips@@QEBA?AV12@V12@W4VipsBlendMode@@PEAVVOption@2@@Z@4HA 0000000180032d9c f   VImage.obj
 0001:00031dc6       ?dtor$4@?0??composite@VImage@vips@@QEBA?AV12@V12@W4VipsBlendMode@@PEAVVOption@2@@Z@4HA 0000000180032dc6 f   VImage.obj
 0001:00031dd2       ?dtor$5@?0??composite@VImage@vips@@QEBA?AV12@V12@W4VipsBlendMode@@PEAVVOption@2@@Z@4HA 0000000180032dd2 f   VImage.obj
 0001:00031dde       ?dtor$6@?0??composite@VImage@vips@@QEBA?AV12@V12@W4VipsBlendMode@@PEAVVOption@2@@Z@4HA 0000000180032dde f   VImage.obj
 0001:00031dea       ?dtor$8@?0??composite@VImage@vips@@QEBA?AV12@V12@W4VipsBlendMode@@PEAVVOption@2@@Z@4HA 0000000180032dea f   VImage.obj
 0001:00031e20       ?dtor$0@?0??minpos@VImage@vips@@QEBA?AV?$complex@N@std@@PEAVVOption@2@@Z@4HA 0000000180032e20 f   VImage.obj
 0001:00031e20       ?dtor$0@?0??maxpos@VImage@vips@@QEBA?AV?$complex@N@std@@PEAVVOption@2@@Z@4HA 0000000180032e20 f   VImage.obj
 0001:00031e40       ?dtor$0@?0???Tvips@@YA?AVVImage@0@V10@0@Z@4HA 0000000180032e40 f   VImage.obj
 0001:00031e40       ?dtor$0@?0???Hvips@@YA?AVVImage@0@V10@0@Z@4HA 0000000180032e40 f   VImage.obj
 0001:00031e40       ?dtor$0@?0???Ovips@@YA?AVVImage@0@V10@0@Z@4HA 0000000180032e40 f   VImage.obj
 0001:00031e40       ?dtor$0@?0???Dvips@@YA?AVVImage@0@V10@0@Z@4HA 0000000180032e40 f   VImage.obj
 0001:00031e40       ?dtor$0@?0???Kvips@@YA?AVVImage@0@V10@0@Z@4HA 0000000180032e40 f   VImage.obj
 0001:00031e40       ?dtor$0@?0???Lvips@@YA?AVVImage@0@V10@0@Z@4HA 0000000180032e40 f   VImage.obj
 0001:00031e40       ?dtor$0@?0???Nvips@@YA?AVVImage@0@V10@0@Z@4HA 0000000180032e40 f   VImage.obj
 0001:00031e40       ?dtor$0@?0???Mvips@@YA?AVVImage@0@V10@0@Z@4HA 0000000180032e40 f   VImage.obj
 0001:00031e40       ?dtor$0@?0???9vips@@YA?AVVImage@0@V10@0@Z@4HA 0000000180032e40 f   VImage.obj
 0001:00031e40       ?dtor$0@?0???Uvips@@YA?AVVImage@0@V10@0@Z@4HA 0000000180032e40 f   VImage.obj
 0001:00031e40       ?dtor$0@?0???Pvips@@YA?AVVImage@0@V10@0@Z@4HA 0000000180032e40 f   VImage.obj
 0001:00031e40       ?dtor$0@?0???8vips@@YA?AVVImage@0@V10@0@Z@4HA 0000000180032e40 f   VImage.obj
 0001:00031e40       ?dtor$0@?0???Gvips@@YA?AVVImage@0@V10@0@Z@4HA 0000000180032e40 f   VImage.obj
 0001:00031e40       ?dtor$0@?0???Ivips@@YA?AVVImage@0@V10@0@Z@4HA 0000000180032e40 f   VImage.obj
 0001:00031e40       ?dtor$0@?0???5vips@@YA?AVVImage@0@V10@0@Z@4HA 0000000180032e40 f   VImage.obj
 0001:00031e40       ?dtor$0@?0???6vips@@YA?AVVImage@0@V10@0@Z@4HA 0000000180032e40 f   VImage.obj
 0001:00031e4c       ?dtor$1@?0???Hvips@@YA?AVVImage@0@V10@0@Z@4HA 0000000180032e4c f   VImage.obj
 0001:00031e4c       ?dtor$1@?0???Tvips@@YA?AVVImage@0@V10@0@Z@4HA 0000000180032e4c f   VImage.obj
 0001:00031e4c       ?dtor$1@?0???Dvips@@YA?AVVImage@0@V10@0@Z@4HA 0000000180032e4c f   VImage.obj
 0001:00031e4c       ?dtor$1@?0???Kvips@@YA?AVVImage@0@V10@0@Z@4HA 0000000180032e4c f   VImage.obj
 0001:00031e4c       ?dtor$1@?0???5vips@@YA?AVVImage@0@V10@0@Z@4HA 0000000180032e4c f   VImage.obj
 0001:00031e4c       ?dtor$1@?0???Nvips@@YA?AVVImage@0@V10@0@Z@4HA 0000000180032e4c f   VImage.obj
 0001:00031e4c       ?dtor$1@?0???Gvips@@YA?AVVImage@0@V10@0@Z@4HA 0000000180032e4c f   VImage.obj
 0001:00031e4c       ?dtor$1@?0???6vips@@YA?AVVImage@0@V10@0@Z@4HA 0000000180032e4c f   VImage.obj
 0001:00031e4c       ?dtor$1@?0???Pvips@@YA?AVVImage@0@V10@0@Z@4HA 0000000180032e4c f   VImage.obj
 0001:00031e4c       ?dtor$1@?0???Mvips@@YA?AVVImage@0@V10@0@Z@4HA 0000000180032e4c f   VImage.obj
 0001:00031e4c       ?dtor$1@?0???Ivips@@YA?AVVImage@0@V10@0@Z@4HA 0000000180032e4c f   VImage.obj
 0001:00031e4c       ?dtor$1@?0???Lvips@@YA?AVVImage@0@V10@0@Z@4HA 0000000180032e4c f   VImage.obj
 0001:00031e4c       ?dtor$1@?0???8vips@@YA?AVVImage@0@V10@0@Z@4HA 0000000180032e4c f   VImage.obj
 0001:00031e4c       ?dtor$1@?0???9vips@@YA?AVVImage@0@V10@0@Z@4HA 0000000180032e4c f   VImage.obj
 0001:00031e4c       ?dtor$1@?0???Uvips@@YA?AVVImage@0@V10@0@Z@4HA 0000000180032e4c f   VImage.obj
 0001:00031e4c       ?dtor$1@?0???Ovips@@YA?AVVImage@0@V10@0@Z@4HA 0000000180032e4c f   VImage.obj
 0001:00031e60       ?dtor$0@?0???Dvips@@YA?AVVImage@0@NV10@@Z@4HA 0000000180032e60 f   VImage.obj
 0001:00031e60       ?dtor$0@?0???Hvips@@YA?AVVImage@0@NV10@@Z@4HA 0000000180032e60 f   VImage.obj
 0001:00031e60       ?dtor$0@?0???Gvips@@YA?AVVImage@0@NV10@@Z@4HA 0000000180032e60 f   VImage.obj
 0001:00031e70       ?dtor$0@?0???Kvips@@YA?AVVImage@0@V10@N@Z@4HA 0000000180032e70 f   VImage.obj
 0001:00031e70       ?dtor$0@?0???Hvips@@YA?AVVImage@0@V10@N@Z@4HA 0000000180032e70 f   VImage.obj
 0001:00031e70       ?dtor$0@?0???Gvips@@YA?AVVImage@0@V10@N@Z@4HA 0000000180032e70 f   VImage.obj
 0001:00031e70       ?dtor$0@?0???Gvips@@YA?AVVImage@0@V10@@Z@4HA 0000000180032e70 f   VImage.obj
 0001:00031e70       ?dtor$0@?0???Dvips@@YA?AVVImage@0@V10@N@Z@4HA 0000000180032e70 f   VImage.obj
 0001:00031e80       ?dtor$0@?0???9vips@@YA?AVVImage@0@V?$vector@NV?$allocator@N@std@@@std@@V10@@Z@4HA 0000000180032e80 f   VImage.obj
 0001:00031e80       ?dtor$0@?0???Ivips@@YA?AVVImage@0@V?$vector@NV?$allocator@N@std@@@std@@V10@@Z@4HA 0000000180032e80 f   VImage.obj
 0001:00031e80       ?dtor$0@?0???Nvips@@YA?AVVImage@0@V?$vector@NV?$allocator@N@std@@@std@@V10@@Z@4HA 0000000180032e80 f   VImage.obj
 0001:00031e80       ?dtor$0@?0???Hvips@@YA?AVVImage@0@V?$vector@NV?$allocator@N@std@@@std@@V10@@Z@4HA 0000000180032e80 f   VImage.obj
 0001:00031e80       ?dtor$0@?0???Ovips@@YA?AVVImage@0@V?$vector@NV?$allocator@N@std@@@std@@V10@@Z@4HA 0000000180032e80 f   VImage.obj
 0001:00031e80       ?dtor$0@?0???Pvips@@YA?AVVImage@0@V?$vector@NV?$allocator@N@std@@@std@@V10@@Z@4HA 0000000180032e80 f   VImage.obj
 0001:00031e80       ?dtor$0@?0???Dvips@@YA?AVVImage@0@V?$vector@NV?$allocator@N@std@@@std@@V10@@Z@4HA 0000000180032e80 f   VImage.obj
 0001:00031e80       ?dtor$0@?0???Gvips@@YA?AVVImage@0@V?$vector@NV?$allocator@N@std@@@std@@V10@@Z@4HA 0000000180032e80 f   VImage.obj
 0001:00031e80       ?dtor$0@?0???8vips@@YA?AVVImage@0@V?$vector@NV?$allocator@N@std@@@std@@V10@@Z@4HA 0000000180032e80 f   VImage.obj
 0001:00031e80       ?dtor$0@?0???Tvips@@YA?AVVImage@0@V?$vector@NV?$allocator@N@std@@@std@@V10@@Z@4HA 0000000180032e80 f   VImage.obj
 0001:00031e80       ?dtor$0@?0???Mvips@@YA?AVVImage@0@V?$vector@NV?$allocator@N@std@@@std@@V10@@Z@4HA 0000000180032e80 f   VImage.obj
 0001:00031e80       ?dtor$0@?0???Uvips@@YA?AVVImage@0@V?$vector@NV?$allocator@N@std@@@std@@V10@@Z@4HA 0000000180032e80 f   VImage.obj
 0001:00031e8c       ?dtor$1@?0???Pvips@@YA?AVVImage@0@V?$vector@NV?$allocator@N@std@@@std@@V10@@Z@4HA 0000000180032e8c f   VImage.obj
 0001:00031e8c       ?dtor$1@?0???9vips@@YA?AVVImage@0@V?$vector@NV?$allocator@N@std@@@std@@V10@@Z@4HA 0000000180032e8c f   VImage.obj
 0001:00031e8c       ?dtor$1@?0???Hvips@@YA?AVVImage@0@V?$vector@NV?$allocator@N@std@@@std@@V10@@Z@4HA 0000000180032e8c f   VImage.obj
 0001:00031e8c       ?dtor$1@?0???Uvips@@YA?AVVImage@0@V?$vector@NV?$allocator@N@std@@@std@@V10@@Z@4HA 0000000180032e8c f   VImage.obj
 0001:00031e8c       ?dtor$1@?0???8vips@@YA?AVVImage@0@V?$vector@NV?$allocator@N@std@@@std@@V10@@Z@4HA 0000000180032e8c f   VImage.obj
 0001:00031e8c       ?dtor$1@?0???Ovips@@YA?AVVImage@0@V?$vector@NV?$allocator@N@std@@@std@@V10@@Z@4HA 0000000180032e8c f   VImage.obj
 0001:00031e8c       ?dtor$1@?0???Tvips@@YA?AVVImage@0@V?$vector@NV?$allocator@N@std@@@std@@V10@@Z@4HA 0000000180032e8c f   VImage.obj
 0001:00031e8c       ?dtor$1@?0???Dvips@@YA?AVVImage@0@V?$vector@NV?$allocator@N@std@@@std@@V10@@Z@4HA 0000000180032e8c f   VImage.obj
 0001:00031e8c       ?dtor$1@?0???Mvips@@YA?AVVImage@0@V?$vector@NV?$allocator@N@std@@@std@@V10@@Z@4HA 0000000180032e8c f   VImage.obj
 0001:00031e8c       ?dtor$1@?0???Nvips@@YA?AVVImage@0@V?$vector@NV?$allocator@N@std@@@std@@V10@@Z@4HA 0000000180032e8c f   VImage.obj
 0001:00031e8c       ?dtor$1@?0???Gvips@@YA?AVVImage@0@V?$vector@NV?$allocator@N@std@@@std@@V10@@Z@4HA 0000000180032e8c f   VImage.obj
 0001:00031e8c       ?dtor$1@?0???Ivips@@YA?AVVImage@0@V?$vector@NV?$allocator@N@std@@@std@@V10@@Z@4HA 0000000180032e8c f   VImage.obj
 0001:00031ea0       ?dtor$0@?0???Nvips@@YA?AVVImage@0@V10@V?$vector@NV?$allocator@N@std@@@std@@@Z@4HA 0000000180032ea0 f   VImage.obj
 0001:00031ea0       ?dtor$0@?0???Mvips@@YA?AVVImage@0@V10@V?$vector@NV?$allocator@N@std@@@std@@@Z@4HA 0000000180032ea0 f   VImage.obj
 0001:00031ea0       ?dtor$0@?0???Uvips@@YA?AVVImage@0@V10@V?$vector@NV?$allocator@N@std@@@std@@@Z@4HA 0000000180032ea0 f   VImage.obj
 0001:00031ea0       ?dtor$0@?0???Ivips@@YA?AVVImage@0@V10@V?$vector@NV?$allocator@N@std@@@std@@@Z@4HA 0000000180032ea0 f   VImage.obj
 0001:00031ea0       ?dtor$0@?0???Ovips@@YA?AVVImage@0@V10@V?$vector@NV?$allocator@N@std@@@std@@@Z@4HA 0000000180032ea0 f   VImage.obj
 0001:00031ea0       ?dtor$0@?0???Lvips@@YA?AVVImage@0@V10@V?$vector@NV?$allocator@N@std@@@std@@@Z@4HA 0000000180032ea0 f   VImage.obj
 0001:00031ea0       ?dtor$0@?0???9vips@@YA?AVVImage@0@V10@V?$vector@NV?$allocator@N@std@@@std@@@Z@4HA 0000000180032ea0 f   VImage.obj
 0001:00031ea0       ?dtor$0@?0???Pvips@@YA?AVVImage@0@V10@V?$vector@NV?$allocator@N@std@@@std@@@Z@4HA 0000000180032ea0 f   VImage.obj
 0001:00031ea0       ?dtor$0@?0???Dvips@@YA?AVVImage@0@V10@V?$vector@NV?$allocator@N@std@@@std@@@Z@4HA 0000000180032ea0 f   VImage.obj
 0001:00031ea0       ?dtor$0@?0???Hvips@@YA?AVVImage@0@V10@V?$vector@NV?$allocator@N@std@@@std@@@Z@4HA 0000000180032ea0 f   VImage.obj
 0001:00031ea0       ?dtor$0@?0???5vips@@YA?AVVImage@0@V10@V?$vector@NV?$allocator@N@std@@@std@@@Z@4HA 0000000180032ea0 f   VImage.obj
 0001:00031ea0       ?dtor$0@?0???6vips@@YA?AVVImage@0@V10@V?$vector@NV?$allocator@N@std@@@std@@@Z@4HA 0000000180032ea0 f   VImage.obj
 0001:00031ea0       ?dtor$0@?0???8vips@@YA?AVVImage@0@V10@V?$vector@NV?$allocator@N@std@@@std@@@Z@4HA 0000000180032ea0 f   VImage.obj
 0001:00031ea0       ?dtor$0@?0???Tvips@@YA?AVVImage@0@V10@V?$vector@NV?$allocator@N@std@@@std@@@Z@4HA 0000000180032ea0 f   VImage.obj
 0001:00031eac       ?dtor$1@?0???Ovips@@YA?AVVImage@0@V10@V?$vector@NV?$allocator@N@std@@@std@@@Z@4HA 0000000180032eac f   VImage.obj
 0001:00031eac       ?dtor$1@?0???6vips@@YA?AVVImage@0@V10@V?$vector@NV?$allocator@N@std@@@std@@@Z@4HA 0000000180032eac f   VImage.obj
 0001:00031eac       ?dtor$1@?0???8vips@@YA?AVVImage@0@V10@V?$vector@NV?$allocator@N@std@@@std@@@Z@4HA 0000000180032eac f   VImage.obj
 0001:00031eac       ?dtor$1@?0???5vips@@YA?AVVImage@0@V10@V?$vector@NV?$allocator@N@std@@@std@@@Z@4HA 0000000180032eac f   VImage.obj
 0001:00031eac       ?dtor$1@?0???Uvips@@YA?AVVImage@0@V10@V?$vector@NV?$allocator@N@std@@@std@@@Z@4HA 0000000180032eac f   VImage.obj
 0001:00031eac       ?dtor$1@?0???Nvips@@YA?AVVImage@0@V10@V?$vector@NV?$allocator@N@std@@@std@@@Z@4HA 0000000180032eac f   VImage.obj
 0001:00031eac       ?dtor$1@?0???Tvips@@YA?AVVImage@0@V10@V?$vector@NV?$allocator@N@std@@@std@@@Z@4HA 0000000180032eac f   VImage.obj
 0001:00031eac       ?dtor$1@?0???Pvips@@YA?AVVImage@0@V10@V?$vector@NV?$allocator@N@std@@@std@@@Z@4HA 0000000180032eac f   VImage.obj
 0001:00031eac       ?dtor$1@?0???Mvips@@YA?AVVImage@0@V10@V?$vector@NV?$allocator@N@std@@@std@@@Z@4HA 0000000180032eac f   VImage.obj
 0001:00031eac       ?dtor$1@?0???Lvips@@YA?AVVImage@0@V10@V?$vector@NV?$allocator@N@std@@@std@@@Z@4HA 0000000180032eac f   VImage.obj
 0001:00031eac       ?dtor$1@?0???Ivips@@YA?AVVImage@0@V10@V?$vector@NV?$allocator@N@std@@@std@@@Z@4HA 0000000180032eac f   VImage.obj
 0001:00031eac       ?dtor$1@?0???Hvips@@YA?AVVImage@0@V10@V?$vector@NV?$allocator@N@std@@@std@@@Z@4HA 0000000180032eac f   VImage.obj
 0001:00031eac       ?dtor$1@?0???Dvips@@YA?AVVImage@0@V10@V?$vector@NV?$allocator@N@std@@@std@@@Z@4HA 0000000180032eac f   VImage.obj
 0001:00031eac       ?dtor$1@?0???9vips@@YA?AVVImage@0@V10@V?$vector@NV?$allocator@N@std@@@std@@@Z@4HA 0000000180032eac f   VImage.obj
 0001:00031ec0       ?dtor$0@?0???Ivips@@YA?AVVImage@0@V10@N@Z@4HA 0000000180032ec0 f   VImage.obj
 0001:00031ec0       ?dtor$0@?0???Ovips@@YA?AVVImage@0@V10@N@Z@4HA 0000000180032ec0 f   VImage.obj
 0001:00031ec0       ?dtor$0@?0???8vips@@YA?AVVImage@0@V10@N@Z@4HA 0000000180032ec0 f   VImage.obj
 0001:00031ec0       ?dtor$0@?0???_5vips@@YAAEAVVImage@0@AEAV10@V10@@Z@4HA 0000000180032ec0 f   VImage.obj
 0001:00031ec0       ?dtor$0@?0???Uvips@@YA?AVVImage@0@V10@N@Z@4HA 0000000180032ec0 f   VImage.obj
 0001:00031ec0       ?dtor$0@?0???Pvips@@YA?AVVImage@0@V10@N@Z@4HA 0000000180032ec0 f   VImage.obj
 0001:00031ec0       ?dtor$0@?0???5vips@@YA?AVVImage@0@V10@N@Z@4HA 0000000180032ec0 f   VImage.obj
 0001:00031ec0       ?dtor$0@?0???_0vips@@YAAEAVVImage@0@AEAV10@V10@@Z@4HA 0000000180032ec0 f   VImage.obj
 0001:00031ec0       ?dtor$0@?0???_3vips@@YAAEAVVImage@0@AEAV10@V10@@Z@4HA 0000000180032ec0 f   VImage.obj
 0001:00031ec0       ?dtor$0@?0???9vips@@YA?AVVImage@0@V10@N@Z@4HA 0000000180032ec0 f   VImage.obj
 0001:00031ec0       ?dtor$0@?0???_4vips@@YAAEAVVImage@0@AEAV10@V10@@Z@4HA 0000000180032ec0 f   VImage.obj
 0001:00031ec0       ?dtor$0@?0???_1vips@@YAAEAVVImage@0@AEAV10@V10@@Z@4HA 0000000180032ec0 f   VImage.obj
 0001:00031ec0       ?dtor$0@?0???Zvips@@YAAEAVVImage@0@AEAV10@V10@@Z@4HA 0000000180032ec0 f   VImage.obj
 0001:00031ec0       ?dtor$0@?0???Mvips@@YA?AVVImage@0@V10@N@Z@4HA 0000000180032ec0 f   VImage.obj
 0001:00031ec0       ?dtor$0@?0???Nvips@@YA?AVVImage@0@V10@N@Z@4HA 0000000180032ec0 f   VImage.obj
 0001:00031ec0       ?dtor$0@?0???Lvips@@YA?AVVImage@0@V10@N@Z@4HA 0000000180032ec0 f   VImage.obj
 0001:00031ec0       ?dtor$0@?0???6vips@@YA?AVVImage@0@V10@N@Z@4HA 0000000180032ec0 f   VImage.obj
 0001:00031ec0       ?dtor$0@?0???Xvips@@YAAEAVVImage@0@AEAV10@V10@@Z@4HA 0000000180032ec0 f   VImage.obj
 0001:00031ec0       ?dtor$0@?0???_6vips@@YAAEAVVImage@0@AEAV10@V10@@Z@4HA 0000000180032ec0 f   VImage.obj
 0001:00031ec0       ?dtor$0@?0???Yvips@@YAAEAVVImage@0@AEAV10@V10@@Z@4HA 0000000180032ec0 f   VImage.obj
 0001:00031ec0       ?dtor$0@?0???Tvips@@YA?AVVImage@0@V10@N@Z@4HA 0000000180032ec0 f   VImage.obj
 0001:00031ec0       ?dtor$0@?0???_2vips@@YAAEAVVImage@0@AEAV10@V10@@Z@4HA 0000000180032ec0 f   VImage.obj
 0001:00031ed0       ?dtor$2@?0???Yvips@@YAAEAVVImage@0@AEAV10@N@Z@4HA 0000000180032ed0 f   VImage.obj
 0001:00031ed0       ?dtor$2@?0???Xvips@@YAAEAVVImage@0@AEAV10@N@Z@4HA 0000000180032ed0 f   VImage.obj
 0001:00031ee0       ?dtor$0@?0???Gvips@@YA?AVVImage@0@V10@V?$vector@NV?$allocator@N@std@@@std@@@Z@4HA 0000000180032ee0 f   VImage.obj
 0001:00031ee0       ?dtor$0@?0???Kvips@@YA?AVVImage@0@V10@V?$vector@NV?$allocator@N@std@@@std@@@Z@4HA 0000000180032ee0 f   VImage.obj
 0001:00031eec       ?dtor$1@?0???Gvips@@YA?AVVImage@0@V10@V?$vector@NV?$allocator@N@std@@@std@@@Z@4HA 0000000180032eec f   VImage.obj
 0001:00031eec       ?dtor$1@?0???Kvips@@YA?AVVImage@0@V10@V?$vector@NV?$allocator@N@std@@@std@@@Z@4HA 0000000180032eec f   VImage.obj
 0001:00031f00       ?dtor$0@?0???Kvips@@YA?AVVImage@0@NV10@@Z@4HA 0000000180032f00 f   VImage.obj
 0001:00031f0c       ?dtor$1@?0???Kvips@@YA?AVVImage@0@NV10@@Z@4HA 0000000180032f0c f   VImage.obj
 0001:00031f20       ?dtor$0@?0???Kvips@@YA?AVVImage@0@V?$vector@NV?$allocator@N@std@@@std@@V10@@Z@4HA 0000000180032f20 f   VImage.obj
 0001:00031f2c       ?dtor$1@?0???Kvips@@YA?AVVImage@0@V?$vector@NV?$allocator@N@std@@@std@@V10@@Z@4HA 0000000180032f2c f   VImage.obj
 0001:00031f38       ?dtor$2@?0???Kvips@@YA?AVVImage@0@V?$vector@NV?$allocator@N@std@@@std@@V10@@Z@4HA 0000000180032f38 f   VImage.obj
 0001:00031f44       ?dtor$3@?0???Kvips@@YA?AVVImage@0@V?$vector@NV?$allocator@N@std@@@std@@V10@@Z@4HA 0000000180032f44 f   VImage.obj
 0001:00031f50       ?dtor$2@?0???_2vips@@YAAEAVVImage@0@AEAV10@N@Z@4HA 0000000180032f50 f   VImage.obj
 0001:00031f50       ?dtor$2@?0???_4vips@@YAAEAVVImage@0@AEAV10@N@Z@4HA 0000000180032f50 f   VImage.obj
 0001:00031f50       ?dtor$2@?0???_6vips@@YAAEAVVImage@0@AEAV10@N@Z@4HA 0000000180032f50 f   VImage.obj
 0001:00031f50       ?dtor$2@?0???_5vips@@YAAEAVVImage@0@AEAV10@N@Z@4HA 0000000180032f50 f   VImage.obj
 0001:00031f50       ?dtor$2@?0???_3vips@@YAAEAVVImage@0@AEAV10@N@Z@4HA 0000000180032f50 f   VImage.obj
 0001:00031f50       ?dtor$2@?0???_1vips@@YAAEAVVImage@0@AEAV10@N@Z@4HA 0000000180032f50 f   VImage.obj
 0001:00031f5c       ?fin$0@?0???_M@YAXPEAX_K1P6AX0@Z@Z@4HA 0000000180032f5c f   LIBCMT:ehvecdtr.obj
 0001:00031f88       ?filt$0@?0??__ArrayUnwind@@YAXPEAX_K1P6AX0@Z@Z@4HA 0000000180032f88 f   LIBCMT:ehvecdtr.obj
 0001:00031fc9       ?fin$0@?0??dllmain_crt_process_attach@@YAHQEAUHINSTANCE__@@QEAX@Z@4HA 0000000180032fc9 f   LIBCMT:dll_dllmain.obj
 0001:00031fe0       ?fin$0@?0??dllmain_crt_process_detach@@YAH_N@Z@4HA 0000000180032fe0 f   LIBCMT:dll_dllmain.obj
 0001:00031ffc       ?filt$0@?0??dllmain_dispatch@@YAHQEAUHINSTANCE__@@KQEAX@Z@4HA 0000000180032ffc f   LIBCMT:dll_dllmain.obj
 0001:00032032       __scrt_is_nonwritable_in_current_image$filt$0 0000000180033032 f   LIBCMT:utility.obj
 0001:0003204a       ?filt$0@?0???$_CallSETranslator@V__FrameHandler3@@@@YAHPEAUEHExceptionRecord@@PEA_KPEAU_CONTEXT@@PEAU_xDISPATCHER_CONTEXT@@PEBU_s_FuncInfo@@K1@Z@4HA 000000018003304a f   libvcruntime:risctrnsctrl.obj
 0001:000320db       __DestructExceptionObject$filt$0 00000001800330db f   libvcruntime:ehhelpers.obj
 0001:000320f3       ?filt$0@?0??CxxCallCatchBlock@__FrameHandler3@@SAPEAXPEAU_EXCEPTION_RECORD@@@Z@4HA 00000001800330f3 f   libvcruntime:frame.obj
 0001:00032118       ?fin$1@?0??CxxCallCatchBlock@__FrameHandler3@@SAPEAXPEAU_EXCEPTION_RECORD@@@Z@4HA 0000000180033118 f   libvcruntime:frame.obj
 0001:00032190       ?filt$0@?0??FrameUnwindToState@__FrameHandler3@@SAXPEA_KPEAU_xDISPATCHER_CONTEXT@@PEBU_s_FuncInfo@@H@Z@4HA 0000000180033190 f   libvcruntime:frame.obj
 0001:000321a6       ?fin$1@?0??FrameUnwindToState@__FrameHandler3@@SAXPEA_KPEAU_xDISPATCHER_CONTEXT@@PEBU_s_FuncInfo@@H@Z@4HA 00000001800331a6 f   libvcruntime:frame.obj
 0001:000321c9       _query_new_handler$fin$0   00000001800331c9 f   libucrt:new_handler.obj
 0001:000321df       ?fin$0@?0???$?RV<lambda_450d765d439847d4c735a33c368b5fc0>@@AEAV<lambda_44731a7d0e6d81c3e6aa82d741081786>@@V<lambda_601a2a7da3b7a96e9554ac7215c4b07c>@@@?$__crt_seh_guarded_call@P6AXH@Z@@QEAAP6AXH@Z$$QEAV<lambda_450d765d439847d4c735a33c368b5fc0>@@AEAV<lambda_44731a7d0e6d81c3e6aa82d741081786>@@$$QEAV<lambda_601a2a7da3b7a96e9554ac7215c4b07c>@@@Z@4HA 00000001800331df f   libucrt:signal.obj
 0001:000321df       ?fin$0@?0???$?RV<lambda_2d41944a1d46af3157314b8a01080d33>@@AEAV<lambda_8f455de75cd7d7f24b4096f044d8b9e6>@@V<lambda_aa500f224e6afead328df44964fe2772>@@@?$__crt_seh_guarded_call@X@@QEAAX$$QEAV<lambda_2d41944a1d46af3157314b8a01080d33>@@AEAV<lambda_8f455de75cd7d7f24b4096f044d8b9e6>@@$$QEAV<lambda_aa500f224e6afead328df44964fe2772>@@@Z@4HA 00000001800331df f   libucrt:per_thread_data.obj
 0001:000321df       ?fin$0@?0???$?RV<lambda_efdfa57d1f175319df784efa44bb7b81>@@AEAV<lambda_5f0a4c1567f8adc6734073e5d1e1b35c>@@V<lambda_2e8a7d3640ea6ccb4c2413664c2db6fd>@@@?$__crt_seh_guarded_call@X@@QEAAX$$QEAV<lambda_efdfa57d1f175319df784efa44bb7b81>@@AEAV<lambda_5f0a4c1567f8adc6734073e5d1e1b35c>@@$$QEAV<lambda_2e8a7d3640ea6ccb4c2413664c2db6fd>@@@Z@4HA 00000001800331df f   libucrt:mbctype.obj
 0001:000321df       ?fin$0@?0???$?RV<lambda_d80eeec6fff315bfe5c115232f3240e3>@@AEAV<lambda_6e4b09c48022b2350581041d5f6b0c4c>@@V<lambda_2358e3775559c9db80273638284d5e45>@@@?$__crt_seh_guarded_call@X@@QEAAX$$QEAV<lambda_d80eeec6fff315bfe5c115232f3240e3>@@AEAV<lambda_6e4b09c48022b2350581041d5f6b0c4c>@@$$QEAV<lambda_2358e3775559c9db80273638284d5e45>@@@Z@4HA 00000001800331df f   libucrt:exit.obj
 0001:000321df       ?fin$0@?0???$?RV<lambda_f2e299630e499de9f9a165e60fcd3db5>@@AEAV<lambda_2ae9d31cdba2644fcbeaf08da7c24588>@@V<lambda_40d01ff24d0e7b3814fdbdcee8eab3c7>@@@?$__crt_seh_guarded_call@X@@QEAAX$$QEAV<lambda_f2e299630e499de9f9a165e60fcd3db5>@@AEAV<lambda_2ae9d31cdba2644fcbeaf08da7c24588>@@$$QEAV<lambda_40d01ff24d0e7b3814fdbdcee8eab3c7>@@@Z@4HA 00000001800331df f   libucrt:per_thread_data.obj
 0001:000321df       ?fin$0@?0???$?RV<lambda_aa87e3671a710a21b5dc78c0bdf72e11>@@AEAV<lambda_92619d2358a28f41a33ba319515a20b9>@@V<lambda_6992ecaafeb10aed2b74cb1fae11a551>@@@?$__crt_seh_guarded_call@X@@QEAAX$$QEAV<lambda_aa87e3671a710a21b5dc78c0bdf72e11>@@AEAV<lambda_92619d2358a28f41a33ba319515a20b9>@@$$QEAV<lambda_6992ecaafeb10aed2b74cb1fae11a551>@@@Z@4HA 00000001800331df f   libucrt:per_thread_data.obj
 0001:000321df       ?fin$0@?0???$?RV<lambda_7777bce6b2f8c936911f934f8298dc43>@@AEAV<lambda_f03950bc5685219e0bcd2087efbe011e>@@V<lambda_3883c3dff614d5e0c5f61bb1ac94921c>@@@?$__crt_seh_guarded_call@H@@QEAAH$$QEAV<lambda_7777bce6b2f8c936911f934f8298dc43>@@AEAV<lambda_f03950bc5685219e0bcd2087efbe011e>@@$$QEAV<lambda_3883c3dff614d5e0c5f61bb1ac94921c>@@@Z@4HA 00000001800331df f   libucrt:onexit.obj
 0001:000321df       ?fin$0@?0???$?RV<lambda_0ae27a3a962d80f24befdcbee591983d>@@AEAV<lambda_8d0ee55de4b1038c4002e0adecdf1839>@@V<lambda_dc504788e8f1664fe9b84e20bfb512f2>@@@?$__crt_seh_guarded_call@X@@QEAAX$$QEAV<lambda_0ae27a3a962d80f24befdcbee591983d>@@AEAV<lambda_8d0ee55de4b1038c4002e0adecdf1839>@@$$QEAV<lambda_dc504788e8f1664fe9b84e20bfb512f2>@@@Z@4HA 00000001800331df f   libucrt:per_thread_data.obj
 0001:000321f9       ?filt$0@?0???R<lambda_6e4b09c48022b2350581041d5f6b0c4c>@@QEBA@XZ@4HA 00000001800331f9 f   libucrt:exit.obj
 0001:00032214       ?fin$0@?0???$?RV<lambda_410d79af7f07d98d83a3f525b3859a53>@@AEAV<lambda_3e16ef9562a7dcce91392c22ab16ea36>@@V<lambda_38119f0e861e05405d8a144b9b982f0a>@@@?$__crt_seh_guarded_call@X@@QEAAX$$QEAV<lambda_410d79af7f07d98d83a3f525b3859a53>@@AEAV<lambda_3e16ef9562a7dcce91392c22ab16ea36>@@$$QEAV<lambda_38119f0e861e05405d8a144b9b982f0a>@@@Z@4HA 0000000180033214 f   libucrt:wsetlocale.obj
 0001:0003222e       ?fin$0@?0??update_thread_multibyte_data_internal@@YAPEAU__crt_multibyte_data@@QEAU__acrt_ptd@@QEAPEAU1@@Z@4HA 000000018003322e f   libucrt:mbctype.obj
 0001:00032247       __acrt_initialize_lowio$fin$0 0000000180033247 f   libucrt:ioinit.obj
 0001:00032247       __acrt_lowio_ensure_fh_exists$fin$0 0000000180033247 f   libucrt:osfinfo.obj
 0001:00032260       raise$fin$0                0000000180033260 f   libucrt:signal.obj
 0001:00032281       ?fin$0@?0???$?RV<lambda_842d9ff0dc9ef11c61343bbaebe7f885>@@AEAV<lambda_c5860995281e5c4ce005b3de8f5874ee>@@V<lambda_d90129c13df834fdcbf8d2b88dafcf2d>@@@?$__crt_seh_guarded_call@X@@QEAAX$$QEAV<lambda_842d9ff0dc9ef11c61343bbaebe7f885>@@AEAV<lambda_c5860995281e5c4ce005b3de8f5874ee>@@$$QEAV<lambda_d90129c13df834fdcbf8d2b88dafcf2d>@@@Z@4HA 0000000180033281 f   libucrt:fflush.obj
 0001:0003229c       ?fin$0@?0???$?RV<lambda_886d6c58226a84441f68b9f2b8217b83>@@AEAV<lambda_ab61a845afdef5b7c387490eaf3616ee>@@V<lambda_f7f22ab5edc0698d5f6905b0d3f44752>@@@?$__crt_seh_guarded_call@X@@QEAAX$$QEAV<lambda_886d6c58226a84441f68b9f2b8217b83>@@AEAV<lambda_ab61a845afdef5b7c387490eaf3616ee>@@$$QEAV<lambda_f7f22ab5edc0698d5f6905b0d3f44752>@@@Z@4HA 000000018003329c f   libucrt:fflush.obj
 0001:000322b9       __acrt_update_thread_locale_data$fin$0 00000001800332b9 f   libucrt:locale_refcounting.obj
 0001:000322d2       ?fin$0@?0???$?RV<lambda_751a882b2c74d4b022dec766aa51a29a>@@AEAV<lambda_628dfdc04ba53c8bfc02c9951375f3f5>@@V<lambda_f6c7be5f7998530c34de24c7437d6b54>@@@?$__crt_seh_guarded_call@H@@QEAAH$$QEAV<lambda_751a882b2c74d4b022dec766aa51a29a>@@AEAV<lambda_628dfdc04ba53c8bfc02c9951375f3f5>@@$$QEAV<lambda_f6c7be5f7998530c34de24c7437d6b54>@@@Z@4HA 00000001800332d2 f   libucrt:close.obj
 0001:000322d2       ?fin$0@?0???$?RV<lambda_a37b2b86f63e897a80ea819b0eb08c01>@@AEAV<lambda_38ce7e780aa69e748d6df282ebc68efe>@@V<lambda_99fb1378e971ab6e7edea83e3a7a83a2>@@@?$__crt_seh_guarded_call@H@@QEAAH$$QEAV<lambda_a37b2b86f63e897a80ea819b0eb08c01>@@AEAV<lambda_38ce7e780aa69e748d6df282ebc68efe>@@$$QEAV<lambda_99fb1378e971ab6e7edea83e3a7a83a2>@@@Z@4HA 00000001800332d2 f   libucrt:commit.obj
 0001:000322ec       _write$fin$0               00000001800332ec f   libucrt:write.obj
 0001:00032303       _fcloseall$fin$0           0000000180033303 f   libucrt:closeall.obj
 0001:0003231c       fclose$fin$0               000000018003331c f   libucrt:fclose.obj
 0001:00032334       _ctrlfp$filt$0             0000000180033334 f   libucrt:fpctrl.obj
 0001:00032360       _IsNonwritableInCurrentImage$filt$0 0000000180033360 f   LIBCMT:pesect.obj
 0002:00000230       .idata$5                   0000000180034230     libvips:dffjs00710.o
 0002:00000238       .idata$5                   0000000180034238     libvips:dffjs00901.o
 0002:00000240       .idata$5                   0000000180034240     libvips:dffjs00915.o
 0002:00000248       .idata$5                   0000000180034248     libvips:dffjs00921.o
 0002:00000250       .idata$5                   0000000180034250     libvips:dffjs00926.o
 0002:00000258       .idata$5                   0000000180034258     libvips:dffjs00972.o
 0002:00000260       .idata$5                   0000000180034260     libvips:dffjs00973.o
 0002:00000268       .idata$5                   0000000180034268     libvips:dffjs01025.o
 0002:00000270       .idata$5                   0000000180034270     libvips:dffjs01235.o
 0002:00000278       .idata$5                   0000000180034278     libvips:dffjs01245.o
 0002:00000280       .idata$5                   0000000180034280     libvips:dffjs01246.o
 0002:00000288       .idata$5                   0000000180034288     libvips:dffjs01293.o
 0002:00000290       .idata$5                   0000000180034290     libvips:dffjs01294.o
 0002:00000298       .idata$5                   0000000180034298     libvips:dffjs01295.o
 0002:000002a0       .idata$5                   00000001800342a0     libvips:dffjs01296.o
 0002:000002a8       .idata$5                   00000001800342a8     libvips:dffjs01380.o
 0002:000002b0       .idata$5                   00000001800342b0     libvips:dffjs01476.o
 0002:000002b8       .idata$5                   00000001800342b8     libvips:dffjs01485.o
 0002:000002c0       .idata$5                   00000001800342c0     libvips:dffjs01486.o
 0002:000002c8       .idata$5                   00000001800342c8     libvips:dffjs01487.o
 0002:000002d0       .idata$5                   00000001800342d0     libvips:dffjs01488.o
 0002:000002d8       .idata$5                   00000001800342d8     libvips:dffjs01489.o
 0002:000002e0       .idata$5                   00000001800342e0     libvips:dffjs01491.o
 0002:000002e8       .idata$5                   00000001800342e8     libvips:dffjs01492.o
 0002:000002f0       .idata$5                   00000001800342f0     libvips:dffjs01493.o
 0002:000002f8       .idata$5                   00000001800342f8     libvips:dffjs01496.o
 0002:00000300       .idata$5                   0000000180034300     libvips:dffjs01497.o
 0002:00000308       .idata$5                   0000000180034308     libvips:dffjs01503.o
 0002:00000310       .idata$5                   0000000180034310     libvips:dffjs01504.o
 0002:00000318       .idata$5                   0000000180034318     libvips:dffjs01505.o
 0002:00000320       .idata$5                   0000000180034320     libvips:dffjs01506.o
 0002:00000328       .idata$5                   0000000180034328     libvips:dffjs01507.o
 0002:00000330       .idata$5                   0000000180034330     libvips:dffjs01508.o
 0002:00000338       .idata$5                   0000000180034338     libvips:dffjs01509.o
 0002:00000340       .idata$5                   0000000180034340     libvips:dffjs01510.o
 0002:00000348       .idata$5                   0000000180034348     libvips:dffjs01512.o
 0002:00000350       .idata$5                   0000000180034350     libvips:dffjs01513.o
 0002:00000358       .idata$5                   0000000180034358     libvips:dffjs01534.o
 0002:00000360       .idata$5                   0000000180034360     libvips:dffjs01536.o
 0002:00000368       .idata$5                   0000000180034368     libvips:dffjs01538.o
 0002:00000370       .idata$5                   0000000180034370     libvips:dffjs01539.o
 0002:00000378       .idata$5                   0000000180034378     libvips:dffjs01541.o
 0002:00000380       .idata$5                   0000000180034380     libvips:dffjs01543.o
 0002:00000388       .idata$5                   0000000180034388     libvips:dffjs01553.o
 0002:00000390       .idata$5                   0000000180034390     libvips:dffjs01556.o
 0002:00000398       .idata$5                   0000000180034398     libvips:dffjs01559.o
 0002:000003a0       .idata$5                   00000001800343a0     libvips:dffjs01561.o
 0002:000003a8       .idata$5                   00000001800343a8     libvips:dffjs01564.o
 0002:000003b0       .idata$5                   00000001800343b0     libvips:dffjs01568.o
 0002:000003b8       .idata$5                   00000001800343b8     libvips:dffjs01573.o
 0002:000003c0       .idata$5                   00000001800343c0     libvips:dffjs01588.o
 0002:000003c8       .idata$5                   00000001800343c8     libvips:dffjs01595.o
 0002:000003d0       .idata$5                   00000001800343d0     libvips:dffjs01725.o
 0002:000003d8       .idata$5                   00000001800343d8     libvips:dffjs01731.o
 0002:000003e0       .idata$5                   00000001800343e0     libvips:dffjs01748.o
 0002:000003e8       .idata$5                   00000001800343e8     libvips:dffjs01755.o
 0002:000003f0       .idata$5                   00000001800343f0     libvips:dffjs01770.o
 0002:000003f8       .idata$5                   00000001800343f8     libvips:dffjs02048.o
 0002:00000400       .idata$5                   0000000180034400     libvips:dffjs02049.o
 0002:00000408       .idata$5                   0000000180034408     libvips:dffjs02050.o
 0002:00000410       .idata$5                   0000000180034410     libvips:dffjs02058.o
 0002:00000418       .idata$5                   0000000180034418     libvips:dffjs02059.o
 0002:00000420       .idata$5                   0000000180034420     libvips:dffjs02060.o
 0002:00000430       .idata$5                   0000000180034430     libglib-2.0:dobjs00043.o
 0002:00000438       .idata$5                   0000000180034438     libglib-2.0:dobjs00651.o
 0002:00000448       .idata$5                   0000000180034448     libgobject-2.0:dybjs00128.o
 0002:00000450       .idata$5                   0000000180034450     libgobject-2.0:dybjs00143.o
 0002:00000458       .idata$5                   0000000180034458     libgobject-2.0:dybjs00153.o
 0002:00000460       .idata$5                   0000000180034460     libgobject-2.0:dybjs00161.o
 0002:00000468       .idata$5                   0000000180034468     libgobject-2.0:dybjs00202.o
 0002:00000470       .idata$5                   0000000180034470     libgobject-2.0:dybjs00277.o
 0002:00000478       .idata$5                   0000000180034478     libgobject-2.0:dybjs00278.o
 0002:00000480       .idata$5                   0000000180034480     libgobject-2.0:dybjs00362.o
 0002:00000488       .idata$5                   0000000180034488     libgobject-2.0:dybjs00368.o
 0002:00000490       .idata$5                   0000000180034490     libgobject-2.0:dybjs00371.o
 0002:00000498       .idata$5                   0000000180034498     libgobject-2.0:dybjs00376.o
 0002:000004a0       .idata$5                   00000001800344a0     libgobject-2.0:dybjs00379.o
 0002:000004a8       .idata$5                   00000001800344a8     libgobject-2.0:dybjs00383.o
 0002:000004b0       .idata$5                   00000001800344b0     libgobject-2.0:dybjs00390.o
 0002:000004b8       .idata$5                   00000001800344b8     libgobject-2.0:dybjs00395.o
 0002:000004c0       .idata$5                   00000001800344c0     libgobject-2.0:dybjs00396.o
 0002:000004c8       .idata$5                   00000001800344c8     libgobject-2.0:dybjs00399.o
 0002:000004d0       .idata$5                   00000001800344d0     libgobject-2.0:dybjs00400.o
 0002:000004d8       .idata$5                   00000001800344d8     libgobject-2.0:dybjs00405.o
 0002:000004e0       .idata$5                   00000001800344e0     libgobject-2.0:dybjs00408.o
 0002:000004e8       .idata$5                   00000001800344e8     libgobject-2.0:dybjs00416.o
 0002:000004f0       .idata$5                   00000001800344f0     libgobject-2.0:dybjs00431.o
 0002:00000528       ?pinit@@3P6AHXZEA          0000000180034528     libcpmt:winapisupp.obj
 0002:00000670       ?_Win_errtab@std@@3QBU_Win_errtab_t@1@B 0000000180034670     libcpmt:syserror.obj
 0002:000008e0       ?_Sys_errtab@std@@3QBU_Sys_errtab_t@1@B 00000001800348e0     libcpmt:syserror.obj
 0002:00001880       GS_ExceptionPointers       0000000180035880     LIBCMT:gs_report.obj
 0002:000018d0       ?ExceptionTemplate@?1??UnwindNestedFrames@__FrameHandler3@@SAXPEA_KPEAUEHExceptionRecord@@PEAU_CONTEXT@@0PEAXPEBU_s_FuncInfo@@HHPEBU_s_HandlerType@@PEAU_xDISPATCHER_CONTEXT@@E@Z@4U_EXCEPTION_RECORD@@B 00000001800358d0     libvcruntime:risctrnsctrl.obj
 0002:00001970       ?ExceptionTemplate@?1??_CxxThrowException@@9@4UEHExceptionRecord@@B 0000000180035970     libvcruntime:throw.obj
 0002:000019e0       ?tokenTable@@3QBQEBDB      00000001800359e0     libvcruntime:undname.obj
 0002:00001a60       ?nameTable@@3QBQEBDB       0000000180035a60     libvcruntime:undname.obj
 0002:00001cf8       ?rttiTable@@3QBQEBDB       0000000180035cf8     libvcruntime:undname.obj
 0002:000023c0       ?module_names@?A0x656504f9@@3QBQEB_WB 00000001800363c0     libvcruntime:winapi_downlevel.obj
 0002:00002480       ?candidate_modules@?1??try_get_FlsAlloc@@YAP6AKP6AXPEAX@Z@ZXZ@4QBW4module_id@?A0x656504f9@@B 0000000180036480     libvcruntime:winapi_downlevel.obj
 0002:00002488       ?candidate_modules@?1??try_get_FlsFree@@YAP6AHK@ZXZ@4QBW4module_id@?A0x656504f9@@B 0000000180036488     libvcruntime:winapi_downlevel.obj
 0002:00002490       ?candidate_modules@?1??try_get_FlsGetValue@@YAP6APEAXK@ZXZ@4QBW4module_id@?A0x656504f9@@B 0000000180036490     libvcruntime:winapi_downlevel.obj
 0002:00002498       ?candidate_modules@?1??try_get_FlsSetValue@@YAP6AHKPEAX@ZXZ@4QBW4module_id@?A0x656504f9@@B 0000000180036498     libvcruntime:winapi_downlevel.obj
 0002:000024a0       ?candidate_modules@?1??try_get_InitializeCriticalSectionEx@@YAP6AHPEAU_RTL_CRITICAL_SECTION@@KK@ZXZ@4QBW4module_id@?A0x656504f9@@B 00000001800364a0     libvcruntime:winapi_downlevel.obj
 0002:000025b0       __acrt_initializers        00000001800365b0     libucrt:initialization.obj
 0002:000026b0       ?errtable@@3QBUerrentry@?A0x31fdb9ec@@B 00000001800366b0     libucrt:errno.obj
 0002:00002ea0       ?_mb_locale_names@@3QBQEB_WB 0000000180036ea0     libucrt:mbctype.obj
 0002:00002f00       ?module_names@?A0x391cf84c@@3QBQEB_WB 0000000180036f00     libucrt:winapi_thunks.obj
 0002:00003408       ?candidate_modules@?1??try_get_AreFileApisANSI@@YAP6AHXZXZ@4QBW4module_id@?A0x391cf84c@@B 0000000180037408     libucrt:winapi_thunks.obj
 0002:00003420       ?candidate_modules@?1??try_get_FlsAlloc@@YAP6AKP6AXPEAX@Z@ZXZ@4QBW4module_id@?A0x391cf84c@@B 0000000180037420     libucrt:winapi_thunks.obj
 0002:00003428       ?candidate_modules@?1??try_get_FlsFree@@YAP6AHK@ZXZ@4QBW4module_id@?A0x391cf84c@@B 0000000180037428     libucrt:winapi_thunks.obj
 0002:00003430       ?candidate_modules@?1??try_get_FlsGetValue@@YAP6APEAXK@ZXZ@4QBW4module_id@?A0x391cf84c@@B 0000000180037430     libucrt:winapi_thunks.obj
 0002:00003438       ?candidate_modules@?1??try_get_FlsSetValue@@YAP6AHKPEAX@ZXZ@4QBW4module_id@?A0x391cf84c@@B 0000000180037438     libucrt:winapi_thunks.obj
 0002:00003440       ?candidate_modules@?1??try_get_InitializeCriticalSectionEx@@YAP6AHPEAU_RTL_CRITICAL_SECTION@@KK@ZXZ@4QBW4module_id@?A0x391cf84c@@B 0000000180037440     libucrt:winapi_thunks.obj
 0002:00003448       ?candidate_modules@?1??try_get_LCMapStringEx@@YAP6AHPEB_WK0HPEA_WHPEAU_nlsversioninfo@@PEAX_J@ZXZ@4QBW4module_id@?A0x391cf84c@@B 0000000180037448     libucrt:winapi_thunks.obj
 0002:00003450       ?candidate_modules@?1??try_get_LocaleNameToLCID@@YAP6AKPEB_WK@ZXZ@4QBW4module_id@?A0x391cf84c@@B 0000000180037450     libucrt:winapi_thunks.obj
 0002:0000346c       ?candidate_modules@?1??try_get_AppPolicyGetProcessTerminationMethod@@YAP6AJPEAXPEAW4AppPolicyProcessTerminationMethod@@@ZXZ@4QBW4module_id@?A0x391cf84c@@B 000000018003746c     libucrt:winapi_thunks.obj
 0002:00003ab0       ?LcidToLocaleNameTable@?A0x881e4c05@@3QBULcidToLocaleName@1@B 0000000180037ab0     libucrt:lcidtoname_downlevel.obj
 0002:00005510       ?LocaleNameToIndexTable@?A0x881e4c05@@3QBULocaleNameIndex@1@B 0000000180039510     libucrt:lcidtoname_downlevel.obj
 0002:00006db0       __real_ninf                000000018003adb0     libucrt:log10.obj
 0002:00006dc0       __real_inf                 000000018003adc0     libucrt:log10.obj
 0002:00006dd0       __real_neg_qnan            000000018003add0     libucrt:log10.obj
 0002:00006de0       __real_qnanbit             000000018003ade0     libucrt:log10.obj
 0002:00006df0       __int_1023                 000000018003adf0     libucrt:log10.obj
 0002:00006e00       __mask_001                 000000018003ae00     libucrt:log10.obj
 0002:00006e10       __mask_mant                000000018003ae10     libucrt:log10.obj
 0002:00006e20       __mask_mant_top8           000000018003ae20     libucrt:log10.obj
 0002:00006e30       __mask_mant9               000000018003ae30     libucrt:log10.obj
 0002:00006e40       __real_log10_e             000000018003ae40     libucrt:log10.obj
 0002:00006e50       __real_log10_e_lead        000000018003ae50     libucrt:log10.obj
 0002:00006e60       __real_log10_e_tail        000000018003ae60     libucrt:log10.obj
 0002:00006e70       __real_log10_2_lead        000000018003ae70     libucrt:log10.obj
 0002:00006e80       __real_log10_2_tail        000000018003ae80     libucrt:log10.obj
 0002:00006e90       __real_two                 000000018003ae90     libucrt:log10.obj
 0002:00006ea0       __real_one                 000000018003aea0     libucrt:log10.obj
 0002:00006eb0       __real_half                000000018003aeb0     libucrt:log10.obj
 0002:00006ec0       __mask_100                 000000018003aec0     libucrt:log10.obj
 0002:00006ed0       __real_1_over_512          000000018003aed0     libucrt:log10.obj
 0002:00006ee0       __real_1_over_2            000000018003aee0     libucrt:log10.obj
 0002:00006ef0       __real_1_over_3            000000018003aef0     libucrt:log10.obj
 0002:00006f00       __real_1_over_4            000000018003af00     libucrt:log10.obj
 0002:00006f10       __real_1_over_5            000000018003af10     libucrt:log10.obj
 0002:00006f20       __real_1_over_6            000000018003af20     libucrt:log10.obj
 0002:00006f30       __real_neg_1023            000000018003af30     libucrt:log10.obj
 0002:00006f40       __mask_2045                000000018003af40     libucrt:log10.obj
 0002:00006f50       __real_threshold           000000018003af50     libucrt:log10.obj
 0002:00006f60       __real_near_one_lt         000000018003af60     libucrt:log10.obj
 0002:00006f70       __real_near_one_gt         000000018003af70     libucrt:log10.obj
 0002:00006f80       __real_min_norm            000000018003af80     libucrt:log10.obj
 0002:00006f90       __real_notsign             000000018003af90     libucrt:log10.obj
 0002:00006fa0       __real_ca1                 000000018003afa0     libucrt:log10.obj
 0002:00006fb0       __real_ca2                 000000018003afb0     libucrt:log10.obj
 0002:00006fc0       __real_ca3                 000000018003afc0     libucrt:log10.obj
 0002:00006fd0       __real_ca4                 000000018003afd0     libucrt:log10.obj
 0002:00006fe0       __mask_lower               000000018003afe0     libucrt:log10.obj
 0002:00006ff0       __flag_x_zero              000000018003aff0     libucrt:log10.obj
 0002:00006ff4       __flag_x_neg               000000018003aff4     libucrt:log10.obj
 0002:00006ff8       __flag_x_nan               000000018003aff8     libucrt:log10.obj
 0002:00008850       __real@433fffffffffffff    000000018003c850     libucrt:fpsr.obj
 0002:00008858       __real@c33fffffffffffff    000000018003c858     libucrt:fpsr.obj
 0002:00009b28       $cppxdata$??1_Sentry_base@?$basic_ostream@DU?$char_traits@D@std@@@std@@QEAA@XZ 000000018003db28     VError.obj
 0002:00009b50       $cppxdata$??0sentry@?$basic_ostream@DU?$char_traits@D@std@@@std@@QEAA@AEAV12@@Z 000000018003db50     VError.obj
 0002:00009b78       $cppxdata$??1sentry@?$basic_ostream@DU?$char_traits@D@std@@@std@@QEAA@XZ 000000018003db78     VError.obj
 0002:00009ba0       $cppxdata$??$_Assign_cast@AEAPEAUPair@VOption@vips@@V?$_List_unchecked_const_iterator@V?$_List_val@U?$_List_simple_types@PEAUPair@VOption@vips@@@std@@@std@@U_Iterator_base0@2@@std@@@?$list@PEAUPair@VOption@vips@@V?$allocator@PEAUPair@VOption@vips@@@std@@@std@@AEAAXV?$_List_unchecked_const_iterator@V?$_List_val@U?$_List_simple_types@PEAUPair@VOption@vips@@@std@@@std@@U_Iterator_base0@2@@1@V21@@Z 000000018003dba0     VError.obj
 0002:00009bc8       $cppxdata$??$_Insert_string@DU?$char_traits@D@std@@_K@std@@YAAEAV?$basic_ostream@DU?$char_traits@D@std@@@0@AEAV10@QEBD_K@Z 000000018003dbc8     VError.obj
 0002:00009bf0       $cppxdata$?ifthenelse@VImage@vips@@QEBA?AV12@NNPEAVVOption@2@@Z 000000018003dbf0     VError.obj
 0002:00009c18       $cppxdata$?ifthenelse@VImage@vips@@QEBA?AV12@V12@NPEAVVOption@2@@Z 000000018003dc18     VError.obj
 0002:00009c40       $cppxdata$?ifthenelse@VImage@vips@@QEBA?AV12@NV12@PEAVVOption@2@@Z 000000018003dc40     VError.obj
 0002:00009c68       $cppxdata$?ifthenelse@VImage@vips@@QEBA?AV12@V?$vector@NV?$allocator@N@std@@@std@@0PEAVVOption@2@@Z 000000018003dc68     VError.obj
 0002:00009c90       $cppxdata$?ifthenelse@VImage@vips@@QEBA?AV12@V12@V?$vector@NV?$allocator@N@std@@@std@@PEAVVOption@2@@Z 000000018003dc90     VError.obj
 0002:00009cb8       $cppxdata$?ifthenelse@VImage@vips@@QEBA?AV12@V?$vector@NV?$allocator@N@std@@@std@@V12@PEAVVOption@2@@Z 000000018003dcb8     VError.obj
 0002:00009ce0       $cppxdata$?wop@VImage@vips@@QEBA?AV12@V?$vector@NV?$allocator@N@std@@@std@@PEAVVOption@2@@Z 000000018003dce0     VError.obj
 0002:00009d08       $cppxdata$?wop@VImage@vips@@QEBA?AV12@V12@PEAVVOption@2@@Z 000000018003dd08     VError.obj
 0002:00009d30       $cppxdata$?pow@VImage@vips@@QEBA?AV12@V?$vector@NV?$allocator@N@std@@@std@@PEAVVOption@2@@Z 000000018003dd30     VError.obj
 0002:00009d58       $cppxdata$?pow@VImage@vips@@QEBA?AV12@V12@PEAVVOption@2@@Z 000000018003dd58     VError.obj
 0002:00009d80       $cppxdata$?erode@VImage@vips@@QEBA?AV12@V12@PEAVVOption@2@@Z 000000018003dd80     VError.obj
 0002:00009da8       $cppxdata$?dilate@VImage@vips@@QEBA?AV12@V12@PEAVVOption@2@@Z 000000018003dda8     VError.obj
 0002:00009dd0       $cppxdata$?bandjoin@VImage@vips@@QEBA?AV12@V?$vector@NV?$allocator@N@std@@@std@@PEAVVOption@2@@Z 000000018003ddd0     VError.obj
 0002:00009df8       $cppxdata$?linear@VImage@vips@@QEBA?AV12@NV?$vector@NV?$allocator@N@std@@@std@@PEAVVOption@2@@Z 000000018003ddf8     VError.obj
 0002:00009e20       $cppxdata$?linear@VImage@vips@@QEBA?AV12@V?$vector@NV?$allocator@N@std@@@std@@NPEAVVOption@2@@Z 000000018003de20     VError.obj
 0002:00009e48       $cppxdata$?linear@VImage@vips@@QEBA?AV12@NNPEAVVOption@2@@Z 000000018003de48     VError.obj
 0002:00009e70       $cppxdata$?new_from_image@VImage@vips@@QEBA?AV12@V?$vector@NV?$allocator@N@std@@@std@@@Z 000000018003de70     VError.obj
 0002:00009e98       $cppxdata$?option@VImage@vips@@SAPEAVVOption@2@XZ 000000018003de98     VError.obj
 0002:00009ec0       $cppxdata$??_EVOption@vips@@UEAAPEAXI@Z 000000018003dec0     VError.obj
 0002:00009ee8       $cppxdata$??0VOption@vips@@QEAA@AEBV01@@Z 000000018003dee8     VError.obj
 0002:00009f10       $cppxdata$??0VError@vips@@QEAA@AEBV01@@Z 000000018003df10     VError.obj
 0002:00009f38       $cppxdata$??0VError@vips@@QEAA@XZ 000000018003df38     VError.obj
 0002:00009f60       $cppxdata$??0VError@vips@@QEAA@AEBV?$basic_string@DU?$char_traits@D@std@@V?$allocator@D@2@@std@@@Z 000000018003df60     VError.obj
 0002:00009f88       $cppxdata$??0system_error@std@@QEAA@Verror_code@1@PEBD@Z 000000018003df88     VError.obj
 0002:00009fe0       $cppxdata$?set@VOption@vips@@QEAAPEAV12@PEBDVVInterpolate@2@@Z 000000018003dfe0     VInterpolate.obj
 0002:0000a008       $cppxdata$??_3vips@@YAAEAVVImage@0@AEAV10@V?$vector@NV?$allocator@N@std@@@std@@@Z 000000018003e008     VImage.obj
 0002:0000a008       $cppxdata$??_2vips@@YAAEAVVImage@0@AEAV10@V?$vector@NV?$allocator@N@std@@@std@@@Z 000000018003e008     VImage.obj
 0002:0000a030       $cppxdata$??_3vips@@YAAEAVVImage@0@AEAV10@N@Z 000000018003e030     VImage.obj
 0002:0000a030       $cppxdata$??_2vips@@YAAEAVVImage@0@AEAV10@N@Z 000000018003e030     VImage.obj
 0002:0000a058       $cppxdata$??_2vips@@YAAEAVVImage@0@AEAV10@V10@@Z 000000018003e058     VImage.obj
 0002:0000a058       $cppxdata$??_3vips@@YAAEAVVImage@0@AEAV10@V10@@Z 000000018003e058     VImage.obj
 0002:0000a080       $cppxdata$??5vips@@YA?AVVImage@0@V10@V?$vector@NV?$allocator@N@std@@@std@@@Z 000000018003e080     VImage.obj
 0002:0000a0a8       $cppxdata$??5vips@@YA?AVVImage@0@V10@N@Z 000000018003e0a8     VImage.obj
 0002:0000a0d0       $cppxdata$??5vips@@YA?AVVImage@0@V10@0@Z 000000018003e0d0     VImage.obj
 0002:0000a0f8       $cppxdata$??6vips@@YA?AVVImage@0@V10@V?$vector@NV?$allocator@N@std@@@std@@@Z 000000018003e0f8     VImage.obj
 0002:0000a120       $cppxdata$??6vips@@YA?AVVImage@0@V10@N@Z 000000018003e120     VImage.obj
 0002:0000a148       $cppxdata$??6vips@@YA?AVVImage@0@V10@0@Z 000000018003e148     VImage.obj
 0002:0000a170       $cppxdata$??_6vips@@YAAEAVVImage@0@AEAV10@V?$vector@NV?$allocator@N@std@@@std@@@Z 000000018003e170     VImage.obj
 0002:0000a198       $cppxdata$??_6vips@@YAAEAVVImage@0@AEAV10@N@Z 000000018003e198     VImage.obj
 0002:0000a1c0       $cppxdata$??_6vips@@YAAEAVVImage@0@AEAV10@V10@@Z 000000018003e1c0     VImage.obj
 0002:0000a1e8       $cppxdata$??Tvips@@YA?AVVImage@0@V10@V?$vector@NV?$allocator@N@std@@@std@@@Z 000000018003e1e8     VImage.obj
 0002:0000a210       $cppxdata$??Tvips@@YA?AVVImage@0@V?$vector@NV?$allocator@N@std@@@std@@V10@@Z 000000018003e210     VImage.obj
 0002:0000a238       $cppxdata$??Tvips@@YA?AVVImage@0@V10@N@Z 000000018003e238     VImage.obj
 0002:0000a260       $cppxdata$??Tvips@@YA?AVVImage@0@NV10@@Z 000000018003e260     VImage.obj
 0002:0000a288       $cppxdata$??Tvips@@YA?AVVImage@0@V10@0@Z 000000018003e288     VImage.obj
 0002:0000a2b0       $cppxdata$??_5vips@@YAAEAVVImage@0@AEAV10@V?$vector@NV?$allocator@N@std@@@std@@@Z 000000018003e2b0     VImage.obj
 0002:0000a2d8       $cppxdata$??_5vips@@YAAEAVVImage@0@AEAV10@N@Z 000000018003e2d8     VImage.obj
 0002:0000a300       $cppxdata$??_5vips@@YAAEAVVImage@0@AEAV10@V10@@Z 000000018003e300     VImage.obj
 0002:0000a328       $cppxdata$??Uvips@@YA?AVVImage@0@V10@V?$vector@NV?$allocator@N@std@@@std@@@Z 000000018003e328     VImage.obj
 0002:0000a350       $cppxdata$??Uvips@@YA?AVVImage@0@V?$vector@NV?$allocator@N@std@@@std@@V10@@Z 000000018003e350     VImage.obj
 0002:0000a378       $cppxdata$??Uvips@@YA?AVVImage@0@V10@N@Z 000000018003e378     VImage.obj
 0002:0000a3a0       $cppxdata$??Uvips@@YA?AVVImage@0@NV10@@Z 000000018003e3a0     VImage.obj
 0002:0000a3c8       $cppxdata$??Uvips@@YA?AVVImage@0@V10@0@Z 000000018003e3c8     VImage.obj
 0002:0000a3f0       $cppxdata$??_4vips@@YAAEAVVImage@0@AEAV10@V?$vector@NV?$allocator@N@std@@@std@@@Z 000000018003e3f0     VImage.obj
 0002:0000a418       $cppxdata$??_4vips@@YAAEAVVImage@0@AEAV10@N@Z 000000018003e418     VImage.obj
 0002:0000a440       $cppxdata$??_4vips@@YAAEAVVImage@0@AEAV10@V10@@Z 000000018003e440     VImage.obj
 0002:0000a468       $cppxdata$??Ivips@@YA?AVVImage@0@V10@V?$vector@NV?$allocator@N@std@@@std@@@Z 000000018003e468     VImage.obj
 0002:0000a490       $cppxdata$??Ivips@@YA?AVVImage@0@V?$vector@NV?$allocator@N@std@@@std@@V10@@Z 000000018003e490     VImage.obj
 0002:0000a4b8       $cppxdata$??Ivips@@YA?AVVImage@0@V10@N@Z 000000018003e4b8     VImage.obj
 0002:0000a4e0       $cppxdata$??Ivips@@YA?AVVImage@0@NV10@@Z 000000018003e4e0     VImage.obj
 0002:0000a508       $cppxdata$??Ivips@@YA?AVVImage@0@V10@0@Z 000000018003e508     VImage.obj
 0002:0000a530       $cppxdata$??9vips@@YA?AVVImage@0@V10@V?$vector@NV?$allocator@N@std@@@std@@@Z 000000018003e530     VImage.obj
 0002:0000a558       $cppxdata$??9vips@@YA?AVVImage@0@V?$vector@NV?$allocator@N@std@@@std@@V10@@Z 000000018003e558     VImage.obj
 0002:0000a580       $cppxdata$??9vips@@YA?AVVImage@0@V10@N@Z 000000018003e580     VImage.obj
 0002:0000a5a8       $cppxdata$??9vips@@YA?AVVImage@0@NV10@@Z 000000018003e5a8     VImage.obj
 0002:0000a5d0       $cppxdata$??9vips@@YA?AVVImage@0@V10@0@Z 000000018003e5d0     VImage.obj
 0002:0000a5f8       $cppxdata$??8vips@@YA?AVVImage@0@V10@V?$vector@NV?$allocator@N@std@@@std@@@Z 000000018003e5f8     VImage.obj
 0002:0000a620       $cppxdata$??8vips@@YA?AVVImage@0@V?$vector@NV?$allocator@N@std@@@std@@V10@@Z 000000018003e620     VImage.obj
 0002:0000a648       $cppxdata$??8vips@@YA?AVVImage@0@V10@N@Z 000000018003e648     VImage.obj
 0002:0000a670       $cppxdata$??8vips@@YA?AVVImage@0@NV10@@Z 000000018003e670     VImage.obj
 0002:0000a698       $cppxdata$??8vips@@YA?AVVImage@0@V10@0@Z 000000018003e698     VImage.obj
 0002:0000a6c0       $cppxdata$??Pvips@@YA?AVVImage@0@V10@V?$vector@NV?$allocator@N@std@@@std@@@Z 000000018003e6c0     VImage.obj
 0002:0000a6e8       $cppxdata$??Pvips@@YA?AVVImage@0@V?$vector@NV?$allocator@N@std@@@std@@V10@@Z 000000018003e6e8     VImage.obj
 0002:0000a710       $cppxdata$??Pvips@@YA?AVVImage@0@V10@N@Z 000000018003e710     VImage.obj
 0002:0000a738       $cppxdata$??Pvips@@YA?AVVImage@0@NV10@@Z 000000018003e738     VImage.obj
 0002:0000a760       $cppxdata$??Pvips@@YA?AVVImage@0@V10@0@Z 000000018003e760     VImage.obj
 0002:0000a788       $cppxdata$??Ovips@@YA?AVVImage@0@V10@V?$vector@NV?$allocator@N@std@@@std@@@Z 000000018003e788     VImage.obj
 0002:0000a7b0       $cppxdata$??Ovips@@YA?AVVImage@0@V?$vector@NV?$allocator@N@std@@@std@@V10@@Z 000000018003e7b0     VImage.obj
 0002:0000a7d8       $cppxdata$??Ovips@@YA?AVVImage@0@V10@N@Z 000000018003e7d8     VImage.obj
 0002:0000a800       $cppxdata$??Ovips@@YA?AVVImage@0@NV10@@Z 000000018003e800     VImage.obj
 0002:0000a828       $cppxdata$??Ovips@@YA?AVVImage@0@V10@0@Z 000000018003e828     VImage.obj
 0002:0000a850       $cppxdata$??Nvips@@YA?AVVImage@0@V10@V?$vector@NV?$allocator@N@std@@@std@@@Z 000000018003e850     VImage.obj
 0002:0000a878       $cppxdata$??Nvips@@YA?AVVImage@0@V?$vector@NV?$allocator@N@std@@@std@@V10@@Z 000000018003e878     VImage.obj
 0002:0000a8a0       $cppxdata$??Nvips@@YA?AVVImage@0@V10@N@Z 000000018003e8a0     VImage.obj
 0002:0000a8c8       $cppxdata$??Nvips@@YA?AVVImage@0@NV10@@Z 000000018003e8c8     VImage.obj
 0002:0000a8f0       $cppxdata$??Nvips@@YA?AVVImage@0@V10@0@Z 000000018003e8f0     VImage.obj
 0002:0000a918       $cppxdata$??Mvips@@YA?AVVImage@0@V10@V?$vector@NV?$allocator@N@std@@@std@@@Z 000000018003e918     VImage.obj
 0002:0000a940       $cppxdata$??Mvips@@YA?AVVImage@0@V?$vector@NV?$allocator@N@std@@@std@@V10@@Z 000000018003e940     VImage.obj
 0002:0000a968       $cppxdata$??Mvips@@YA?AVVImage@0@V10@N@Z 000000018003e968     VImage.obj
 0002:0000a990       $cppxdata$??Mvips@@YA?AVVImage@0@NV10@@Z 000000018003e990     VImage.obj
 0002:0000a9b8       $cppxdata$??Mvips@@YA?AVVImage@0@V10@0@Z 000000018003e9b8     VImage.obj
 0002:0000a9e0       $cppxdata$??_1vips@@YAAEAVVImage@0@AEAV10@V?$vector@NV?$allocator@N@std@@@std@@@Z 000000018003e9e0     VImage.obj
 0002:0000aa08       $cppxdata$??_1vips@@YAAEAVVImage@0@AEAV10@N@Z 000000018003ea08     VImage.obj
 0002:0000aa30       $cppxdata$??_1vips@@YAAEAVVImage@0@AEAV10@V10@@Z 000000018003ea30     VImage.obj
 0002:0000aa58       $cppxdata$??Lvips@@YA?AVVImage@0@V10@V?$vector@NV?$allocator@N@std@@@std@@@Z 000000018003ea58     VImage.obj
 0002:0000aa80       $cppxdata$??Lvips@@YA?AVVImage@0@V10@N@Z 000000018003ea80     VImage.obj
 0002:0000aaa8       $cppxdata$??Lvips@@YA?AVVImage@0@V10@0@Z 000000018003eaa8     VImage.obj
 0002:0000aad0       $cppxdata$??_0vips@@YAAEAVVImage@0@AEAV10@V?$vector@NV?$allocator@N@std@@@std@@@Z 000000018003ead0     VImage.obj
 0002:0000aaf8       $cppxdata$??_0vips@@YAAEAVVImage@0@AEAV10@N@Z 000000018003eaf8     VImage.obj
 0002:0000ab20       $cppxdata$??_0vips@@YAAEAVVImage@0@AEAV10@V10@@Z 000000018003eb20     VImage.obj
 0002:0000ab48       $cppxdata$??Kvips@@YA?AVVImage@0@V10@V?$vector@NV?$allocator@N@std@@@std@@@Z 000000018003eb48     VImage.obj
 0002:0000ab70       $cppxdata$??Kvips@@YA?AVVImage@0@V?$vector@NV?$allocator@N@std@@@std@@V10@@Z 000000018003eb70     VImage.obj
 0002:0000ab98       $cppxdata$??Kvips@@YA?AVVImage@0@V10@N@Z 000000018003eb98     VImage.obj
 0002:0000abc0       $cppxdata$??Kvips@@YA?AVVImage@0@NV10@@Z 000000018003ebc0     VImage.obj
 0002:0000abe8       $cppxdata$??Kvips@@YA?AVVImage@0@V10@0@Z 000000018003ebe8     VImage.obj
 0002:0000ac10       $cppxdata$??Xvips@@YAAEAVVImage@0@AEAV10@V?$vector@NV?$allocator@N@std@@@std@@@Z 000000018003ec10     VImage.obj
 0002:0000ac38       $cppxdata$??Xvips@@YAAEAVVImage@0@AEAV10@N@Z 000000018003ec38     VImage.obj
 0002:0000ac60       $cppxdata$??Xvips@@YAAEAVVImage@0@AEAV10@V10@@Z 000000018003ec60     VImage.obj
 0002:0000ac88       $cppxdata$??Dvips@@YA?AVVImage@0@V10@V?$vector@NV?$allocator@N@std@@@std@@@Z 000000018003ec88     VImage.obj
 0002:0000acb0       $cppxdata$??Dvips@@YA?AVVImage@0@V?$vector@NV?$allocator@N@std@@@std@@V10@@Z 000000018003ecb0     VImage.obj
 0002:0000acd8       $cppxdata$??Dvips@@YA?AVVImage@0@V10@N@Z 000000018003ecd8     VImage.obj
 0002:0000ad00       $cppxdata$??Dvips@@YA?AVVImage@0@NV10@@Z 000000018003ed00     VImage.obj
 0002:0000ad28       $cppxdata$??Dvips@@YA?AVVImage@0@V10@0@Z 000000018003ed28     VImage.obj
 0002:0000ad50       $cppxdata$??Gvips@@YA?AVVImage@0@V10@@Z 000000018003ed50     VImage.obj
 0002:0000ad78       $cppxdata$??Zvips@@YAAEAVVImage@0@AEAV10@V?$vector@NV?$allocator@N@std@@@std@@@Z 000000018003ed78     VImage.obj
 0002:0000ada0       $cppxdata$??Zvips@@YAAEAVVImage@0@AEAV10@N@Z 000000018003eda0     VImage.obj
 0002:0000adc8       $cppxdata$??Zvips@@YAAEAVVImage@0@AEAV10@V10@@Z 000000018003edc8     VImage.obj
 0002:0000adf0       $cppxdata$??Gvips@@YA?AVVImage@0@V10@V?$vector@NV?$allocator@N@std@@@std@@@Z 000000018003edf0     VImage.obj
 0002:0000ae18       $cppxdata$??Gvips@@YA?AVVImage@0@V?$vector@NV?$allocator@N@std@@@std@@V10@@Z 000000018003ee18     VImage.obj
 0002:0000ae40       $cppxdata$??Gvips@@YA?AVVImage@0@V10@N@Z 000000018003ee40     VImage.obj
 0002:0000ae68       $cppxdata$??Gvips@@YA?AVVImage@0@NV10@@Z 000000018003ee68     VImage.obj
 0002:0000ae90       $cppxdata$??Gvips@@YA?AVVImage@0@V10@0@Z 000000018003ee90     VImage.obj
 0002:0000aeb8       $cppxdata$??Yvips@@YAAEAVVImage@0@AEAV10@V?$vector@NV?$allocator@N@std@@@std@@@Z 000000018003eeb8     VImage.obj
 0002:0000aee0       $cppxdata$??Yvips@@YAAEAVVImage@0@AEAV10@N@Z 000000018003eee0     VImage.obj
 0002:0000af08       $cppxdata$??Yvips@@YAAEAVVImage@0@AEAV10@V10@@Z 000000018003ef08     VImage.obj
 0002:0000af30       $cppxdata$??Hvips@@YA?AVVImage@0@V10@V?$vector@NV?$allocator@N@std@@@std@@@Z 000000018003ef30     VImage.obj
 0002:0000af58       $cppxdata$??Hvips@@YA?AVVImage@0@V?$vector@NV?$allocator@N@std@@@std@@V10@@Z 000000018003ef58     VImage.obj
 0002:0000af80       $cppxdata$??Hvips@@YA?AVVImage@0@V10@N@Z 000000018003ef80     VImage.obj
 0002:0000afa8       $cppxdata$??Hvips@@YA?AVVImage@0@NV10@@Z 000000018003efa8     VImage.obj
 0002:0000afd0       $cppxdata$??Hvips@@YA?AVVImage@0@V10@0@Z 000000018003efd0     VImage.obj
 0002:0000aff8       $cppxdata$?maxpos@VImage@vips@@QEBA?AV?$complex@N@std@@PEAVVOption@2@@Z 000000018003eff8     VImage.obj
 0002:0000b020       $cppxdata$?minpos@VImage@vips@@QEBA?AV?$complex@N@std@@PEAVVOption@2@@Z 000000018003f020     VImage.obj
 0002:0000b048       $cppxdata$?composite@VImage@vips@@QEBA?AV12@V12@W4VipsBlendMode@@PEAVVOption@2@@Z 000000018003f048     VImage.obj
 0002:0000b070       $cppxdata$?bandjoin@VImage@vips@@QEBA?AV12@V12@PEAVVOption@2@@Z 000000018003f070     VImage.obj
 0002:0000b098       $cppxdata$?bandsplit@VImage@vips@@QEBA?AV?$vector@VVImage@vips@@V?$allocator@VVImage@vips@@@std@@@std@@PEAVVOption@2@@Z 000000018003f098     VImage.obj
 0002:0000b0c0       $cppxdata$?zoom@VImage@vips@@QEBA?AV12@HHPEAVVOption@2@@Z 000000018003f0c0     VImage.obj
 0002:0000b0e8       $cppxdata$?zone@VImage@vips@@SA?AV12@HHPEAVVOption@2@@Z 000000018003f0e8     VImage.obj
 0002:0000b110       $cppxdata$?xyz@VImage@vips@@SA?AV12@HHPEAVVOption@2@@Z 000000018003f110     VImage.obj
 0002:0000b138       $cppxdata$?wrap@VImage@vips@@QEBA?AV12@PEAVVOption@2@@Z 000000018003f138     VImage.obj
 0002:0000b160       $cppxdata$?worley@VImage@vips@@SA?AV12@HHPEAVVOption@2@@Z 000000018003f160     VImage.obj
 0002:0000b188       $cppxdata$?webpsave_buffer@VImage@vips@@QEBAPEAU_VipsBlob@@PEAVVOption@2@@Z 000000018003f188     VImage.obj
 0002:0000b1b0       $cppxdata$?webpsave@VImage@vips@@QEBAXPEBDPEAVVOption@2@@Z 000000018003f1b0     VImage.obj
 0002:0000b1d8       $cppxdata$?webpload_buffer@VImage@vips@@SA?AV12@PEAU_VipsBlob@@PEAVVOption@2@@Z 000000018003f1d8     VImage.obj
 0002:0000b200       $cppxdata$?webpload@VImage@vips@@SA?AV12@PEBDPEAVVOption@2@@Z 000000018003f200     VImage.obj
 0002:0000b228       $cppxdata$?vipssave@VImage@vips@@QEBAXPEBDPEAVVOption@2@@Z 000000018003f228     VImage.obj
 0002:0000b250       $cppxdata$?vipsload@VImage@vips@@SA?AV12@PEBDPEAVVOption@2@@Z 000000018003f250     VImage.obj
 0002:0000b278       $cppxdata$?unpremultiply@VImage@vips@@QEBA?AV12@PEAVVOption@2@@Z 000000018003f278     VImage.obj
 0002:0000b2a0       $cppxdata$?transpose3d@VImage@vips@@QEBA?AV12@PEAVVOption@2@@Z 000000018003f2a0     VImage.obj
 0002:0000b2c8       $cppxdata$?tonelut@VImage@vips@@SA?AV12@PEAVVOption@2@@Z 000000018003f2c8     VImage.obj
 0002:0000b2f0       $cppxdata$?tilecache@VImage@vips@@QEBA?AV12@PEAVVOption@2@@Z 000000018003f2f0     VImage.obj
 0002:0000b318       $cppxdata$?tiffsave_buffer@VImage@vips@@QEBAPEAU_VipsBlob@@PEAVVOption@2@@Z 000000018003f318     VImage.obj
 0002:0000b340       $cppxdata$?tiffsave@VImage@vips@@QEBAXPEBDPEAVVOption@2@@Z 000000018003f340     VImage.obj
 0002:0000b368       $cppxdata$?tiffload_buffer@VImage@vips@@SA?AV12@PEAU_VipsBlob@@PEAVVOption@2@@Z 000000018003f368     VImage.obj
 0002:0000b390       $cppxdata$?tiffload@VImage@vips@@SA?AV12@PEBDPEAVVOption@2@@Z 000000018003f390     VImage.obj
 0002:0000b3b8       $cppxdata$?thumbnail_image@VImage@vips@@QEBA?AV12@HPEAVVOption@2@@Z 000000018003f3b8     VImage.obj
 0002:0000b3e0       $cppxdata$?thumbnail_buffer@VImage@vips@@SA?AV12@PEAU_VipsBlob@@HPEAVVOption@2@@Z 000000018003f3e0     VImage.obj
 0002:0000b408       $cppxdata$?thumbnail@VImage@vips@@SA?AV12@PEBDHPEAVVOption@2@@Z 000000018003f408     VImage.obj
 0002:0000b430       $cppxdata$?text@VImage@vips@@SA?AV12@PEBDPEAVVOption@2@@Z 000000018003f430     VImage.obj
 0002:0000b458       $cppxdata$?system@VImage@vips@@SAXPEBDPEAVVOption@2@@Z 000000018003f458     VImage.obj
 0002:0000b480       $cppxdata$?svgload_buffer@VImage@vips@@SA?AV12@PEAU_VipsBlob@@PEAVVOption@2@@Z 000000018003f480     VImage.obj
 0002:0000b4a8       $cppxdata$?svgload@VImage@vips@@SA?AV12@PEBDPEAVVOption@2@@Z 000000018003f4a8     VImage.obj
 0002:0000b4d0       $cppxdata$?sum@VImage@vips@@SA?AV12@V?$vector@VVImage@vips@@V?$allocator@VVImage@vips@@@std@@@std@@PEAVVOption@2@@Z 000000018003f4d0     VImage.obj
 0002:0000b4f8       $cppxdata$?subtract@VImage@vips@@QEBA?AV12@V12@PEAVVOption@2@@Z 000000018003f4f8     VImage.obj
 0002:0000b520       $cppxdata$?subsample@VImage@vips@@QEBA?AV12@HHPEAVVOption@2@@Z 000000018003f520     VImage.obj
 0002:0000b548       $cppxdata$?stdif@VImage@vips@@QEBA?AV12@HHPEAVVOption@2@@Z 000000018003f548     VImage.obj
 0002:0000b570       $cppxdata$?stats@VImage@vips@@QEBA?AV12@PEAVVOption@2@@Z 000000018003f570     VImage.obj
 0002:0000b598       $cppxdata$?spectrum@VImage@vips@@QEBA?AV12@PEAVVOption@2@@Z 000000018003f598     VImage.obj
 0002:0000b5c0       $cppxdata$?spcor@VImage@vips@@QEBA?AV12@V12@PEAVVOption@2@@Z 000000018003f5c0     VImage.obj
 0002:0000b5e8       $cppxdata$?sobel@VImage@vips@@QEBA?AV12@PEAVVOption@2@@Z 000000018003f5e8     VImage.obj
 0002:0000b610       $cppxdata$?smartcrop@VImage@vips@@QEBA?AV12@HHPEAVVOption@2@@Z 000000018003f610     VImage.obj
 0002:0000b638       $cppxdata$?sines@VImage@vips@@SA?AV12@HHPEAVVOption@2@@Z 000000018003f638     VImage.obj
 0002:0000b660       $cppxdata$?similarity@VImage@vips@@QEBA?AV12@PEAVVOption@2@@Z 000000018003f660     VImage.obj
 0002:0000b688       $cppxdata$?sign@VImage@vips@@QEBA?AV12@PEAVVOption@2@@Z 000000018003f688     VImage.obj
 0002:0000b6b0       $cppxdata$?shrinkv@VImage@vips@@QEBA?AV12@HPEAVVOption@2@@Z 000000018003f6b0     VImage.obj
 0002:0000b6d8       $cppxdata$?shrinkh@VImage@vips@@QEBA?AV12@HPEAVVOption@2@@Z 000000018003f6d8     VImage.obj
 0002:0000b700       $cppxdata$?shrink@VImage@vips@@QEBA?AV12@NNPEAVVOption@2@@Z 000000018003f700     VImage.obj
 0002:0000b728       $cppxdata$?sharpen@VImage@vips@@QEBA?AV12@PEAVVOption@2@@Z 000000018003f728     VImage.obj
 0002:0000b750       $cppxdata$?sequential@VImage@vips@@QEBA?AV12@PEAVVOption@2@@Z 000000018003f750     VImage.obj
 0002:0000b778       $cppxdata$?scale@VImage@vips@@QEBA?AV12@PEAVVOption@2@@Z 000000018003f778     VImage.obj
 0002:0000b7a0       $cppxdata$?scRGB2sRGB@VImage@vips@@QEBA?AV12@PEAVVOption@2@@Z 000000018003f7a0     VImage.obj
 0002:0000b7c8       $cppxdata$?scRGB2XYZ@VImage@vips@@QEBA?AV12@PEAVVOption@2@@Z 000000018003f7c8     VImage.obj
 0002:0000b7f0       $cppxdata$?scRGB2BW@VImage@vips@@QEBA?AV12@PEAVVOption@2@@Z 000000018003f7f0     VImage.obj
 0002:0000b818       $cppxdata$?sRGB2scRGB@VImage@vips@@QEBA?AV12@PEAVVOption@2@@Z 000000018003f818     VImage.obj
 0002:0000b840       $cppxdata$?sRGB2HSV@VImage@vips@@QEBA?AV12@PEAVVOption@2@@Z 000000018003f840     VImage.obj
 0002:0000b868       $cppxdata$?rotate@VImage@vips@@QEBA?AV12@NPEAVVOption@2@@Z 000000018003f868     VImage.obj
 0002:0000b890       $cppxdata$?rot45@VImage@vips@@QEBA?AV12@PEAVVOption@2@@Z 000000018003f890     VImage.obj
 0002:0000b8b8       $cppxdata$?resize@VImage@vips@@QEBA?AV12@NPEAVVOption@2@@Z 000000018003f8b8     VImage.obj
 0002:0000b8e0       $cppxdata$?replicate@VImage@vips@@QEBA?AV12@HHPEAVVOption@2@@Z 000000018003f8e0     VImage.obj
 0002:0000b908       $cppxdata$?remainder_const@VImage@vips@@QEBA?AV12@V?$vector@NV?$allocator@N@std@@@std@@PEAVVOption@2@@Z 000000018003f908     VImage.obj
 0002:0000b930       $cppxdata$?remainder@VImage@vips@@QEBA?AV12@V12@PEAVVOption@2@@Z 000000018003f930     VImage.obj
 0002:0000b958       $cppxdata$?relational_const@VImage@vips@@QEBA?AV12@W4VipsOperationRelational@@V?$vector@NV?$allocator@N@std@@@std@@PEAVVOption@2@@Z 000000018003f958     VImage.obj
 0002:0000b980       $cppxdata$?relational@VImage@vips@@QEBA?AV12@V12@W4VipsOperationRelational@@PEAVVOption@2@@Z 000000018003f980     VImage.obj
 0002:0000b9a8       $cppxdata$?reducev@VImage@vips@@QEBA?AV12@NPEAVVOption@2@@Z 000000018003f9a8     VImage.obj
 0002:0000b9d0       $cppxdata$?reduceh@VImage@vips@@QEBA?AV12@NPEAVVOption@2@@Z 000000018003f9d0     VImage.obj
 0002:0000b9f8       $cppxdata$?reduce@VImage@vips@@QEBA?AV12@NNPEAVVOption@2@@Z 000000018003f9f8     VImage.obj
 0002:0000ba20       $cppxdata$?recomb@VImage@vips@@QEBA?AV12@V12@PEAVVOption@2@@Z 000000018003fa20     VImage.obj
 0002:0000ba48       $cppxdata$?rawsave_fd@VImage@vips@@QEBAXHPEAVVOption@2@@Z 000000018003fa48     VImage.obj
 0002:0000ba70       $cppxdata$?rawsave@VImage@vips@@QEBAXPEBDPEAVVOption@2@@Z 000000018003fa70     VImage.obj
 0002:0000ba98       $cppxdata$?rawload@VImage@vips@@SA?AV12@PEBDHHHPEAVVOption@2@@Z 000000018003fa98     VImage.obj
 0002:0000bac0       $cppxdata$?radsave_buffer@VImage@vips@@QEBAPEAU_VipsBlob@@PEAVVOption@2@@Z 000000018003fac0     VImage.obj
 0002:0000bae8       $cppxdata$?radsave@VImage@vips@@QEBAXPEBDPEAVVOption@2@@Z 000000018003fae8     VImage.obj
 0002:0000bb10       $cppxdata$?radload@VImage@vips@@SA?AV12@PEBDPEAVVOption@2@@Z 000000018003fb10     VImage.obj
 0002:0000bb38       $cppxdata$?rad2float@VImage@vips@@QEBA?AV12@PEAVVOption@2@@Z 000000018003fb38     VImage.obj
 0002:0000bb60       $cppxdata$?quadratic@VImage@vips@@QEBA?AV12@V12@PEAVVOption@2@@Z 000000018003fb60     VImage.obj
 0002:0000bb88       $cppxdata$?project@VImage@vips@@QEBA?AV12@PEAV12@PEAVVOption@2@@Z 000000018003fb88     VImage.obj
 0002:0000bbb0       $cppxdata$?profile_load@VImage@vips@@SAPEAU_VipsBlob@@PEBDPEAVVOption@2@@Z 000000018003fbb0     VImage.obj
 0002:0000bbd8       $cppxdata$?profile@VImage@vips@@QEBA?AV12@PEAV12@PEAVVOption@2@@Z 000000018003fbd8     VImage.obj
 0002:0000bc00       $cppxdata$?premultiply@VImage@vips@@QEBA?AV12@PEAVVOption@2@@Z 000000018003fc00     VImage.obj
 0002:0000bc28       $cppxdata$?ppmsave@VImage@vips@@QEBAXPEBDPEAVVOption@2@@Z 000000018003fc28     VImage.obj
 0002:0000bc50       $cppxdata$?ppmload@VImage@vips@@SA?AV12@PEBDPEAVVOption@2@@Z 000000018003fc50     VImage.obj
 0002:0000bc78       $cppxdata$?pngsave_buffer@VImage@vips@@QEBAPEAU_VipsBlob@@PEAVVOption@2@@Z 000000018003fc78     VImage.obj
 0002:0000bca0       $cppxdata$?pngsave@VImage@vips@@QEBAXPEBDPEAVVOption@2@@Z 000000018003fca0     VImage.obj
 0002:0000bcc8       $cppxdata$?pngload_buffer@VImage@vips@@SA?AV12@PEAU_VipsBlob@@PEAVVOption@2@@Z 000000018003fcc8     VImage.obj
 0002:0000bcf0       $cppxdata$?pngload@VImage@vips@@SA?AV12@PEBDPEAVVOption@2@@Z 000000018003fcf0     VImage.obj
 0002:0000bd18       $cppxdata$?phasecor@VImage@vips@@QEBA?AV12@V12@PEAVVOption@2@@Z 000000018003fd18     VImage.obj
 0002:0000bd40       $cppxdata$?perlin@VImage@vips@@SA?AV12@HHPEAVVOption@2@@Z 000000018003fd40     VImage.obj
 0002:0000bd68       $cppxdata$?percent@VImage@vips@@QEBAHNPEAVVOption@2@@Z 000000018003fd68     VImage.obj
 0002:0000bd90       $cppxdata$?pdfload_buffer@VImage@vips@@SA?AV12@PEAU_VipsBlob@@PEAVVOption@2@@Z 000000018003fd90     VImage.obj
 0002:0000bdb8       $cppxdata$?pdfload@VImage@vips@@SA?AV12@PEBDPEAVVOption@2@@Z 000000018003fdb8     VImage.obj
 0002:0000bde0       $cppxdata$?openslideload@VImage@vips@@SA?AV12@PEBDPEAVVOption@2@@Z 000000018003fde0     VImage.obj
 0002:0000be08       $cppxdata$?openexrload@VImage@vips@@SA?AV12@PEBDPEAVVOption@2@@Z 000000018003fe08     VImage.obj
 0002:0000be30       $cppxdata$?niftisave@VImage@vips@@QEBAXPEBDPEAVVOption@2@@Z 000000018003fe30     VImage.obj
 0002:0000be58       $cppxdata$?niftiload@VImage@vips@@SA?AV12@PEBDPEAVVOption@2@@Z 000000018003fe58     VImage.obj
 0002:0000be80       $cppxdata$?multiply@VImage@vips@@QEBA?AV12@V12@PEAVVOption@2@@Z 000000018003fe80     VImage.obj
 0002:0000bea8       $cppxdata$?msb@VImage@vips@@QEBA?AV12@PEAVVOption@2@@Z 000000018003fea8     VImage.obj
 0002:0000bed0       $cppxdata$?mosaic1@VImage@vips@@QEBA?AV12@V12@W4VipsDirection@@HHHHHHHHPEAVVOption@2@@Z 000000018003fed0     VImage.obj
 0002:0000bef8       $cppxdata$?mosaic@VImage@vips@@QEBA?AV12@V12@W4VipsDirection@@HHHHPEAVVOption@2@@Z 000000018003fef8     VImage.obj
 0002:0000bf20       $cppxdata$?min@VImage@vips@@QEBANPEAVVOption@2@@Z 000000018003ff20     VImage.obj
 0002:0000bf48       $cppxdata$?merge@VImage@vips@@QEBA?AV12@V12@W4VipsDirection@@HHPEAVVOption@2@@Z 000000018003ff48     VImage.obj
 0002:0000bf70       $cppxdata$?measure@VImage@vips@@QEBA?AV12@HHPEAVVOption@2@@Z 000000018003ff70     VImage.obj
 0002:0000bf98       $cppxdata$?max@VImage@vips@@QEBANPEAVVOption@2@@Z 000000018003ff98     VImage.obj
 0002:0000bfc0       $cppxdata$?matrixsave@VImage@vips@@QEBAXPEBDPEAVVOption@2@@Z 000000018003ffc0     VImage.obj
 0002:0000bfe8       $cppxdata$?matrixprint@VImage@vips@@QEBAXPEAVVOption@2@@Z 000000018003ffe8     VImage.obj
 0002:0000c010       $cppxdata$?matrixload@VImage@vips@@SA?AV12@PEBDPEAVVOption@2@@Z 0000000180040010     VImage.obj
 0002:0000c038       $cppxdata$?matload@VImage@vips@@SA?AV12@PEBDPEAVVOption@2@@Z 0000000180040038     VImage.obj
 0002:0000c060       $cppxdata$?match@VImage@vips@@QEBA?AV12@V12@HHHHHHHHPEAVVOption@2@@Z 0000000180040060     VImage.obj
 0002:0000c088       $cppxdata$?mask_ideal_ring@VImage@vips@@SA?AV12@HHNNPEAVVOption@2@@Z 0000000180040088     VImage.obj
 0002:0000c0b0       $cppxdata$?mask_ideal_band@VImage@vips@@SA?AV12@HHNNNPEAVVOption@2@@Z 00000001800400b0     VImage.obj
 0002:0000c0d8       $cppxdata$?mask_ideal@VImage@vips@@SA?AV12@HHNPEAVVOption@2@@Z 00000001800400d8     VImage.obj
 0002:0000c100       $cppxdata$?mask_gaussian_ring@VImage@vips@@SA?AV12@HHNNNPEAVVOption@2@@Z 0000000180040100     VImage.obj
 0002:0000c128       $cppxdata$?mask_gaussian_band@VImage@vips@@SA?AV12@HHNNNNPEAVVOption@2@@Z 0000000180040128     VImage.obj
 0002:0000c150       $cppxdata$?mask_gaussian@VImage@vips@@SA?AV12@HHNNPEAVVOption@2@@Z 0000000180040150     VImage.obj
 0002:0000c178       $cppxdata$?mask_fractal@VImage@vips@@SA?AV12@HHNPEAVVOption@2@@Z 0000000180040178     VImage.obj
 0002:0000c1a0       $cppxdata$?mask_butterworth_ring@VImage@vips@@SA?AV12@HHNNNNPEAVVOption@2@@Z 00000001800401a0     VImage.obj
 0002:0000c1c8       $cppxdata$?mask_butterworth_band@VImage@vips@@SA?AV12@HHNNNNNPEAVVOption@2@@Z 00000001800401c8     VImage.obj
 0002:0000c1f0       $cppxdata$?mask_butterworth@VImage@vips@@SA?AV12@HHNNNPEAVVOption@2@@Z 00000001800401f0     VImage.obj
 0002:0000c218       $cppxdata$?maplut@VImage@vips@@QEBA?AV12@V12@PEAVVOption@2@@Z 0000000180040218     VImage.obj
 0002:0000c240       $cppxdata$?mapim@VImage@vips@@QEBA?AV12@V12@PEAVVOption@2@@Z 0000000180040240     VImage.obj
 0002:0000c268       $cppxdata$?magicksave_buffer@VImage@vips@@QEBAPEAU_VipsBlob@@PEAVVOption@2@@Z 0000000180040268     VImage.obj
 0002:0000c290       $cppxdata$?magicksave@VImage@vips@@QEBAXPEBDPEAVVOption@2@@Z 0000000180040290     VImage.obj
 0002:0000c2b8       $cppxdata$?magickload_buffer@VImage@vips@@SA?AV12@PEAU_VipsBlob@@PEAVVOption@2@@Z 00000001800402b8     VImage.obj
 0002:0000c2e0       $cppxdata$?magickload@VImage@vips@@SA?AV12@PEBDPEAVVOption@2@@Z 00000001800402e0     VImage.obj
 0002:0000c308       $cppxdata$?logmat@VImage@vips@@SA?AV12@NNPEAVVOption@2@@Z 0000000180040308     VImage.obj
 0002:0000c330       $cppxdata$?linecache@VImage@vips@@QEBA?AV12@PEAVVOption@2@@Z 0000000180040330     VImage.obj
 0002:0000c358       $cppxdata$?labelregions@VImage@vips@@QEBA?AV12@PEAVVOption@2@@Z 0000000180040358     VImage.obj
 0002:0000c380       $cppxdata$?jpegsave_mime@VImage@vips@@QEBAXPEAVVOption@2@@Z 0000000180040380     VImage.obj
 0002:0000c3a8       $cppxdata$?jpegsave_buffer@VImage@vips@@QEBAPEAU_VipsBlob@@PEAVVOption@2@@Z 00000001800403a8     VImage.obj
 0002:0000c3d0       $cppxdata$?jpegsave@VImage@vips@@QEBAXPEBDPEAVVOption@2@@Z 00000001800403d0     VImage.obj
 0002:0000c3f8       $cppxdata$?jpegload_buffer@VImage@vips@@SA?AV12@PEAU_VipsBlob@@PEAVVOption@2@@Z 00000001800403f8     VImage.obj
 0002:0000c420       $cppxdata$?jpegload@VImage@vips@@SA?AV12@PEBDPEAVVOption@2@@Z 0000000180040420     VImage.obj
 0002:0000c448       $cppxdata$?join@VImage@vips@@QEBA?AV12@V12@W4VipsDirection@@PEAVVOption@2@@Z 0000000180040448     VImage.obj
 0002:0000c470       $cppxdata$?invfft@VImage@vips@@QEBA?AV12@PEAVVOption@2@@Z 0000000180040470     VImage.obj
 0002:0000c498       $cppxdata$?invertlut@VImage@vips@@QEBA?AV12@PEAVVOption@2@@Z 0000000180040498     VImage.obj
 0002:0000c4c0       $cppxdata$?invert@VImage@vips@@QEBA?AV12@PEAVVOption@2@@Z 00000001800404c0     VImage.obj
 0002:0000c4e8       $cppxdata$?insert@VImage@vips@@QEBA?AV12@V12@HHPEAVVOption@2@@Z 00000001800404e8     VImage.obj
 0002:0000c510       $cppxdata$?identity@VImage@vips@@SA?AV12@PEAVVOption@2@@Z 0000000180040510     VImage.obj
 0002:0000c538       $cppxdata$?icc_transform@VImage@vips@@QEBA?AV12@PEBDPEAVVOption@2@@Z 0000000180040538     VImage.obj
 0002:0000c560       $cppxdata$?icc_import@VImage@vips@@QEBA?AV12@PEAVVOption@2@@Z 0000000180040560     VImage.obj
 0002:0000c588       $cppxdata$?icc_export@VImage@vips@@QEBA?AV12@PEAVVOption@2@@Z 0000000180040588     VImage.obj
 0002:0000c5b0       $cppxdata$?hough_line@VImage@vips@@QEBA?AV12@PEAVVOption@2@@Z 00000001800405b0     VImage.obj
 0002:0000c5d8       $cppxdata$?hough_circle@VImage@vips@@QEBA?AV12@PEAVVOption@2@@Z 00000001800405d8     VImage.obj
 0002:0000c600       $cppxdata$?hist_plot@VImage@vips@@QEBA?AV12@PEAVVOption@2@@Z 0000000180040600     VImage.obj
 0002:0000c628       $cppxdata$?hist_norm@VImage@vips@@QEBA?AV12@PEAVVOption@2@@Z 0000000180040628     VImage.obj
 0002:0000c650       $cppxdata$?hist_match@VImage@vips@@QEBA?AV12@V12@PEAVVOption@2@@Z 0000000180040650     VImage.obj
 0002:0000c678       $cppxdata$?hist_local@VImage@vips@@QEBA?AV12@HHPEAVVOption@2@@Z 0000000180040678     VImage.obj
 0002:0000c6a0       $cppxdata$?hist_ismonotonic@VImage@vips@@QEBA_NPEAVVOption@2@@Z 00000001800406a0     VImage.obj
 0002:0000c6c8       $cppxdata$?hist_find_ndim@VImage@vips@@QEBA?AV12@PEAVVOption@2@@Z 00000001800406c8     VImage.obj
 0002:0000c6f0       $cppxdata$?hist_find_indexed@VImage@vips@@QEBA?AV12@V12@PEAVVOption@2@@Z 00000001800406f0     VImage.obj
 0002:0000c718       $cppxdata$?hist_find@VImage@vips@@QEBA?AV12@PEAVVOption@2@@Z 0000000180040718     VImage.obj
 0002:0000c740       $cppxdata$?hist_equal@VImage@vips@@QEBA?AV12@PEAVVOption@2@@Z 0000000180040740     VImage.obj
 0002:0000c768       $cppxdata$?hist_entropy@VImage@vips@@QEBANPEAVVOption@2@@Z 0000000180040768     VImage.obj
 0002:0000c790       $cppxdata$?hist_cum@VImage@vips@@QEBA?AV12@PEAVVOption@2@@Z 0000000180040790     VImage.obj
 0002:0000c7b8       $cppxdata$?heifsave_buffer@VImage@vips@@QEBAPEAU_VipsBlob@@PEAVVOption@2@@Z 00000001800407b8     VImage.obj
 0002:0000c7e0       $cppxdata$?heifsave@VImage@vips@@QEBAXPEBDPEAVVOption@2@@Z 00000001800407e0     VImage.obj
 0002:0000c808       $cppxdata$?heifload_buffer@VImage@vips@@SA?AV12@PEAU_VipsBlob@@PEAVVOption@2@@Z 0000000180040808     VImage.obj
 0002:0000c830       $cppxdata$?heifload@VImage@vips@@SA?AV12@PEBDPEAVVOption@2@@Z 0000000180040830     VImage.obj
 0002:0000c858       $cppxdata$?grid@VImage@vips@@QEBA?AV12@HHHPEAVVOption@2@@Z 0000000180040858     VImage.obj
 0002:0000c880       $cppxdata$?grey@VImage@vips@@SA?AV12@HHPEAVVOption@2@@Z 0000000180040880     VImage.obj
 0002:0000c8a8       $cppxdata$?gravity@VImage@vips@@QEBA?AV12@W4VipsCompassDirection@@HHPEAVVOption@2@@Z 00000001800408a8     VImage.obj
 0002:0000c8d0       $cppxdata$?globalbalance@VImage@vips@@QEBA?AV12@PEAVVOption@2@@Z 00000001800408d0     VImage.obj
 0002:0000c8f8       $cppxdata$?gifload_buffer@VImage@vips@@SA?AV12@PEAU_VipsBlob@@PEAVVOption@2@@Z 00000001800408f8     VImage.obj
 0002:0000c920       $cppxdata$?gifload@VImage@vips@@SA?AV12@PEBDPEAVVOption@2@@Z 0000000180040920     VImage.obj
 0002:0000c948       $cppxdata$?getpoint@VImage@vips@@QEBA?AV?$vector@NV?$allocator@N@std@@@std@@HHPEAVVOption@2@@Z 0000000180040948     VImage.obj
 0002:0000c970       $cppxdata$?gaussnoise@VImage@vips@@SA?AV12@HHPEAVVOption@2@@Z 0000000180040970     VImage.obj
 0002:0000c998       $cppxdata$?gaussmat@VImage@vips@@SA?AV12@NNPEAVVOption@2@@Z 0000000180040998     VImage.obj
 0002:0000c9c0       $cppxdata$?gaussblur@VImage@vips@@QEBA?AV12@NPEAVVOption@2@@Z 00000001800409c0     VImage.obj
 0002:0000c9e8       $cppxdata$?gamma@VImage@vips@@QEBA?AV12@PEAVVOption@2@@Z 00000001800409e8     VImage.obj
 0002:0000ca10       $cppxdata$?fwfft@VImage@vips@@QEBA?AV12@PEAVVOption@2@@Z 0000000180040a10     VImage.obj
 0002:0000ca38       $cppxdata$?freqmult@VImage@vips@@QEBA?AV12@V12@PEAVVOption@2@@Z 0000000180040a38     VImage.obj
 0002:0000ca60       $cppxdata$?fractsurf@VImage@vips@@SA?AV12@HHNPEAVVOption@2@@Z 0000000180040a60     VImage.obj
 0002:0000ca88       $cppxdata$?float2rad@VImage@vips@@QEBA?AV12@PEAVVOption@2@@Z 0000000180040a88     VImage.obj
 0002:0000cab0       $cppxdata$?flatten@VImage@vips@@QEBA?AV12@PEAVVOption@2@@Z 0000000180040ab0     VImage.obj
 0002:0000cad8       $cppxdata$?fitssave@VImage@vips@@QEBAXPEBDPEAVVOption@2@@Z 0000000180040ad8     VImage.obj
 0002:0000cb00       $cppxdata$?fitsload@VImage@vips@@SA?AV12@PEBDPEAVVOption@2@@Z 0000000180040b00     VImage.obj
 0002:0000cb28       $cppxdata$?find_trim@VImage@vips@@QEBAHPEAH00PEAVVOption@2@@Z 0000000180040b28     VImage.obj
 0002:0000cb50       $cppxdata$?fill_nearest@VImage@vips@@QEBA?AV12@PEAVVOption@2@@Z 0000000180040b50     VImage.obj
 0002:0000cb78       $cppxdata$?fastcor@VImage@vips@@QEBA?AV12@V12@PEAVVOption@2@@Z 0000000180040b78     VImage.obj
 0002:0000cba0       $cppxdata$?falsecolour@VImage@vips@@QEBA?AV12@PEAVVOption@2@@Z 0000000180040ba0     VImage.obj
 0002:0000cbc8       $cppxdata$?eye@VImage@vips@@SA?AV12@HHPEAVVOption@2@@Z 0000000180040bc8     VImage.obj
 0002:0000cbf0       $cppxdata$?extract_band@VImage@vips@@QEBA?AV12@HPEAVVOption@2@@Z 0000000180040bf0     VImage.obj
 0002:0000cc18       $cppxdata$?extract_area@VImage@vips@@QEBA?AV12@HHHHPEAVVOption@2@@Z 0000000180040c18     VImage.obj
 0002:0000cc40       $cppxdata$?embed@VImage@vips@@QEBA?AV12@HHHHPEAVVOption@2@@Z 0000000180040c40     VImage.obj
 0002:0000cc68       $cppxdata$?dzsave_buffer@VImage@vips@@QEBAPEAU_VipsBlob@@PEAVVOption@2@@Z 0000000180040c68     VImage.obj
 0002:0000cc90       $cppxdata$?dzsave@VImage@vips@@QEBAXPEBDPEAVVOption@2@@Z 0000000180040c90     VImage.obj
 0002:0000ccb8       $cppxdata$?draw_smudge@VImage@vips@@QEBAXHHHHPEAVVOption@2@@Z 0000000180040cb8     VImage.obj
 0002:0000cce0       $cppxdata$?draw_rect@VImage@vips@@QEBAXV?$vector@NV?$allocator@N@std@@@std@@HHHHPEAVVOption@2@@Z 0000000180040ce0     VImage.obj
 0002:0000cd08       $cppxdata$?draw_mask@VImage@vips@@QEBAXV?$vector@NV?$allocator@N@std@@@std@@V12@HHPEAVVOption@2@@Z 0000000180040d08     VImage.obj
 0002:0000cd30       $cppxdata$?draw_line@VImage@vips@@QEBAXV?$vector@NV?$allocator@N@std@@@std@@HHHHPEAVVOption@2@@Z 0000000180040d30     VImage.obj
 0002:0000cd58       $cppxdata$?draw_image@VImage@vips@@QEBAXV12@HHPEAVVOption@2@@Z 0000000180040d58     VImage.obj
 0002:0000cd80       $cppxdata$?draw_flood@VImage@vips@@QEBAXV?$vector@NV?$allocator@N@std@@@std@@HHPEAVVOption@2@@Z 0000000180040d80     VImage.obj
 0002:0000cda8       $cppxdata$?draw_circle@VImage@vips@@QEBAXV?$vector@NV?$allocator@N@std@@@std@@HHHPEAVVOption@2@@Z 0000000180040da8     VImage.obj
 0002:0000cdd0       $cppxdata$?divide@VImage@vips@@QEBA?AV12@V12@PEAVVOption@2@@Z 0000000180040dd0     VImage.obj
 0002:0000cdf8       $cppxdata$?deviate@VImage@vips@@QEBANPEAVVOption@2@@Z 0000000180040df8     VImage.obj
 0002:0000ce20       $cppxdata$?dECMC@VImage@vips@@QEBA?AV12@V12@PEAVVOption@2@@Z 0000000180040e20     VImage.obj
 0002:0000ce48       $cppxdata$?dE76@VImage@vips@@QEBA?AV12@V12@PEAVVOption@2@@Z 0000000180040e48     VImage.obj
 0002:0000ce70       $cppxdata$?dE00@VImage@vips@@QEBA?AV12@V12@PEAVVOption@2@@Z 0000000180040e70     VImage.obj
 0002:0000ce98       $cppxdata$?csvsave@VImage@vips@@QEBAXPEBDPEAVVOption@2@@Z 0000000180040e98     VImage.obj
 0002:0000cec0       $cppxdata$?csvload@VImage@vips@@SA?AV12@PEBDPEAVVOption@2@@Z 0000000180040ec0     VImage.obj
 0002:0000cee8       $cppxdata$?crop@VImage@vips@@QEBA?AV12@HHHHPEAVVOption@2@@Z 0000000180040ee8     VImage.obj
 0002:0000cf10       $cppxdata$?countlines@VImage@vips@@QEBANW4VipsDirection@@PEAVVOption@2@@Z 0000000180040f10     VImage.obj
 0002:0000cf38       $cppxdata$?copy@VImage@vips@@QEBA?AV12@PEAVVOption@2@@Z 0000000180040f38     VImage.obj
 0002:0000cf60       $cppxdata$?convsep@VImage@vips@@QEBA?AV12@V12@PEAVVOption@2@@Z 0000000180040f60     VImage.obj
 0002:0000cf88       $cppxdata$?convi@VImage@vips@@QEBA?AV12@V12@PEAVVOption@2@@Z 0000000180040f88     VImage.obj
 0002:0000cfb0       $cppxdata$?convf@VImage@vips@@QEBA?AV12@V12@PEAVVOption@2@@Z 0000000180040fb0     VImage.obj
 0002:0000cfd8       $cppxdata$?convasep@VImage@vips@@QEBA?AV12@V12@PEAVVOption@2@@Z 0000000180040fd8     VImage.obj
 0002:0000d000       $cppxdata$?conva@VImage@vips@@QEBA?AV12@V12@PEAVVOption@2@@Z 0000000180041000     VImage.obj
 0002:0000d028       $cppxdata$?conv@VImage@vips@@QEBA?AV12@V12@PEAVVOption@2@@Z 0000000180041028     VImage.obj
 0002:0000d050       $cppxdata$?composite2@VImage@vips@@QEBA?AV12@V12@W4VipsBlendMode@@PEAVVOption@2@@Z 0000000180041050     VImage.obj
 0002:0000d078       $cppxdata$?composite@VImage@vips@@SA?AV12@V?$vector@VVImage@vips@@V?$allocator@VVImage@vips@@@std@@@std@@V?$vector@HV?$allocator@H@std@@@4@PEAVVOption@2@@Z 0000000180041078     VImage.obj
 0002:0000d0a0       $cppxdata$?complexform@VImage@vips@@QEBA?AV12@V12@PEAVVOption@2@@Z 00000001800410a0     VImage.obj
 0002:0000d0c8       $cppxdata$?complex2@VImage@vips@@QEBA?AV12@V12@W4VipsOperationComplex2@@PEAVVOption@2@@Z 00000001800410c8     VImage.obj
 0002:0000d0f0       $cppxdata$?compass@VImage@vips@@QEBA?AV12@V12@PEAVVOption@2@@Z 00000001800410f0     VImage.obj
 0002:0000d118       $cppxdata$?colourspace@VImage@vips@@QEBA?AV12@W4VipsInterpretation@@PEAVVOption@2@@Z 0000000180041118     VImage.obj
 0002:0000d140       $cppxdata$?cast@VImage@vips@@QEBA?AV12@W4VipsBandFormat@@PEAVVOption@2@@Z 0000000180041140     VImage.obj
 0002:0000d168       $cppxdata$?canny@VImage@vips@@QEBA?AV12@PEAVVOption@2@@Z 0000000180041168     VImage.obj
 0002:0000d190       $cppxdata$?cache@VImage@vips@@QEBA?AV12@PEAVVOption@2@@Z 0000000180041190     VImage.obj
 0002:0000d1b8       $cppxdata$?byteswap@VImage@vips@@QEBA?AV12@PEAVVOption@2@@Z 00000001800411b8     VImage.obj
 0002:0000d1e0       $cppxdata$?buildlut@VImage@vips@@QEBA?AV12@PEAVVOption@2@@Z 00000001800411e0     VImage.obj
 0002:0000d208       $cppxdata$?boolean_const@VImage@vips@@QEBA?AV12@W4VipsOperationBoolean@@V?$vector@NV?$allocator@N@std@@@std@@PEAVVOption@2@@Z 0000000180041208     VImage.obj
 0002:0000d230       $cppxdata$?boolean@VImage@vips@@QEBA?AV12@V12@W4VipsOperationBoolean@@PEAVVOption@2@@Z 0000000180041230     VImage.obj
 0002:0000d258       $cppxdata$?black@VImage@vips@@SA?AV12@HHPEAVVOption@2@@Z 0000000180041258     VImage.obj
 0002:0000d280       $cppxdata$?bandunfold@VImage@vips@@QEBA?AV12@PEAVVOption@2@@Z 0000000180041280     VImage.obj
 0002:0000d2a8       $cppxdata$?bandrank@VImage@vips@@SA?AV12@V?$vector@VVImage@vips@@V?$allocator@VVImage@vips@@@std@@@std@@PEAVVOption@2@@Z 00000001800412a8     VImage.obj
 0002:0000d2d0       $cppxdata$?bandmean@VImage@vips@@QEBA?AV12@PEAVVOption@2@@Z 00000001800412d0     VImage.obj
 0002:0000d2f8       $cppxdata$?bandjoin@VImage@vips@@SA?AV12@V?$vector@VVImage@vips@@V?$allocator@VVImage@vips@@@std@@@std@@PEAVVOption@2@@Z 00000001800412f8     VImage.obj
 0002:0000d320       $cppxdata$?bandfold@VImage@vips@@QEBA?AV12@PEAVVOption@2@@Z 0000000180041320     VImage.obj
 0002:0000d348       $cppxdata$?avg@VImage@vips@@QEBANPEAVVOption@2@@Z 0000000180041348     VImage.obj
 0002:0000d370       $cppxdata$?autorot@VImage@vips@@QEBA?AV12@PEAVVOption@2@@Z 0000000180041370     VImage.obj
 0002:0000d398       $cppxdata$?arrayjoin@VImage@vips@@SA?AV12@V?$vector@VVImage@vips@@V?$allocator@VVImage@vips@@@std@@@std@@PEAVVOption@2@@Z 0000000180041398     VImage.obj
 0002:0000d3c0       $cppxdata$?analyzeload@VImage@vips@@SA?AV12@PEBDPEAVVOption@2@@Z 00000001800413c0     VImage.obj
 0002:0000d3e8       $cppxdata$?affine@VImage@vips@@QEBA?AV12@V?$vector@NV?$allocator@N@std@@@std@@PEAVVOption@2@@Z 00000001800413e8     VImage.obj
 0002:0000d410       $cppxdata$?add@VImage@vips@@QEBA?AV12@V12@PEAVVOption@2@@Z 0000000180041410     VImage.obj
 0002:0000d438       $cppxdata$?abs@VImage@vips@@QEBA?AV12@PEAVVOption@2@@Z 0000000180041438     VImage.obj
 0002:0000d460       $cppxdata$?Yxy2XYZ@VImage@vips@@QEBA?AV12@PEAVVOption@2@@Z 0000000180041460     VImage.obj
 0002:0000d488       $cppxdata$?XYZ2scRGB@VImage@vips@@QEBA?AV12@PEAVVOption@2@@Z 0000000180041488     VImage.obj
 0002:0000d4b0       $cppxdata$?XYZ2Yxy@VImage@vips@@QEBA?AV12@PEAVVOption@2@@Z 00000001800414b0     VImage.obj
 0002:0000d4d8       $cppxdata$?XYZ2Lab@VImage@vips@@QEBA?AV12@PEAVVOption@2@@Z 00000001800414d8     VImage.obj
 0002:0000d500       $cppxdata$?XYZ2CMYK@VImage@vips@@QEBA?AV12@PEAVVOption@2@@Z 0000000180041500     VImage.obj
 0002:0000d528       $cppxdata$?LabS2LabQ@VImage@vips@@QEBA?AV12@PEAVVOption@2@@Z 0000000180041528     VImage.obj
 0002:0000d550       $cppxdata$?LabS2Lab@VImage@vips@@QEBA?AV12@PEAVVOption@2@@Z 0000000180041550     VImage.obj
 0002:0000d578       $cppxdata$?LabQ2sRGB@VImage@vips@@QEBA?AV12@PEAVVOption@2@@Z 0000000180041578     VImage.obj
 0002:0000d5a0       $cppxdata$?LabQ2LabS@VImage@vips@@QEBA?AV12@PEAVVOption@2@@Z 00000001800415a0     VImage.obj
 0002:0000d5c8       $cppxdata$?LabQ2Lab@VImage@vips@@QEBA?AV12@PEAVVOption@2@@Z 00000001800415c8     VImage.obj
 0002:0000d5f0       $cppxdata$?Lab2XYZ@VImage@vips@@QEBA?AV12@PEAVVOption@2@@Z 00000001800415f0     VImage.obj
 0002:0000d618       $cppxdata$?Lab2LabS@VImage@vips@@QEBA?AV12@PEAVVOption@2@@Z 0000000180041618     VImage.obj
 0002:0000d640       $cppxdata$?Lab2LabQ@VImage@vips@@QEBA?AV12@PEAVVOption@2@@Z 0000000180041640     VImage.obj
 0002:0000d668       $cppxdata$?Lab2LCh@VImage@vips@@QEBA?AV12@PEAVVOption@2@@Z 0000000180041668     VImage.obj
 0002:0000d690       $cppxdata$?LCh2Lab@VImage@vips@@QEBA?AV12@PEAVVOption@2@@Z 0000000180041690     VImage.obj
 0002:0000d6b8       $cppxdata$?LCh2CMC@VImage@vips@@QEBA?AV12@PEAVVOption@2@@Z 00000001800416b8     VImage.obj
 0002:0000d6e0       $cppxdata$?HSV2sRGB@VImage@vips@@QEBA?AV12@PEAVVOption@2@@Z 00000001800416e0     VImage.obj
 0002:0000d708       $cppxdata$?CMYK2XYZ@VImage@vips@@QEBA?AV12@PEAVVOption@2@@Z 0000000180041708     VImage.obj
 0002:0000d730       $cppxdata$?CMC2LCh@VImage@vips@@QEBA?AV12@PEAVVOption@2@@Z 0000000180041730     VImage.obj
 0002:0000d758       $cppxdata$?write_to_buffer@VImage@vips@@QEBAXPEBDPEAPEAXPEA_KPEAVVOption@2@@Z 0000000180041758     VImage.obj
 0002:0000d780       $cppxdata$?write_to_file@VImage@vips@@QEBAXPEBDPEAVVOption@2@@Z 0000000180041780     VImage.obj
 0002:0000d7a8       $cppxdata$?write@VImage@vips@@QEBA?AV12@V12@@Z 00000001800417a8     VImage.obj
 0002:0000d7d0       $cppxdata$?new_from_buffer@VImage@vips@@SA?AV12@PEBX_KPEBDPEAVVOption@2@@Z 00000001800417d0     VImage.obj
 0002:0000d7f8       $cppxdata$?new_from_file@VImage@vips@@SA?AV12@PEBDPEAVVOption@2@@Z 00000001800417f8     VImage.obj
 0002:0000d820       $cppxdata$?set@VOption@vips@@QEAAPEAV12@PEBDPEAPEAU_VipsBlob@@@Z 0000000180041820     VImage.obj
 0002:0000d848       $cppxdata$?set@VOption@vips@@QEAAPEAV12@PEBDPEAV?$vector@NV?$allocator@N@std@@@std@@@Z 0000000180041848     VImage.obj
 0002:0000d870       $cppxdata$?set@VOption@vips@@QEAAPEAV12@PEBDPEAVVImage@2@@Z 0000000180041870     VImage.obj
 0002:0000d898       $cppxdata$?set@VOption@vips@@QEAAPEAV12@PEBDPEAN@Z 0000000180041898     VImage.obj
 0002:0000d8c0       $cppxdata$?set@VOption@vips@@QEAAPEAV12@PEBDPEAH@Z 00000001800418c0     VImage.obj
 0002:0000d8e8       $cppxdata$?set@VOption@vips@@QEAAPEAV12@PEBDPEA_N@Z 00000001800418e8     VImage.obj
 0002:0000d910       $cppxdata$?set@VOption@vips@@QEAAPEAV12@PEBDPEAU_VipsBlob@@@Z 0000000180041910     VImage.obj
 0002:0000d938       $cppxdata$?set@VOption@vips@@QEAAPEAV12@PEBDV?$vector@VVImage@vips@@V?$allocator@VVImage@vips@@@std@@@std@@@Z 0000000180041938     VImage.obj
 0002:0000d960       $cppxdata$?set@VOption@vips@@QEAAPEAV12@PEBDV?$vector@HV?$allocator@H@std@@@std@@@Z 0000000180041960     VImage.obj
 0002:0000d988       $cppxdata$?set@VOption@vips@@QEAAPEAV12@PEBDV?$vector@NV?$allocator@N@std@@@std@@@Z 0000000180041988     VImage.obj
 0002:0000d9b0       $cppxdata$?set@VOption@vips@@QEAAPEAV12@PEBDVVImage@2@@Z 00000001800419b0     VImage.obj
 0002:0000d9d8       $cppxdata$?set@VOption@vips@@QEAAPEAV12@PEBD0@Z 00000001800419d8     VImage.obj
 0002:0000da00       $cppxdata$?set@VOption@vips@@QEAAPEAV12@PEBDN@Z 0000000180041a00     VImage.obj
 0002:0000da28       $cppxdata$?set@VOption@vips@@QEAAPEAV12@PEBDH@Z 0000000180041a28     VImage.obj
 0002:0000da50       $cppxdata$?set@VOption@vips@@QEAAPEAV12@PEBD_N@Z 0000000180041a50     VImage.obj
 0002:0000da78       $cppxdata$?invert@vips@@YA?AV?$vector@NV?$allocator@N@std@@@std@@V23@@Z 0000000180041a78     VImage.obj
 0002:0000daa0       $cppxdata$?negate@vips@@YA?AV?$vector@NV?$allocator@N@std@@@std@@V23@@Z 0000000180041aa0     VImage.obj
 0002:0000dac8       $cppxdata$?round@VImage@vips@@QEBA?AV12@W4VipsOperationRound@@PEAVVOption@2@@Z 0000000180041ac8     VImage.obj
 0002:0000daf0       $cppxdata$?rot@VImage@vips@@QEBA?AV12@W4VipsAngle@@PEAVVOption@2@@Z 0000000180041af0     VImage.obj
 0002:0000db18       $cppxdata$?rank@VImage@vips@@QEBA?AV12@HHHPEAVVOption@2@@Z 0000000180041b18     VImage.obj
 0002:0000db40       $cppxdata$?morph@VImage@vips@@QEBA?AV12@V12@W4VipsOperationMorphology@@PEAVVOption@2@@Z 0000000180041b40     VImage.obj
 0002:0000db68       $cppxdata$?math2_const@VImage@vips@@QEBA?AV12@W4VipsOperationMath2@@V?$vector@NV?$allocator@N@std@@@std@@PEAVVOption@2@@Z 0000000180041b68     VImage.obj
 0002:0000db90       $cppxdata$?math2@VImage@vips@@QEBA?AV12@V12@W4VipsOperationMath2@@PEAVVOption@2@@Z 0000000180041b90     VImage.obj
 0002:0000dbb8       $cppxdata$?math@VImage@vips@@QEBA?AV12@W4VipsOperationMath@@PEAVVOption@2@@Z 0000000180041bb8     VImage.obj
 0002:0000dbe0       $cppxdata$?linear@VImage@vips@@QEBA?AV12@V?$vector@NV?$allocator@N@std@@@std@@0PEAVVOption@2@@Z 0000000180041be0     VImage.obj
 0002:0000dc08       $cppxdata$?ifthenelse@VImage@vips@@QEBA?AV12@V12@0PEAVVOption@2@@Z 0000000180041c08     VImage.obj
 0002:0000dc30       $cppxdata$?flip@VImage@vips@@QEBA?AV12@W4VipsDirection@@PEAVVOption@2@@Z 0000000180041c30     VImage.obj
 0002:0000dc58       $cppxdata$?complexget@VImage@vips@@QEBA?AV12@W4VipsOperationComplexget@@PEAVVOption@2@@Z 0000000180041c58     VImage.obj
 0002:0000dc80       $cppxdata$?complex@VImage@vips@@QEBA?AV12@W4VipsOperationComplex@@PEAVVOption@2@@Z 0000000180041c80     VImage.obj
 0002:0000dca8       $cppxdata$?bandjoin_const@VImage@vips@@QEBA?AV12@V?$vector@NV?$allocator@N@std@@@std@@PEAVVOption@2@@Z 0000000180041ca8     VImage.obj
 0002:0000dcd0       $cppxdata$?bandbool@VImage@vips@@QEBA?AV12@W4VipsOperationBoolean@@PEAVVOption@2@@Z 0000000180041cd0     VImage.obj
 0002:0000e730       $unwind$??1VImage@vips@@QEAA@XZ 0000000180042730     VError.obj
 0002:0000e730       $unwind$?has_alpha@VImage@vips@@QEBA_NXZ 0000000180042730     VError.obj
 0002:0000e730       $unwind$?yoffset@VImage@vips@@QEBAHXZ 0000000180042730     VError.obj
 0002:0000e730       $unwind$??0failure@ios_base@std@@QEAA@PEBDAEBVerror_code@2@@Z 0000000180042730     VError.obj
 0002:0000e730       $unwind$?new_from_buffer@VImage@vips@@SA?AV12@AEBV?$basic_string@DU?$char_traits@D@std@@V?$allocator@D@2@@std@@PEBDPEAVVOption@2@@Z 0000000180042730     VImage.obj
 0002:0000e730       $unwind$?xoffset@VImage@vips@@QEBAHXZ 0000000180042730     VError.obj
 0002:0000e730       $unwind$?yres@VImage@vips@@QEBANXZ 0000000180042730     VError.obj
 0002:0000e730       $unwind$?xres@VImage@vips@@QEBANXZ 0000000180042730     VError.obj
 0002:0000e730       $unwind$??0length_error@std@@QEAA@PEBD@Z 0000000180042730     libcpmt:xthrow.obj
 0002:0000e730       $unwind$?_Raise@exception@stdext@@QEBAXXZ 0000000180042730     VError.obj
 0002:0000e730       $unwind$?guess_interpretation@VImage@vips@@QEBA?AW4VipsInterpretation@@XZ 0000000180042730     VError.obj
 0002:0000e730       $unwind$?bands@VImage@vips@@QEBAHXZ 0000000180042730     VError.obj
 0002:0000e730       $unwind$?interpretation@VImage@vips@@QEBA?AW4VipsInterpretation@@XZ 0000000180042730     VError.obj
 0002:0000e730       $unwind$?coding@VImage@vips@@QEBA?AW4VipsCoding@@XZ 0000000180042730     VError.obj
 0002:0000e730       $unwind$?get_interpolate@VInterpolate@vips@@QEBAPEAU_VipsInterpolate@@XZ 0000000180042730     VError.obj
 0002:0000e730       $unwind$?get_image@VImage@vips@@QEBAPEAU_VipsImage@@XZ 0000000180042730     VError.obj
 0002:0000e730       $unwind$?width@VImage@vips@@QEBAHXZ 0000000180042730     VError.obj
 0002:0000e730       $unwind$?format@VImage@vips@@QEBA?AW4VipsBandFormat@@XZ 0000000180042730     VError.obj
 0002:0000e730       $unwind$?height@VImage@vips@@QEBAHXZ 0000000180042730     VError.obj
 0002:0000e730       $unwind$??1VInterpolate@vips@@QEAA@XZ 0000000180042730     VError.obj
 0002:0000e730       $unwind$?median@VImage@vips@@QEBA?AV12@HPEAVVOption@2@@Z 0000000180042730     VError.obj
 0002:0000e730       $unwind$?data@VImage@vips@@QEBAPEBXXZ 0000000180042730     VError.obj
 0002:0000e730       $unwind$?filename@VImage@vips@@QEBAPEBDXZ 0000000180042730     VError.obj
 0002:0000e730       $unwind$?__mbrtowc_utf8@__crt_mbstring@@YA_KPEA_WPEBD_KPEAU_Mbstatet@@@Z 0000000180042730     libucrt:mbrtowc.obj
 0002:0000e730       $unwind$?equivalent@error_category@std@@UEBA_NHAEBVerror_condition@2@@Z 0000000180042730     VError.obj
 0002:0000e730       $unwind$??RVImage@vips@@QEBA?AV?$vector@NV?$allocator@N@std@@@std@@HH@Z 0000000180042730     VImage.obj
 0002:0000e738       $unwind$?rot90@VImage@vips@@QEBA?AV12@PEAVVOption@2@@Z 0000000180042738     VError.obj
 0002:0000e738       $unwind$?flipver@VImage@vips@@QEBA?AV12@PEAVVOption@2@@Z 0000000180042738     VError.obj
 0002:0000e738       $unwind$?fliphor@VImage@vips@@QEBA?AV12@PEAVVOption@2@@Z 0000000180042738     VError.obj
 0002:0000e738       $unwind$??4VOption@vips@@QEAAAEAV01@AEBV01@@Z 0000000180042738     VError.obj
 0002:0000e738       $unwind$??0VOption@vips@@QEAA@XZ 0000000180042738     VError.obj
 0002:0000e738       $unwind$??4VError@vips@@QEAAAEAV01@AEBV01@@Z 0000000180042738     VError.obj
 0002:0000e738       $unwind$??1VError@vips@@UEAA@XZ 0000000180042738     VError.obj
 0002:0000e738       $unwind$??_Gfailure@ios_base@std@@UEAAPEAXI@Z 0000000180042738     VError.obj
 0002:0000e738       $unwind$??_G_Iostream_error_category@std@@UEAAPEAXI@Z 0000000180042738     VError.obj
 0002:0000e738       $unwind$?message@_Iostream_error_category@std@@UEBA?AV?$basic_string@DU?$char_traits@D@std@@V?$allocator@D@2@@2@H@Z 0000000180042738     VError.obj
 0002:0000e738       $unwind$??_Gsystem_error@std@@UEAAPEAXI@Z 0000000180042738     VError.obj
 0002:0000e738       $unwind$??_G_System_error@std@@UEAAPEAXI@Z 0000000180042738     VError.obj
 0002:0000e738       $unwind$??_Gruntime_error@std@@UEAAPEAXI@Z 0000000180042738     VError.obj
 0002:0000e738       $unwind$??_Gexception@stdext@@UEAAPEAXI@Z 0000000180042738     VError.obj
 0002:0000e738       $unwind$??AVImage@vips@@QEBA?AV01@H@Z 0000000180042738     VImage.obj
 0002:0000e738       $unwind$??1?$vector@HV?$allocator@H@std@@@std@@QEAA@XZ 0000000180042738     VImage.obj
 0002:0000e738       $unwind$??1?$vector@VVImage@vips@@V?$allocator@VVImage@vips@@@std@@@std@@QEAA@XZ 0000000180042738     VImage.obj
 0002:0000e738       $unwind$?to_vector@vips@@YA?AV?$vector@NV?$allocator@N@std@@@std@@N@Z 0000000180042738     VImage.obj
 0002:0000e738       $unwind$??0exception@std@@QEAA@AEBV01@@Z 0000000180042738     libcpmt:xonce.obj
 0002:0000e738       $unwind$??0bad_alloc@std@@QEAA@AEBV01@@Z 0000000180042738     libcpmt:xthrow.obj
 0002:0000e738       $unwind$??0logic_error@std@@QEAA@AEBV01@@Z 0000000180042738     libcpmt:xthrow.obj
 0002:0000e738       $unwind$??0length_error@std@@QEAA@AEBV01@@Z 0000000180042738     libcpmt:xthrow.obj
 0002:0000e738       $unwind$?initialize_pointers@@YAHXZ 0000000180042738     libcpmt:winapisupp.obj
 0002:0000e738       $unwind$??2@YAPEAX_K@Z     0000000180042738     LIBCMT:new_scalar.obj
 0002:0000e738       $unwind$??_Gtype_info@@UEAAPEAXI@Z 0000000180042738     LIBCMT:std_type_info_static.obj
 0002:0000e738       $unwind$__raise_securityfailure 0000000180042738     LIBCMT:gs_report.obj
 0002:0000e738       $unwind$??0bad_array_new_length@std@@QEAA@AEBV01@@Z 0000000180042738     LIBCMT:throw_bad_alloc.obj
 0002:0000e738       $unwind$__scrt_release_startup_lock 0000000180042738     LIBCMT:utility.obj
 0002:0000e738       $unwind$__scrt_initialize_crt 0000000180042738     LIBCMT:utility.obj
 0002:0000e738       $unwind$__scrt_uninitialize_crt 0000000180042738     LIBCMT:utility.obj
 0002:0000e738       $unwind$__scrt_initialize_onexit_tables 0000000180042738     LIBCMT:utility.obj
 0002:0000e738       $unwind$?ExecutionInCatch@__FrameHandler3@@SA_NPEAU_xDISPATCHER_CONTEXT@@PEBU_s_FuncInfo@@@Z 0000000180042738     libvcruntime:risctrnsctrl.obj
 0002:0000e738       $unwind$_SetImageBase      0000000180042738     libvcruntime:risctrnsctrl.obj
 0002:0000e738       $unwind$_SetThrowImageBase 0000000180042738     libvcruntime:risctrnsctrl.obj
 0002:0000e738       $unwind$_CreateFrameInfo   0000000180042738     libvcruntime:risctrnsctrl.obj
 0002:0000e738       $unwind$_IsExceptionObjectToBeDestroyed 0000000180042738     libvcruntime:ehhelpers.obj
 0002:0000e738       $unwind$__std_exception_destroy 0000000180042738     libvcruntime:std_exception.obj
 0002:0000e738       $unwind$__std_type_info_destroy_list 0000000180042738     libvcruntime:std_type_info.obj
 0002:0000e738       $unwind$__vcrt_freeptd     0000000180042738     libvcruntime:per_thread_data.obj
 0002:0000e738       $unwind$?StateFromIp@__FrameHandler3@@SAHPEBU_s_FuncInfo@@PEAU_xDISPATCHER_CONTEXT@@_K@Z 0000000180042738     libvcruntime:ehstate.obj
 0002:0000e738       $unwind$?GetUnwindTryBlock@__FrameHandler3@@SAHPEA_KPEAU_xDISPATCHER_CONTEXT@@PEBU_s_FuncInfo@@@Z 0000000180042738     libvcruntime:ehstate.obj
 0002:0000e738       $unwind$??0bad_exception@std@@QEAA@AEBV01@@Z 0000000180042738     libvcruntime:frame.obj
 0002:0000e738       $unwind$?ExFilterRethrow@@YAHPEAU_EXCEPTION_POINTERS@@PEAUEHExceptionRecord@@PEAH@Z 0000000180042738     libvcruntime:frame.obj
 0002:0000e738       $unwind$__vcrt_uninitialize_locks 0000000180042738     libvcruntime:locks.obj
 0002:0000e738       $unwind$__vcrt_FlsAlloc    0000000180042738     libvcruntime:winapi_downlevel.obj
 0002:0000e738       $unwind$__vcrt_FlsFree     0000000180042738     libvcruntime:winapi_downlevel.obj
 0002:0000e738       $unwind$__vcrt_FlsGetValue 0000000180042738     libvcruntime:winapi_downlevel.obj
 0002:0000e738       $unwind$_callnewh          0000000180042738     libucrt:new_handler.obj
 0002:0000e738       $unwind$?try_cor_exit_process@@YAXI@Z 0000000180042738     libucrt:exit.obj
 0002:0000e738       $unwind$?exit_or_terminate_process@@YAXI@Z 0000000180042738     libucrt:exit.obj
 0002:0000e738       $unwind$__acrt_allocate_buffer_for_argv 0000000180042738     libucrt:argv_parsing.obj
 0002:0000e738       $unwind$initialize_pointers 0000000180042738     libucrt:initialization.obj
 0002:0000e738       $unwind$uninitialize_allocated_memory 0000000180042738     libucrt:initialization.obj
 0002:0000e738       $unwind$strcpy_s           0000000180042738     libucrt:strcpy_s.obj
 0002:0000e738       $unwind$__acrt_getptd_head 0000000180042738     libucrt:per_thread_data.obj
 0002:0000e738       $unwind$__acrt_freeptd     0000000180042738     libucrt:per_thread_data.obj
 0002:0000e738       $unwind$__acrt_update_locale_info 0000000180042738     libucrt:locale_update.obj
 0002:0000e738       $unwind$__acrt_update_multibyte_info 0000000180042738     libucrt:locale_update.obj
 0002:0000e738       $unwind$__acrt_initialize_locks 0000000180042738     libucrt:locks.obj
 0002:0000e738       $unwind$__acrt_uninitialize_locks 0000000180042738     libucrt:locks.obj
 0002:0000e738       $unwind$_malloc_base       0000000180042738     libucrt:malloc_base.obj
 0002:0000e738       $unwind$__acrt_get_process_end_policy 0000000180042738     libucrt:win_policies.obj
 0002:0000e738       $unwind$_calloc_base       0000000180042738     libucrt:calloc_base.obj
 0002:0000e738       $unwind$__acrt_uninitialize_winapi_thunks 0000000180042738     libucrt:winapi_thunks.obj
 0002:0000e738       $unwind$__acrt_FlsAlloc    0000000180042738     libucrt:winapi_thunks.obj
 0002:0000e738       $unwind$__acrt_FlsFree     0000000180042738     libucrt:winapi_thunks.obj
 0002:0000e738       $unwind$__acrt_FlsGetValue 0000000180042738     libucrt:winapi_thunks.obj
 0002:0000e738       $unwind$__acrt_AppPolicyGetProcessTerminationMethodInternal 0000000180042738     libucrt:winapi_thunks.obj
 0002:0000e738       $unwind$_fflush_nolock     0000000180042738     libucrt:fflush.obj
 0002:0000e738       $unwind$__acrt_uninitialize_stdio 0000000180042738     libucrt:_file.obj
 0002:0000e738       $unwind$__acrt_stdio_free_buffer_nolock 0000000180042738     libucrt:_freebuf.obj
 0002:0000e738       $unwind$_clrfp             0000000180042738     libucrt:fpctrl.obj
 0002:0000e738       $unwind$_set_statfp        0000000180042738     libucrt:fpctrl.obj
 0002:0000e738       $unwind$??1?$basic_string@DU?$char_traits@D@std@@V?$allocator@D@2@@std@@QEAA@XZ 0000000180042738     VError.obj
 0002:0000e738       $unwind$??1?$vector@NV?$allocator@N@std@@@std@@QEAA@XZ 0000000180042738     VError.obj
 0002:0000e738       $unwind$??4VInterpolate@vips@@QEAAAEAV01@$$QEAV01@@Z 0000000180042738     VError.obj
 0002:0000e738       $unwind$??4VInterpolate@vips@@QEAAAEAV01@AEBV01@@Z 0000000180042738     VError.obj
 0002:0000e738       $unwind$??4VImage@vips@@QEAAAEAV01@$$QEAV01@@Z 0000000180042738     VError.obj
 0002:0000e738       $unwind$??4VImage@vips@@QEAAAEAV01@AEBV01@@Z 0000000180042738     VError.obj
 0002:0000e738       $unwind$?exp10@VImage@vips@@QEBA?AV12@PEAVVOption@2@@Z 0000000180042738     VError.obj
 0002:0000e738       $unwind$?exp@VImage@vips@@QEBA?AV12@PEAVVOption@2@@Z 0000000180042738     VError.obj
 0002:0000e738       $unwind$?log10@VImage@vips@@QEBA?AV12@PEAVVOption@2@@Z 0000000180042738     VError.obj
 0002:0000e738       $unwind$?log@VImage@vips@@QEBA?AV12@PEAVVOption@2@@Z 0000000180042738     VError.obj
 0002:0000e738       $unwind$?atan@VImage@vips@@QEBA?AV12@PEAVVOption@2@@Z 0000000180042738     VError.obj
 0002:0000e738       $unwind$?acos@VImage@vips@@QEBA?AV12@PEAVVOption@2@@Z 0000000180042738     VError.obj
 0002:0000e738       $unwind$?asin@VImage@vips@@QEBA?AV12@PEAVVOption@2@@Z 0000000180042738     VError.obj
 0002:0000e738       $unwind$?tan@VImage@vips@@QEBA?AV12@PEAVVOption@2@@Z 0000000180042738     VError.obj
 0002:0000e738       $unwind$?cos@VImage@vips@@QEBA?AV12@PEAVVOption@2@@Z 0000000180042738     VError.obj
 0002:0000e738       $unwind$?sin@VImage@vips@@QEBA?AV12@PEAVVOption@2@@Z 0000000180042738     VError.obj
 0002:0000e738       $unwind$?conj@VImage@vips@@QEBA?AV12@PEAVVOption@2@@Z 0000000180042738     VError.obj
 0002:0000e738       $unwind$?rect@VImage@vips@@QEBA?AV12@PEAVVOption@2@@Z 0000000180042738     VError.obj
 0002:0000e738       $unwind$?polar@VImage@vips@@QEBA?AV12@PEAVVOption@2@@Z 0000000180042738     VError.obj
 0002:0000e738       $unwind$?imag@VImage@vips@@QEBA?AV12@PEAVVOption@2@@Z 0000000180042738     VError.obj
 0002:0000e738       $unwind$?real@VImage@vips@@QEBA?AV12@PEAVVOption@2@@Z 0000000180042738     VError.obj
 0002:0000e738       $unwind$?bandeor@VImage@vips@@QEBA?AV12@PEAVVOption@2@@Z 0000000180042738     VError.obj
 0002:0000e738       $unwind$?bandor@VImage@vips@@QEBA?AV12@PEAVVOption@2@@Z 0000000180042738     VError.obj
 0002:0000e738       $unwind$?bandand@VImage@vips@@QEBA?AV12@PEAVVOption@2@@Z 0000000180042738     VError.obj
 0002:0000e738       $unwind$?rint@VImage@vips@@QEBA?AV12@PEAVVOption@2@@Z 0000000180042738     VError.obj
 0002:0000e738       $unwind$?ceil@VImage@vips@@QEBA?AV12@PEAVVOption@2@@Z 0000000180042738     VError.obj
 0002:0000e738       $unwind$?floor@VImage@vips@@QEBA?AV12@PEAVVOption@2@@Z 0000000180042738     VError.obj
 0002:0000e738       $unwind$?rot270@VImage@vips@@QEBA?AV12@PEAVVOption@2@@Z 0000000180042738     VError.obj
 0002:0000e738       $unwind$?rot180@VImage@vips@@QEBA?AV12@PEAVVOption@2@@Z 0000000180042738     VError.obj
 0002:0000e740       $unwind$__acrt_FlsSetValue 0000000180042740     libucrt:winapi_thunks.obj
 0002:0000e740       $unwind$??_Glogic_error@std@@UEAAPEAXI@Z 0000000180042740     libcpmt:xthrow.obj
 0002:0000e740       $unwind$?make_error_code@std@@YA?AVerror_code@1@W4io_errc@1@@Z 0000000180042740     VError.obj
 0002:0000e740       $unwind$_RTC_Terminate     0000000180042740     LIBCMT:initsect.obj
 0002:0000e740       $unwind$??_Gbad_exception@std@@UEAAPEAXI@Z 0000000180042740     libvcruntime:frame.obj
 0002:0000e740       $unwind$__vcrt_FlsSetValue 0000000180042740     libvcruntime:winapi_downlevel.obj
 0002:0000e740       $unwind$_fclose_nolock     0000000180042740     libucrt:fclose.obj
 0002:0000e740       $unwind$?_Buy_raw@?$vector@NV?$allocator@N@std@@@std@@AEAAX_K@Z 0000000180042740     VError.obj
 0002:0000e740       $unwind$__acrt_execute_uninitializers 0000000180042740     libucrt:shared_initialization.obj
 0002:0000e740       $unwind$_initterm_e        0000000180042740     libucrt:initterm.obj
 0002:0000e740       $unwind$_RTC_Initialize    0000000180042740     LIBCMT:initsect.obj
 0002:0000e740       $unwind$_FindAndUnlinkFrame 0000000180042740     libvcruntime:risctrnsctrl.obj
 0002:0000e740       $unwind$?replace_current_thread_locale_nolock@@YAXQEAU__acrt_ptd@@QEAU__crt_locale_data@@@Z 0000000180042740     libucrt:per_thread_data.obj
 0002:0000e740       $unwind$_close_nolock      0000000180042740     libucrt:close.obj
 0002:0000e740       $unwind$??_Gbad_alloc@std@@UEAAPEAXI@Z 0000000180042740     libcpmt:xthrow.obj
 0002:0000e740       $unwind$_realloc_base      0000000180042740     libucrt:realloc_base.obj
 0002:0000e740       $unwind$__acrt_uninitialize_lowio 0000000180042740     libucrt:ioinit.obj
 0002:0000e740       $unwind$??_Glength_error@std@@UEAAPEAXI@Z 0000000180042740     libcpmt:xthrow.obj
 0002:0000e740       $unwind$__acrt_errno_map_os_error 0000000180042740     libucrt:errno.obj
 0002:0000e740       $unwind$??_Gexception@std@@UEAAPEAXI@Z 0000000180042740     libcpmt:xonce.obj
 0002:0000e740       $unwind$_updatetlocinfoEx_nolock 0000000180042740     libucrt:locale_refcounting.obj
 0002:0000e740       $unwind$??$common_initialize_environment_nolock@D@@YAHXZ 0000000180042740     libucrt:environment_initialization.obj
 0002:0000e740       $unwind$?SetUnwindTryBlock@__FrameHandler3@@SAXPEA_KPEAU_xDISPATCHER_CONTEXT@@PEBU_s_FuncInfo@@H@Z 0000000180042740     libvcruntime:ehstate.obj
 0002:0000e740       $unwind$??_Gbad_array_new_length@std@@UEAAPEAXI@Z 0000000180042740     LIBCMT:throw_bad_alloc.obj
 0002:0000e740       $unwind$__acrt_LocaleNameToLCID 0000000180042740     libucrt:winapi_thunks.obj
 0002:0000e740       $unwind$strncpy_s          0000000180042740     libucrt:strncpy_s.obj
 0002:0000e74c       $unwind$??0system_error@std@@QEAA@Verror_code@1@PEBD@Z 000000018004274c     VError.obj
 0002:0000e76c       $stateUnwindMap$??0system_error@std@@QEAA@Verror_code@1@PEBD@Z 000000018004276c     VError.obj
 0002:0000e788       $ip2state$??0system_error@std@@QEAA@Verror_code@1@PEBD@Z 0000000180042788     VError.obj
 0002:0000e7b8       $unwind$?_Doraise@failure@ios_base@std@@MEBAXXZ 00000001800427b8     VError.obj
 0002:0000e7b8       $unwind$_invalid_parameter_noinfo 00000001800427b8     libucrt:invalid_parameter.obj
 0002:0000e7b8       $unwind$_log10_special     00000001800427b8     libucrt:log_special.obj
 0002:0000e7b8       $unwind$_invalid_parameter_noinfo_noreturn 00000001800427b8     libucrt:invalid_parameter.obj
 0002:0000e7c0       $unwind$??0VError@vips@@QEAA@AEBV?$basic_string@DU?$char_traits@D@std@@V?$allocator@D@2@@std@@@Z 00000001800427c0     VError.obj
 0002:0000e7d0       $stateUnwindMap$??0VError@vips@@QEAA@AEBV01@@Z 00000001800427d0     VError.obj
 0002:0000e7d0       $stateUnwindMap$??0VError@vips@@QEAA@AEBV?$basic_string@DU?$char_traits@D@std@@V?$allocator@D@2@@std@@@Z 00000001800427d0     VError.obj
 0002:0000e7d0       $stateUnwindMap$??0VError@vips@@QEAA@XZ 00000001800427d0     VError.obj
 0002:0000e7d8       $ip2state$??0VError@vips@@QEAA@AEBV?$basic_string@DU?$char_traits@D@std@@V?$allocator@D@2@@std@@@Z 00000001800427d8     VError.obj
 0002:0000e7e0       $unwind$??0VError@vips@@QEAA@XZ 00000001800427e0     VError.obj
 0002:0000e7f0       $ip2state$??0VError@vips@@QEAA@XZ 00000001800427f0     VError.obj
 0002:0000e7f8       $unwind$??0VError@vips@@QEAA@AEBV01@@Z 00000001800427f8     VError.obj
 0002:0000e808       $ip2state$??0VError@vips@@QEAA@AEBV01@@Z 0000000180042808     VError.obj
 0002:0000e810       $unwind$??_EVError@vips@@UEAAPEAXI@Z 0000000180042810     VError.obj
 0002:0000e810       $unwind$??1VOption@vips@@UEAA@XZ 0000000180042810     VImage.obj
 0002:0000e81c       $chain$0$??_EVError@vips@@UEAAPEAXI@Z 000000018004281c     VError.obj
 0002:0000e830       $chain$1$??_EVError@vips@@UEAAPEAXI@Z 0000000180042830     VError.obj
 0002:0000e840       $unwind$??4VObject@vips@@QEAAAEAV01@AEBV01@@Z 0000000180042840     VError.obj
 0002:0000e840       $unwind$strpbrk            0000000180042840     libucrt:strpbrk.obj
 0002:0000e840       $unwind$??0VImage@vips@@QEAA@PEAU_VipsImage@@W4VSteal@1@@Z 0000000180042840     VError.obj
 0002:0000e840       $unwind$?set@VImage@vips@@QEAAXPEBD0@Z 0000000180042840     VError.obj
 0002:0000e840       $unwind$?set@VImage@vips@@QEAAXPEBDH@Z 0000000180042840     VError.obj
 0002:0000e840       $unwind$??0VInterpolate@vips@@QEAA@PEAU_VipsInterpolate@@W4VSteal@1@@Z 0000000180042840     VError.obj
 0002:0000e850       $unwind$??0VOption@vips@@QEAA@AEBV01@@Z 0000000180042850     VError.obj
 0002:0000e870       $stateUnwindMap$??0VOption@vips@@QEAA@AEBV01@@Z 0000000180042870     VError.obj
 0002:0000e888       $ip2state$??0VOption@vips@@QEAA@AEBV01@@Z 0000000180042888     VError.obj
 0002:0000e898       $unwind$??_EVOption@vips@@UEAAPEAXI@Z 0000000180042898     VError.obj
 0002:0000e8b0       $ip2state$??_EVOption@vips@@UEAAPEAXI@Z 00000001800428b0     VError.obj
 0002:0000e8b8       $unwind$?set@VImage@vips@@QEAAXPEBDN@Z 00000001800428b8     VError.obj
 0002:0000e8c8       $unwind$?set@VImage@vips@@QEAAXPEBDP6AHPEAX1@Z1_K@Z 00000001800428c8     VError.obj
 0002:0000e8c8       $unwind$_invalid_parameter 00000001800428c8     libucrt:invalid_parameter.obj
 0002:0000e8dc       $unwind$??0VInterpolate@vips@@QEAA@$$QEAV01@@Z 00000001800428dc     VError.obj
 0002:0000e8dc       $unwind$??0VInterpolate@vips@@QEAA@AEBV01@@Z 00000001800428dc     VError.obj
 0002:0000e8dc       $unwind$?get_typeof@VImage@vips@@QEBA_KPEBD@Z 00000001800428dc     VError.obj
 0002:0000e8dc       $unwind$?new_memory@VImage@vips@@SA?AV12@XZ 00000001800428dc     VError.obj
 0002:0000e8dc       $unwind$??0VImage@vips@@QEAA@$$QEAV01@@Z 00000001800428dc     VError.obj
 0002:0000e8dc       $unwind$?remove@VImage@vips@@QEBA_NPEBD@Z 00000001800428dc     VError.obj
 0002:0000e8dc       $unwind$?new_matrix@VImage@vips@@SA?AV12@HH@Z 00000001800428dc     VImage.obj
 0002:0000e8dc       $unwind$??0VImage@vips@@QEAA@AEBV01@@Z 00000001800428dc     VError.obj
 0002:0000e8e8       $unwind$?copy_memory@VImage@vips@@QEBA?AV12@XZ 00000001800428e8     VError.obj
 0002:0000e8e8       $unwind$?get_string@VImage@vips@@QEBAPEBDPEBD@Z 00000001800428e8     VError.obj
 0002:0000e8e8       $unwind$?get_int@VImage@vips@@QEBAHPEBD@Z 00000001800428e8     VError.obj
 0002:0000e8e8       $unwind$?new_temp_file@VImage@vips@@SA?AV12@PEBD@Z 00000001800428e8     VError.obj
 0002:0000e8e8       $unwind$?get_double@VImage@vips@@QEBANPEBD@Z 00000001800428e8     VError.obj
 0002:0000e8fc       $unwind$?new_from_name@VInterpolate@vips@@SA?AV12@PEBDPEAVVOption@2@@Z 00000001800428fc     VInterpolate.obj
 0002:0000e8fc       $unwind$?get_blob@VImage@vips@@QEBAPEBXPEBDPEA_K@Z 00000001800428fc     VError.obj
 0002:0000e8fc       $unwind$?new_from_memory@VImage@vips@@SA?AV12@PEAX_KHHHW4VipsBandFormat@@@Z 00000001800428fc     VError.obj
 0002:0000e910       $unwind$?option@VImage@vips@@SAPEAVVOption@2@XZ 0000000180042910     VError.obj
 0002:0000e920       $stateUnwindMap$?option@VImage@vips@@SAPEAVVOption@2@XZ 0000000180042920     VError.obj
 0002:0000e920       $stateUnwindMap$?write_to_file@VImage@vips@@QEBAXPEBDPEAVVOption@2@@Z 0000000180042920     VImage.obj
 0002:0000e920       $stateUnwindMap$?find_trim@VImage@vips@@QEBAHPEAH00PEAVVOption@2@@Z 0000000180042920     VImage.obj
 0002:0000e928       $ip2state$?option@VImage@vips@@SAPEAVVOption@2@XZ 0000000180042928     VError.obj
 0002:0000e938       $unwind$?dtor$0@?0??matload@VImage@vips@@SA?AV12@PEBDPEAVVOption@2@@Z@4HA 0000000180042938     VImage.obj
 0002:0000e938       $unwind$?dtor$4@?0??convi@VImage@vips@@QEBA?AV12@V12@PEAVVOption@2@@Z@4HA 0000000180042938     VImage.obj
 0002:0000e938       $unwind$?dtor$1@?0??matload@VImage@vips@@SA?AV12@PEBDPEAVVOption@2@@Z@4HA 0000000180042938     VImage.obj
 0002:0000e938       $unwind$?dtor$1@?0??dE76@VImage@vips@@QEBA?AV12@V12@PEAVVOption@2@@Z@4HA 0000000180042938     VImage.obj
 0002:0000e938       $unwind$?dtor$4@?0??dE76@VImage@vips@@QEBA?AV12@V12@PEAVVOption@2@@Z@4HA 0000000180042938     VImage.obj
 0002:0000e938       $unwind$?dtor$1@?0??rawsave@VImage@vips@@QEBAXPEBDPEAVVOption@2@@Z@4HA 0000000180042938     VImage.obj
 0002:0000e938       $unwind$?dtor$1@?0??match@VImage@vips@@QEBA?AV12@V12@HHHHHHHHPEAVVOption@2@@Z@4HA 0000000180042938     VImage.obj
 0002:0000e938       $unwind$?dtor$1@?0??convi@VImage@vips@@QEBA?AV12@V12@PEAVVOption@2@@Z@4HA 0000000180042938     VImage.obj
 0002:0000e938       $unwind$?dtor$4@?0??match@VImage@vips@@QEBA?AV12@V12@HHHHHHHHPEAVVOption@2@@Z@4HA 0000000180042938     VImage.obj
 0002:0000e938       $unwind$?dtor$4@?0??convsep@VImage@vips@@QEBA?AV12@V12@PEAVVOption@2@@Z@4HA 0000000180042938     VImage.obj
 0002:0000e938       $unwind$?dtor$1@?0??rawsave_fd@VImage@vips@@QEBAXHPEAVVOption@2@@Z@4HA 0000000180042938     VImage.obj
 0002:0000e938       $unwind$?dtor$0@?0??mask_ideal_ring@VImage@vips@@SA?AV12@HHNNPEAVVOption@2@@Z@4HA 0000000180042938     VImage.obj
 0002:0000e938       $unwind$?dtor$1@?0??dE00@VImage@vips@@QEBA?AV12@V12@PEAVVOption@2@@Z@4HA 0000000180042938     VImage.obj
 0002:0000e938       $unwind$?dtor$1@?0??mask_ideal_ring@VImage@vips@@SA?AV12@HHNNPEAVVOption@2@@Z@4HA 0000000180042938     VImage.obj
 0002:0000e938       $unwind$?dtor$4@?0??recomb@VImage@vips@@QEBA?AV12@V12@PEAVVOption@2@@Z@4HA 0000000180042938     VImage.obj
 0002:0000e938       $unwind$?dtor$1@?0??recomb@VImage@vips@@QEBA?AV12@V12@PEAVVOption@2@@Z@4HA 0000000180042938     VImage.obj
 0002:0000e938       $unwind$?dtor$4@?0??complex2@VImage@vips@@QEBA?AV12@V12@W4VipsOperationComplex2@@PEAVVOption@2@@Z@4HA 0000000180042938     VImage.obj
 0002:0000e938       $unwind$?dtor$4@?0??dE00@VImage@vips@@QEBA?AV12@V12@PEAVVOption@2@@Z@4HA 0000000180042938     VImage.obj
 0002:0000e938       $unwind$__acrt_initialize_lowio$fin$0 0000000180042938     libucrt:ioinit.obj
 0002:0000e938       $unwind$?dtor$2@?0??reduce@VImage@vips@@QEBA?AV12@NNPEAVVOption@2@@Z@4HA 0000000180042938     VImage.obj
 0002:0000e938       $unwind$?dtor$0@?0??reduce@VImage@vips@@QEBA?AV12@NNPEAVVOption@2@@Z@4HA 0000000180042938     VImage.obj
 0002:0000e938       $unwind$?dtor$1@?0??convsep@VImage@vips@@QEBA?AV12@V12@PEAVVOption@2@@Z@4HA 0000000180042938     VImage.obj
 0002:0000e938       $unwind$?dtor$0@?0??mask_ideal_band@VImage@vips@@SA?AV12@HHNNNPEAVVOption@2@@Z@4HA 0000000180042938     VImage.obj
 0002:0000e938       $unwind$?dtor$2@?0??copy@VImage@vips@@QEBA?AV12@PEAVVOption@2@@Z@4HA 0000000180042938     VImage.obj
 0002:0000e938       $unwind$?dtor$2@?0??reduceh@VImage@vips@@QEBA?AV12@NPEAVVOption@2@@Z@4HA 0000000180042938     VImage.obj
 0002:0000e938       $unwind$?dtor$1@?0??csvsave@VImage@vips@@QEBAXPEBDPEAVVOption@2@@Z@4HA 0000000180042938     VImage.obj
 0002:0000e938       $unwind$?dtor$0@?0??reduceh@VImage@vips@@QEBA?AV12@NPEAVVOption@2@@Z@4HA 0000000180042938     VImage.obj
 0002:0000e938       $unwind$?dtor$0@?0??copy@VImage@vips@@QEBA?AV12@PEAVVOption@2@@Z@4HA 0000000180042938     VImage.obj
 0002:0000e938       $unwind$?dtor$1@?0??mask_ideal_band@VImage@vips@@SA?AV12@HHNNNPEAVVOption@2@@Z@4HA 0000000180042938     VImage.obj
 0002:0000e938       $unwind$?dtor$2@?0??reducev@VImage@vips@@QEBA?AV12@NPEAVVOption@2@@Z@4HA 0000000180042938     VImage.obj
 0002:0000e938       $unwind$?dtor$3@?0??draw_image@VImage@vips@@QEBAXV12@HHPEAVVOption@2@@Z@4HA 0000000180042938     VImage.obj
 0002:0000e938       $unwind$?dtor$0@?0??reducev@VImage@vips@@QEBA?AV12@NPEAVVOption@2@@Z@4HA 0000000180042938     VImage.obj
 0002:0000e938       $unwind$?dtor$1@?0??complex2@VImage@vips@@QEBA?AV12@V12@W4VipsOperationComplex2@@PEAVVOption@2@@Z@4HA 0000000180042938     VImage.obj
 0002:0000e938       $unwind$?dtor$1@?0??countlines@VImage@vips@@QEBANW4VipsDirection@@PEAVVOption@2@@Z@4HA 0000000180042938     VImage.obj
 0002:0000e938       $unwind$?dtor$0@?0??csvload@VImage@vips@@SA?AV12@PEBDPEAVVOption@2@@Z@4HA 0000000180042938     VImage.obj
 0002:0000e938       $unwind$?dtor$4@?0??relational@VImage@vips@@QEBA?AV12@V12@W4VipsOperationRelational@@PEAVVOption@2@@Z@4HA 0000000180042938     VImage.obj
 0002:0000e938       $unwind$?dtor$1@?0??relational@VImage@vips@@QEBA?AV12@V12@W4VipsOperationRelational@@PEAVVOption@2@@Z@4HA 0000000180042938     VImage.obj
 0002:0000e938       $unwind$?dtor$0@?0??mask_ideal@VImage@vips@@SA?AV12@HHNPEAVVOption@2@@Z@4HA 0000000180042938     VImage.obj
 0002:0000e938       $unwind$?dtor$2@?0??crop@VImage@vips@@QEBA?AV12@HHHHPEAVVOption@2@@Z@4HA 0000000180042938     VImage.obj
 0002:0000e938       $unwind$?dtor$1@?0??mask_ideal@VImage@vips@@SA?AV12@HHNPEAVVOption@2@@Z@4HA 0000000180042938     VImage.obj
 0002:0000e938       $unwind$?dtor$4@?0??complexform@VImage@vips@@QEBA?AV12@V12@PEAVVOption@2@@Z@4HA 0000000180042938     VImage.obj
 0002:0000e938       $unwind$?dtor$4@?0??relational_const@VImage@vips@@QEBA?AV12@W4VipsOperationRelational@@V?$vector@NV?$allocator@N@std@@@std@@PEAVVOption@2@@Z@4HA 0000000180042938     VImage.obj
 0002:0000e938       $unwind$?dtor$1@?0??relational_const@VImage@vips@@QEBA?AV12@W4VipsOperationRelational@@V?$vector@NV?$allocator@N@std@@@std@@PEAVVOption@2@@Z@4HA 0000000180042938     VImage.obj
 0002:0000e938       $unwind$?dtor$1@?0??csvload@VImage@vips@@SA?AV12@PEBDPEAVVOption@2@@Z@4HA 0000000180042938     VImage.obj
 0002:0000e938       $unwind$?dtor$0@?0??crop@VImage@vips@@QEBA?AV12@HHHHPEAVVOption@2@@Z@4HA 0000000180042938     VImage.obj
 0002:0000e938       $unwind$?dtor$0@?0??rawload@VImage@vips@@SA?AV12@PEBDHHHPEAVVOption@2@@Z@4HA 0000000180042938     VImage.obj
 0002:0000e938       $unwind$?dtor$1@?0??complexform@VImage@vips@@QEBA?AV12@V12@PEAVVOption@2@@Z@4HA 0000000180042938     VImage.obj
 0002:0000e938       $unwind$?dtor$1@?0??niftisave@VImage@vips@@QEBAXPEBDPEAVVOption@2@@Z@4HA 0000000180042938     VImage.obj
 0002:0000e938       $unwind$?dtor$5@?0??composite@VImage@vips@@SA?AV12@V?$vector@VVImage@vips@@V?$allocator@VVImage@vips@@@std@@@std@@V?$vector@HV?$allocator@H@std@@@4@PEAVVOption@2@@Z@4HA 0000000180042938     VImage.obj
 0002:0000e938       $unwind$?dtor$4@?0??remainder@VImage@vips@@QEBA?AV12@V12@PEAVVOption@2@@Z@4HA 0000000180042938     VImage.obj
 0002:0000e938       $unwind$?dtor$1@?0??remainder@VImage@vips@@QEBA?AV12@V12@PEAVVOption@2@@Z@4HA 0000000180042938     VImage.obj
 0002:0000e938       $unwind$?dtor$1@?0??rawload@VImage@vips@@SA?AV12@PEBDHHHPEAVVOption@2@@Z@4HA 0000000180042938     VImage.obj
 0002:0000e938       $unwind$?dtor$1@?0??matrixload@VImage@vips@@SA?AV12@PEBDPEAVVOption@2@@Z@4HA 0000000180042938     VImage.obj
 0002:0000e938       $unwind$?dtor$0@?0??mask_gaussian_ring@VImage@vips@@SA?AV12@HHNNNPEAVVOption@2@@Z@4HA 0000000180042938     VImage.obj
 0002:0000e938       $unwind$?dtor$0@?0??matrixload@VImage@vips@@SA?AV12@PEBDPEAVVOption@2@@Z@4HA 0000000180042938     VImage.obj
 0002:0000e938       $unwind$?dtor$4@?0??remainder_const@VImage@vips@@QEBA?AV12@V?$vector@NV?$allocator@N@std@@@std@@PEAVVOption@2@@Z@4HA 0000000180042938     VImage.obj
 0002:0000e938       $unwind$?dtor$1@?0??remainder_const@VImage@vips@@QEBA?AV12@V?$vector@NV?$allocator@N@std@@@std@@PEAVVOption@2@@Z@4HA 0000000180042938     VImage.obj
 0002:0000e938       $unwind$?dtor$1@?0??mask_gaussian_ring@VImage@vips@@SA?AV12@HHNNNPEAVVOption@2@@Z@4HA 0000000180042938     VImage.obj
 0002:0000e938       $unwind$?dtor$1@?0??radsave_buffer@VImage@vips@@QEBAPEAU_VipsBlob@@PEAVVOption@2@@Z@4HA 0000000180042938     VImage.obj
 0002:0000e938       $unwind$?dtor$1@?0??min@VImage@vips@@QEBANPEAVVOption@2@@Z@4HA 0000000180042938     VImage.obj
 0002:0000e938       $unwind$?dtor$2@?0??replicate@VImage@vips@@QEBA?AV12@HHPEAVVOption@2@@Z@4HA 0000000180042938     VImage.obj
 0002:0000e938       $unwind$?dtor$0@?0??replicate@VImage@vips@@QEBA?AV12@HHPEAVVOption@2@@Z@4HA 0000000180042938     VImage.obj
 0002:0000e938       $unwind$?dtor$0@?0??mask_gaussian_band@VImage@vips@@SA?AV12@HHNNNNPEAVVOption@2@@Z@4HA 0000000180042938     VImage.obj
 0002:0000e938       $unwind$?dtor$1@?0??mask_gaussian_band@VImage@vips@@SA?AV12@HHNNNNPEAVVOption@2@@Z@4HA 0000000180042938     VImage.obj
 0002:0000e938       $unwind$?dtor$1@?0??radsave@VImage@vips@@QEBAXPEBDPEAVVOption@2@@Z@4HA 0000000180042938     VImage.obj
 0002:0000e938       $unwind$?dtor$2@?0??resize@VImage@vips@@QEBA?AV12@NPEAVVOption@2@@Z@4HA 0000000180042938     VImage.obj
 0002:0000e938       $unwind$?dtor$0@?0??resize@VImage@vips@@QEBA?AV12@NPEAVVOption@2@@Z@4HA 0000000180042938     VImage.obj
